LIBRARY    C:\Users\User\Downloads\Fedra/lib/libAnalysis
EXPORTS 
	hypot
	fabsf
	sqrtf
	?fabs@@YAMM@Z
	?sqrt@@YAMM@Z
	??2@YAPAXIPAX@Z
	??3@YAXPAX0@Z
	?length@?$char_traits@D@std@@SAIPBD@Z
	?copy@?$char_traits@D@std@@SAPADPADPBDI@Z
	?move@?$char_traits@D@std@@SAPADPADPBDI@Z
	?assign@?$char_traits@D@std@@SAXAADABD@Z
	??0?$allocator@D@std@@QAE@XZ
	?deallocate@?$allocator@D@std@@QAEXPADI@Z
	?allocate@?$allocator@D@std@@QAEPADI@Z
	?max_size@?$allocator@D@std@@QBEIXZ
	?max_size@?$allocator_traits@V?$allocator@D@std@@@std@@SAIABV?$allocator@D@2@@Z
	??0?$_Wrap_alloc@V?$allocator@D@std@@@std@@QAE@XZ
	?allocate@?$_Wrap_alloc@V?$allocator@D@std@@@std@@QAEPADI@Z
	?deallocate@?$_Wrap_alloc@V?$allocator@D@std@@@std@@QAEXPADI@Z
	?max_size@?$_Wrap_alloc@V?$allocator@D@std@@@std@@QBEIXZ
	??0?$_String_val@U?$_Simple_types@D@std@@@std@@QAE@XZ
	?_Myptr@?$_String_val@U?$_Simple_types@D@std@@@std@@QAEPADXZ
	?_Myptr@?$_String_val@U?$_Simple_types@D@std@@@std@@QBEPBDXZ
	??0?$_String_alloc@$0A@U?$_String_base_types@DV?$allocator@D@std@@@std@@@std@@QAE@ABV?$allocator@D@1@@Z
	?_Getal@?$_String_alloc@$0A@U?$_String_base_types@DV?$allocator@D@std@@@std@@@std@@QBE?AU?$_Wrap_alloc@V?$allocator@D@std@@@2@XZ
	??0?$basic_string@DU?$char_traits@D@std@@V?$allocator@D@2@@std@@QAE@PBD@Z
	??1?$basic_string@DU?$char_traits@D@std@@V?$allocator@D@2@@std@@QAE@XZ
	?assign@?$basic_string@DU?$char_traits@D@std@@V?$allocator@D@2@@std@@QAEAAV12@ABV12@II@Z
	?assign@?$basic_string@DU?$char_traits@D@std@@V?$allocator@D@2@@std@@QAEAAV12@PBDI@Z
	?assign@?$basic_string@DU?$char_traits@D@std@@V?$allocator@D@2@@std@@QAEAAV12@PBD@Z
	?erase@?$basic_string@DU?$char_traits@D@std@@V?$allocator@D@2@@std@@QAEAAV12@I@Z
	?erase@?$basic_string@DU?$char_traits@D@std@@V?$allocator@D@2@@std@@QAEAAV12@II@Z
	?size@?$basic_string@DU?$char_traits@D@std@@V?$allocator@D@2@@std@@QBEIXZ
	?max_size@?$basic_string@DU?$char_traits@D@std@@V?$allocator@D@2@@std@@QBEIXZ
	?_Copy@?$basic_string@DU?$char_traits@D@std@@V?$allocator@D@2@@std@@QAEXII@Z
	?_Eos@?$basic_string@DU?$char_traits@D@std@@V?$allocator@D@2@@std@@QAEXI@Z
	?_Grow@?$basic_string@DU?$char_traits@D@std@@V?$allocator@D@2@@std@@QAE_NI_N@Z
	?_Inside@?$basic_string@DU?$char_traits@D@std@@V?$allocator@D@2@@std@@QAE_NPBD@Z
	?_Tidy@?$basic_string@DU?$char_traits@D@std@@V?$allocator@D@2@@std@@QAEX_NI@Z
	?_Xlen@?$basic_string@DU?$char_traits@D@std@@V?$allocator@D@2@@std@@QBEXXZ
	?_Xran@?$basic_string@DU?$char_traits@D@std@@V?$allocator@D@2@@std@@QBEXXZ
	?generic_category@std@@YAABVerror_category@1@XZ
	?system_category@std@@YAABVerror_category@1@XZ
	??0error_category@std@@QAE@XZ
	??1error_category@std@@UAE@XZ
	?default_error_condition@error_category@std@@UBE?AVerror_condition@2@H@Z
	?equivalent@error_category@std@@UBE_NHABVerror_condition@2@@Z
	?equivalent@error_category@std@@UBE_NABVerror_code@2@H@Z
	??8error_category@std@@QBE_NABV01@@Z
	?value@error_code@std@@QBEHXZ
	?category@error_code@std@@QBEABVerror_category@2@XZ
	??0error_condition@std@@QAE@HABVerror_category@1@@Z
	?value@error_condition@std@@QBEHXZ
	?category@error_condition@std@@QBEABVerror_category@2@XZ
	??8error_condition@std@@QBE_NABV01@@Z
	??0_Generic_error_category@std@@QAE@XZ
	?name@_Generic_error_category@std@@UBEPBDXZ
	?message@_Generic_error_category@std@@UBE?AV?$basic_string@DU?$char_traits@D@std@@V?$allocator@D@2@@2@H@Z
	??1_Generic_error_category@std@@UAE@XZ
	??0_Iostream_error_category@std@@QAE@XZ
	?name@_Iostream_error_category@std@@UBEPBDXZ
	?message@_Iostream_error_category@std@@UBE?AV?$basic_string@DU?$char_traits@D@std@@V?$allocator@D@2@@2@H@Z
	??1_Iostream_error_category@std@@UAE@XZ
	??0_System_error_category@std@@QAE@XZ
	?name@_System_error_category@std@@UBEPBDXZ
	?message@_System_error_category@std@@UBE?AV?$basic_string@DU?$char_traits@D@std@@V?$allocator@D@2@@2@H@Z
	?default_error_condition@_System_error_category@std@@UBE?AVerror_condition@2@H@Z
	??1_System_error_category@std@@UAE@XZ
	?Clear@TObject@@UAEXPBD@Z
	?GetOption@TObject@@UBEPBDXZ
	?IsSortable@TObject@@UBE_NXZ
	??2TObject@@SAPAXI@Z
	?Abs@TMath@@YAHH@Z
	?IsLong@TString@@ABE_NXZ
	?GetLongPointer@TString@@ABEPBDXZ
	?GetShortPointer@TString@@ABEPBDXZ
	?GetPointer@TString@@ABEPBDXZ
	?Data@TString@@QBEPBDXZ
	??0TCollection@@IAE@XZ
	??1TCollection@@UAE@XZ
	?GetEntries@TCollection@@UBEHXZ
	?GetSize@TCollection@@UBEHXZ
	?Hash@TCollection@@UBEKXZ
	?IsEmpty@TCollection@@UBE_NXZ
	?IsFolder@TCollection@@UBE_NXZ
	?IsSortable@TCollection@@UBE_NXZ
	?MakeReverseIterator@TCollection@@UBEPAVTIterator@@XZ
	?IsA@TCollection@@UBEPAVTClass@@XZ
	??0TSeqCollection@@IAE@XZ
	?Changed@TSeqCollection@@MAEXXZ
	??1TSeqCollection@@UAE@XZ
	?Add@TSeqCollection@@UAEXPAVTObject@@@Z
	?RemoveFirst@TSeqCollection@@UAEXXZ
	?RemoveLast@TSeqCollection@@UAEXXZ
	?RemoveAt@TSeqCollection@@UAEPAVTObject@@H@Z
	?RemoveAfter@TSeqCollection@@UAEXPAVTObject@@@Z
	?RemoveBefore@TSeqCollection@@UAEXPAVTObject@@@Z
	?IsSorted@TSeqCollection@@UBE_NXZ
	?IsA@TSeqCollection@@UBEPAVTClass@@XZ
	??0TList@@QAE@XZ
	?Add@TList@@UAEXPAVTObject@@@Z
	?Add@TList@@UAEXPAVTObject@@PBD@Z
	?FirstLink@TList@@UBEPAVTObjLink@@XZ
	?LastLink@TList@@UBEPAVTObjLink@@XZ
	?IsA@TList@@UBEPAVTClass@@XZ
	??0TDatime@@QAE@I_N@Z
	??1TDatime@@UAE@XZ
	?IsA@TDatime@@UBEPAVTClass@@XZ
	?BoundsOk@TObjArray@@IBE_NPBDH@Z
	?GetEntriesFast@TObjArray@@QBEHXZ
	?Add@TObjArray@@UAEXPAVTObject@@@Z
	?At@TObjArray@@UBEPAVTObject@@H@Z
	??0_Ignore@std@@QAE@XZ
	?GetXmin@TAxis@@QBENXZ
	?GetXmax@TAxis@@QBENXZ
	??0TSortedList@@QAE@_N@Z
	?IsSorted@TSortedList@@UBE_NXZ
	?AddFirst@TSortedList@@UAEXPAVTObject@@@Z
	?AddFirst@TSortedList@@UAEXPAVTObject@@PBD@Z
	?AddLast@TSortedList@@UAEXPAVTObject@@@Z
	?AddLast@TSortedList@@UAEXPAVTObject@@PBD@Z
	?AddAt@TSortedList@@UAEXPAVTObject@@H@Z
	?AddAfter@TSortedList@@UAEXPBVTObject@@PAV2@@Z
	?AddAfter@TSortedList@@UAEXPAVTObjLink@@PAVTObject@@@Z
	?AddBefore@TSortedList@@UAEXPBVTObject@@PAV2@@Z
	?AddBefore@TSortedList@@UAEXPAVTObjLink@@PAVTObject@@@Z
	?Sort@TSortedList@@UAEX_N@Z
	?IsA@TSortedList@@UBEPAVTClass@@XZ
	??1TSortedList@@UAE@XZ
	??1EdbPoint@@UAE@XZ
	?Transform@EdbPoint@@UAEXPBVEdbAffine2D@@@Z
	?Transform@EdbPoint@@UAEXPBVEdbAffine3D@@@Z
	?Test@EdbPoint@@UBEXXZ
	?IsA@EdbPoint@@UBEPAVTClass@@XZ
	??0EdbPoint@@QAE@XZ
	??1EdbAngle2D@@UAE@XZ
	?Test@EdbAngle2D@@UBEXXZ
	?IsA@EdbAngle2D@@UBEPAVTClass@@XZ
	??0EdbAngle2D@@QAE@XZ
	??1EdbPoint2D@@UAE@XZ
	?Z@EdbPoint2D@@UBEMXZ
	?SetZ@EdbPoint2D@@UAEXM@Z
	?Test@EdbPoint2D@@UBEXXZ
	?TestPoint2D@EdbPoint2D@@UBEXXZ
	?IsA@EdbPoint2D@@UBEPAVTClass@@XZ
	??0EdbPoint2D@@QAE@XZ
	??1EdbTrack2D@@UAE@XZ
	?Test@EdbTrack2D@@UBEXXZ
	?IsA@EdbTrack2D@@UBEPAVTClass@@XZ
	??0EdbTrack2D@@QAE@XZ
	??0EdbID@@QAE@HHHH@Z
	??1EdbID@@UAE@XZ
	?Set@EdbID@@QAEXHHHH@Z
	?IsA@EdbID@@UBEPAVTClass@@XZ
	??0EdbSegP@@QAE@XZ
	??0EdbSegP@@QAE@ABV0@@Z
	??1EdbSegP@@UAE@XZ
	?SetZ@EdbSegP@@UAEXM@Z
	?ID@EdbSegP@@QBEHXZ
	?PID@EdbSegP@@QBEHXZ
	?Flag@EdbSegP@@QBEHXZ
	?W@EdbSegP@@QBEMXZ
	?Z@EdbSegP@@UBEMXZ
	?Plate@EdbSegP@@QBEHXZ
	?Side@EdbSegP@@QBEHXZ
	?X@EdbSegP@@UBEMXZ
	?Y@EdbSegP@@UBEMXZ
	?TX@EdbSegP@@UBEMXZ
	?TY@EdbSegP@@UBEMXZ
	?SetX@EdbSegP@@UAEXM@Z
	?SetY@EdbSegP@@UAEXM@Z
	?SetTX@EdbSegP@@UAEXM@Z
	?SetTY@EdbSegP@@UAEXM@Z
	?IsSortable@EdbSegP@@UBE_NXZ
	?IsA@EdbSegP@@UBEPAVTClass@@XZ
	?GetSegment@EdbSegmentsBox@@QBEPAVEdbSegP@@H@Z
	??0EdbTrackP@@QAE@AAV0@@Z
	?SetCounters@EdbTrackP@@QAEXXZ
	?SetN0@EdbTrackP@@QAEXXZ
	?SetNpl@EdbTrackP@@QAEXXZ
	?N@EdbTrackP@@QBEHXZ
	?GetSegmentFirst@EdbTrackP@@QBEPAVEdbSegP@@XZ
	?GetSegmentLast@EdbTrackP@@QBEPAVEdbSegP@@XZ
	?GetSegment@EdbTrackP@@QBEPAVEdbSegP@@H@Z
	?AddSegment@EdbTrackP@@QAEXPAVEdbSegP@@@Z
	?Clear@EdbTrackP@@QAEXXZ
	?IsA@EdbTrackP@@UBEPAVTClass@@XZ
	?ID@EdbPattern@@QBEHXZ
	?Plate@EdbPattern@@QBEHXZ
	?Npatterns@EdbPatternsVolume@@QBEHXZ
	?GetTrack@EdbVTA@@QBEPAVEdbTrackP@@XZ
	?SetZpos@EdbVTA@@QAEXH@Z
	?SetFlag@EdbVTA@@QAEXH@Z
	?SetImp@EdbVTA@@QAEXM@Z
	?N@EdbVertex@@QBEHXZ
	?Hash@EdbVertex@@UBEKXZ
	?IsSortable@EdbVertex@@UBE_NXZ
	?X@EdbVertex@@QBEMXZ
	?Y@EdbVertex@@QBEMXZ
	?Z@EdbVertex@@QBEMXZ
	?GetVTa@EdbVertex@@QAEPAVEdbVTA@@H@Z
	?GetTrack@EdbVertex@@QAEPAVEdbTrackP@@H@Z
	?V@EdbVertex@@QBEPAVVertex@VERTEX@@XZ
	?SetID@EdbVertex@@QAEXH@Z
	?SetXYZ@EdbVertex@@QAEXMMM@Z
	?Ntracks@EdbPVRec@@QBEHXZ
	?GetTrack@EdbPVRec@@QBEPAVEdbTrackP@@H@Z
	?Nvtx@EdbPVRec@@QBEHXZ
	?GetVertex@EdbPVRec@@QAEPAVEdbVertex@@AAH@Z
	??0EdbTrackDS@@QAE@PAVEdbTrackP@@PAVEdbVertex@@@Z
	?Init@EdbTrackDS@@QAEXXZ
	?SetFlagsAuto@EdbTrackDS@@QAEXXZ
	?Comment@EdbTrackDS@@QAEPBDXZ
	?SetVertexUp@EdbTrackDS@@QAEXPAVEdbVertex@@@Z
	?SegmentFirst@EdbTrackDS@@QAEPAVEdbSegP@@XZ
	?SetTrackSearch@EdbTrackDS@@QAEXH@Z
	?TrackSearch@EdbTrackDS@@QAEHXZ
	?SetParticle@EdbTrackDS@@QAEXH@Z
	?Particle@EdbTrackDS@@QAEHXZ
	?Darkness@EdbTrackDS@@QAEHXZ
	?SetCSTrack@EdbTrackDS@@QAEXH@Z
	?CSTrack@EdbTrackDS@@QAEHXZ
	?Classification@EdbTrackDS@@QAEHXZ
	?IPUp@EdbTrackDS@@QAENXZ
	?SetP@EdbTrackDS@@QAEXNNN@Z
	?GetOriginal@EdbTrackDS@@QAEPAVEdbTrackP@@XZ
	?Print@EdbTrackDS@@QAEXXZ
	?IsA@EdbTrackDS@@UBEPAVTClass@@XZ
	??1EdbTrackDS@@UAE@XZ
	?AddTrack@EdbDecayVertex@@AAEXPAVEdbTrackDS@@@Z
	??0EdbDecayVertex@@QAE@PAVEdbVertex@@0PAVEdbTrackDS@@11111@Z
	??0EdbDecayVertex@@QAE@PAVEdbVertex@@0PAVEdbTrackDS@@PAVTObjArray@@@Z
	??0EdbDecayVertex@@QAE@XZ
	??1EdbDecayVertex@@UAE@XZ
	?SetParent@EdbDecayVertex@@QAEXPAVEdbTrackDS@@@Z
	?SetDaughter@EdbDecayVertex@@QAEXPAVEdbTrackDS@@@Z
	?SetDaughters@EdbDecayVertex@@QAEXPAVTObjArray@@@Z
	?SetPartner@EdbDecayVertex@@QAEXPAVEdbTrackDS@@@Z
	?SetPrimaryVertex@EdbDecayVertex@@QAEXPAVEdbVertex@@@Z
	?GetPrimaryVertex@EdbDecayVertex@@QAEPAVEdbVertex@@XZ
	?SetType@EdbDecayVertex@@QAEXH@Z
	?IsA@EdbDecayVertex@@UBEPAVTClass@@XZ
	?S1@EdbSmallKink@@QAEPAVEdbSegP@@XZ
	?S2@EdbSmallKink@@QAEPAVEdbSegP@@XZ
	?IPL1@EdbSmallKink@@QAEHXZ
	?IPL2@EdbSmallKink@@QAEHXZ
	??0EdbSmallKink@@QAE@PAVEdbVertex@@PAVEdbTrackP@@PAVEdbSegP@@2NNNNHNNNNNN@Z
	?Draw@EdbSmallKink@@UAEXPBD@Z
	?IsA@EdbSmallKink@@UBEPAVTClass@@XZ
	??1EdbSmallKink@@UAE@XZ
	?FindPrimaryVertex@EdbDecaySearch@@QAEPAVEdbVertex@@XZ
	?SetVertex@EdbDecaySearch@@QAEXPAVEdbVertex@@@Z
	?TSDaughterTracks@EdbDecaySearch@@QAEPAVTObjArray@@PAV2@@Z
	?GetTSDauIP1@EdbDecaySearch@@QAENN@Z
	?MTSearch2seg@EdbDecaySearch@@QAEXPAVTObjArray@@@Z
	?MTSearchAll@EdbDecaySearch@@QAEXPAVTObjArray@@@Z
	?TSDaughterTracks2@EdbDecaySearch@@QAEXXZ
	?GetTSDauIP2@EdbDecaySearch@@QAENN@Z
	?SmallKinkSearch@EdbDecaySearch@@QAEXXZ
	?KinkSearch@EdbDecaySearch@@QAEXXZ
	?GetIPCut@EdbDecaySearch@@QAEMPAVEdbVertex@@PAVEdbSegP@@@Z
	?ShortDecaySearch@EdbDecaySearch@@QAEXXZ
	?TSParentTracks@EdbDecaySearch@@QAEPAVTObjArray@@PAV2@@Z
	?TSBaseTracks@EdbDecaySearch@@QAEPAVTObjArray@@H@Z
	?FindUpstreamVertices@EdbDecaySearch@@QAEPAVTObjArray@@XZ
	?DoSearch@EdbDecaySearch@@QAEPAVTObjArray@@XZ
	?FindTrack@EdbDecaySearch@@QAEPAVEdbTrackDS@@PAVEdbTrackP@@@Z
	?Ntracks@EdbDecaySearch@@QAEHXZ
	?GetTrack@EdbDecaySearch@@QAEPAVEdbTrackDS@@H@Z
	?NDecayVertices@EdbDecaySearch@@QAEHXZ
	?GetDecayVertex@EdbDecaySearch@@QAEPAVEdbDecayVertex@@H@Z
	?CheckInTrackKink@EdbDecaySearch@@QAEPAVTObjArray@@PAVEdbTrackP@@@Z
	?PrintTracks@EdbDecaySearch@@QAEXXZ
	?MakeFakeVertex@EdbDecaySearch@@QAEPAVEdbVertex@@PAVEdbTrackP@@N@Z
	??$construct@PADAAPAD@?$_Wrap_alloc@V?$allocator@D@std@@@std@@QAEXPAPADAAPAD@Z
	??$destroy@PAD@?$_Wrap_alloc@V?$allocator@D@std@@@std@@QAEXPAPAD@Z
	??$addressof@D@std@@YAPADAAD@Z
	??$_Allocate@D@std@@YAPADIPAD@Z
	??$forward@AAPAD@std@@YAAAPADAAPAD@Z
	??$construct@PADAAPAD@?$allocator_traits@V?$allocator@D@std@@@std@@SAXAAV?$allocator@D@1@PAPADAAPAD@Z
	??$destroy@PAD@?$allocator_traits@V?$allocator@D@std@@@std@@SAXAAV?$allocator@D@1@PAPAD@Z
	??$construct@PADAAPAD@?$allocator@D@std@@QAEXPAPADAAPAD@Z
	??$destroy@PAD@?$allocator@D@std@@QAEXPAPAD@Z
	?Transform@EdbTrack2D@@W3AEXPBVEdbAffine2D@@@Z
	?Test@EdbTrack2D@@W3BEXXZ
	?Print@EdbTrack2D@@W3BEXPBD@Z
	?IsA@EdbTrack2D@@W3BEPAVTClass@@XZ
	?ShowMembers@EdbTrack2D@@W3AEXAAVTMemberInspector@@@Z
	?Streamer@EdbTrack2D@@W3AEXAAVTBuffer@@@Z
	?IsA@EdbSegP@@WM@BEPAVTClass@@XZ
	?ShowMembers@EdbSegP@@WM@AEXAAVTMemberInspector@@@Z
	?Streamer@EdbSegP@@WM@AEXAAVTBuffer@@@Z
	?Print@EdbSegP@@WM@BEXPBD@Z
	?Print@EdbSegP@@WBA@BEXPBD@Z
	?IsA@EdbSegP@@WBA@BEPAVTClass@@XZ
	?ShowMembers@EdbSegP@@WBA@AEXAAVTMemberInspector@@@Z
	?Streamer@EdbSegP@@WBA@AEXAAVTBuffer@@@Z
	?IsA@EdbTrackP@@WM@BEPAVTClass@@XZ
	?ShowMembers@EdbTrackP@@WM@AEXAAVTMemberInspector@@@Z
	?Streamer@EdbTrackP@@WM@AEXAAVTBuffer@@@Z
	?IsA@EdbTrackP@@WBA@BEPAVTClass@@XZ
	?ShowMembers@EdbTrackP@@WBA@AEXAAVTMemberInspector@@@Z
	?Streamer@EdbTrackP@@WBA@AEXAAVTBuffer@@@Z
	?IsA@EdbTrackDS@@WM@BEPAVTClass@@XZ
	?ShowMembers@EdbTrackDS@@WM@AEXAAVTMemberInspector@@@Z
	?Streamer@EdbTrackDS@@WM@AEXAAVTBuffer@@@Z
	?IsA@EdbTrackDS@@WBA@BEPAVTClass@@XZ
	?ShowMembers@EdbTrackDS@@WBA@AEXAAVTMemberInspector@@@Z
	?Streamer@EdbTrackDS@@WBA@AEXAAVTBuffer@@@Z
	?_Generic_object@?$_Error_objects@H@std@@2V_Generic_error_category@2@A 	 DATA
	?_Iostream_object@?$_Error_objects@H@std@@2V_Iostream_error_category@2@A 	 DATA
	?_System_object@?$_Error_objects@H@std@@2V_System_error_category@2@A 	 DATA
	?id@?$num_put@DV?$back_insert_iterator@V?$basic_string@DU?$char_traits@D@std@@V?$allocator@D@2@@std@@@std@@@std@@2V0locale@2@A 	 DATA
	?id@?$num_put@_WV?$back_insert_iterator@V?$basic_string@_WU?$char_traits@_W@std@@V?$allocator@_W@2@@std@@@std@@@std@@2V0locale@2@A 	 DATA
	??_R0?AVTObject@@@8 	 DATA
	??_R0?AVerror_category@std@@@8 	 DATA
	??_R0?AV_Generic_error_category@std@@@8 	 DATA
	??_R0?AV_Iostream_error_category@std@@@8 	 DATA
	??_R0?AV_System_error_category@std@@@8 	 DATA
	??_R0?AVTCollection@@@8 	 DATA
	??_R0?AVTList@@@8 	 DATA
	??_R0?AVTSeqCollection@@@8 	 DATA
	??_R0?AVTDatime@@@8 	 DATA
	??_R0?AVTSortedList@@@8 	 DATA
	??_R0?AVEdbPoint@@@8 	 DATA
	??_R0?AVEdbPoint2D@@@8 	 DATA
	??_R0?AVEdbAngle2D@@@8 	 DATA
	??_R0?AVEdbTrack2D@@@8 	 DATA
	??_R0?AVEdbID@@@8 	 DATA
	??_R0?AVEdbSegP@@@8 	 DATA
	??_R0?AVEdbTrackP@@@8 	 DATA
	??_R0?AVEdbTrackDS@@@8 	 DATA
	??_R0?AVEdbDecayVertex@@@8 	 DATA
	??_R0?AVEdbVertex@@@8 	 DATA
	??_R0?AVEdbSmallKink@@@8 	 DATA
	?G__AnalysisDictLN_pairlEunsignedsPintcOintgR@@3UG__linked_taginfo@@A 	 DATA
	?G__AnalysisDictLN_vectorlEpairlEunsignedsPintcOintgRcOallocatorlEpairlEunsignedsPintcOintgRsPgRsPgR@@3UG__linked_taginfo@@A 	 DATA
	?G__AnalysisDictLN_reverse_iteratorlEvectorlEpairlEunsignedsPintcOintgRcOallocatorlEpairlEunsignedsPintcOintgRsPgRsPgRcLcLiteratorgR@@3UG__linked_taginfo@@A 	 DATA
	?G__AnalysisDictLN_iteratorlErandom_access_iterator_tagcOpairlEunsignedsPintcOintgRcOlongcOpairlEunsignedsPintcOintgRmUcOpairlEunsignedsPintcOintgRaNgR@@3UG__linked_taginfo@@A 	 DATA
	?G__AnalysisDictLN_reverse_iteratorlEvectorlEpairlEunsignedsPintcOintgRcOallocatorlEpairlEunsignedsPintcOintgRsPgRsPgRcLcLconst_iteratorgR@@3UG__linked_taginfo@@A 	 DATA
	?G__AnalysisDictLN_TH1F@@3UG__linked_taginfo@@A 	 DATA
	?G__AnalysisDictLN_TVectorTlEfloatgR@@3UG__linked_taginfo@@A 	 DATA
	?G__AnalysisDictLN_TVectorTlEdoublegR@@3UG__linked_taginfo@@A 	 DATA
	?G__AnalysisDictLN_TMatrixTBaselEfloatgR@@3UG__linked_taginfo@@A 	 DATA
	?G__AnalysisDictLN_TMatrixTBaselEdoublegR@@3UG__linked_taginfo@@A 	 DATA
	?G__AnalysisDictLN_vectorlETGLPlanecOallocatorlETGLPlanegRsPgR@@3UG__linked_taginfo@@A 	 DATA
	?G__AnalysisDictLN_reverse_iteratorlEvectorlETGLPlanecOallocatorlETGLPlanegRsPgRcLcLiteratorgR@@3UG__linked_taginfo@@A 	 DATA
	?G__AnalysisDictLN_iteratorlErandom_access_iterator_tagcOTGLPlanecOlongcOTGLPlanemUcOTGLPlaneaNgR@@3UG__linked_taginfo@@A 	 DATA
	?G__AnalysisDictLN_reverse_iteratorlEvectorlETGLPlanecOallocatorlETGLPlanegRsPgRcLcLconst_iteratorgR@@3UG__linked_taginfo@@A 	 DATA
	?G__AnalysisDictLN_pairlEboolcOTGLLine3gR@@3UG__linked_taginfo@@A 	 DATA
	?G__AnalysisDictLN_pairlEboolcOTGLVertex3gR@@3UG__linked_taginfo@@A 	 DATA
	?G__AnalysisDictLN_pairlEintcOintgR@@3UG__linked_taginfo@@A 	 DATA
	?G__AnalysisDictLN_listlETGLOverlayElementmUcOallocatorlETGLOverlayElementmUgRsPgR@@3UG__linked_taginfo@@A 	 DATA
	?G__AnalysisDictLN_listlETGLSceneInfomUcOallocatorlETGLSceneInfomUgRsPgR@@3UG__linked_taginfo@@A 	 DATA
	?G__AnalysisDictLN_vectorlETGLSceneInfomUcOallocatorlETGLSceneInfomUgRsPgR@@3UG__linked_taginfo@@A 	 DATA
	?G__AnalysisDictLN_reverse_iteratorlEvectorlETGLSceneInfomUcOallocatorlETGLSceneInfomUgRsPgRcLcLiteratorgR@@3UG__linked_taginfo@@A 	 DATA
	?G__AnalysisDictLN_iteratorlErandom_access_iterator_tagcOTGLSceneInfomUcOlongcOTGLSceneInfomUmUcOTGLSceneInfomUaNgR@@3UG__linked_taginfo@@A 	 DATA
	?G__AnalysisDictLN_reverse_iteratorlEvectorlETGLSceneInfomUcOallocatorlETGLSceneInfomUgRsPgRcLcLconst_iteratorgR@@3UG__linked_taginfo@@A 	 DATA
	?G__AnalysisDictLN_vectorlETGLOverlayElementmUcOallocatorlETGLOverlayElementmUgRsPgR@@3UG__linked_taginfo@@A 	 DATA
	?G__AnalysisDictLN_reverse_iteratorlEvectorlETGLOverlayElementmUcOallocatorlETGLOverlayElementmUgRsPgRcLcLiteratorgR@@3UG__linked_taginfo@@A 	 DATA
	?G__AnalysisDictLN_iteratorlErandom_access_iterator_tagcOTGLOverlayElementmUcOlongcOTGLOverlayElementmUmUcOTGLOverlayElementmUaNgR@@3UG__linked_taginfo@@A 	 DATA
	?G__AnalysisDictLN_reverse_iteratorlEvectorlETGLOverlayElementmUcOallocatorlETGLOverlayElementmUgRsPgRcLcLconst_iteratorgR@@3UG__linked_taginfo@@A 	 DATA
	?G__AnalysisDictLN_listlETGLColorSetmUcOallocatorlETGLColorSetmUgRsPgR@@3UG__linked_taginfo@@A 	 DATA
	?G__AnalysisDictLN_maplEintcOTGeoElementRNmUcOlesslEintgRcOallocatorlEpairlEconstsPintcOTGeoElementRNmUgRsPgRsPgR@@3UG__linked_taginfo@@A 	 DATA
	?G__AnalysisDictLN_vectorlETGeoVolumeAssemblycLcLThreadData_tmUcOallocatorlETGeoVolumeAssemblycLcLThreadData_tmUgRsPgR@@3UG__linked_taginfo@@A 	 DATA
	?G__AnalysisDictLN_reverse_iteratorlEvectorlETGeoVolumeAssemblycLcLThreadData_tmUcOallocatorlETGeoVolumeAssemblycLcLThreadData_tmUgRsPgRcLcLiteratorgR@@3UG__linked_taginfo@@A 	 DATA
	?G__AnalysisDictLN_iteratorlErandom_access_iterator_tagcOTGeoVolumeAssemblycLcLThreadData_tmUcOlongcOTGeoVolumeAssemblycLcLThreadData_tmUmUcOTGeoVolumeAssemblycLcLThreadData_tmUaNgR@@3UG__linked_taginfo@@A 	 DATA
	?G__AnalysisDictLN_reverse_iteratorlEvectorlETGeoVolumeAssemblycLcLThreadData_tmUcOallocatorlETGeoVolumeAssemblycLcLThreadData_tmUgRsPgRcLcLconst_iteratorgR@@3UG__linked_taginfo@@A 	 DATA
	?G__AnalysisDictLN_maplElongcOTGeoNavigatorArraymUcOlesslElonggRcOallocatorlEpairlEconstsPlongcOTGeoNavigatorArraymUgRsPgRsPgR@@3UG__linked_taginfo@@A 	 DATA
	?G__AnalysisDictLN_setlEintcOlesslEintgRcOallocatorlEintgRsPgR@@3UG__linked_taginfo@@A 	 DATA
	?G__AnalysisDictLN_maplETEveElementmUcOintcOlesslETEveElementmUgRcOallocatorlEpairlETEveElementmUsPconstcOintgRsPgRsPgR@@3UG__linked_taginfo@@A 	 DATA
	?G__AnalysisDictLN_listlETEveProjectedmUcOallocatorlETEveProjectedmUgRsPgR@@3UG__linked_taginfo@@A 	 DATA
	?G__AnalysisDictLN_setlETEveElementmUcOlesslETEveElementmUgRcOallocatorlETEveElementmUgRsPgR@@3UG__linked_taginfo@@A 	 DATA
	?G__AnalysisDictLN_setlETEveElementcLcLTEveListTreeInfocOlesslETEveElementcLcLTEveListTreeInfogRcOallocatorlETEveElementcLcLTEveListTreeInfogRsPgR@@3UG__linked_taginfo@@A 	 DATA
	?G__AnalysisDictLN_listlETEveElementmUcOallocatorlETEveElementmUgRsPgR@@3UG__linked_taginfo@@A 	 DATA
	?G__AnalysisDictLN_TEveVectorTlEfloatgR@@3UG__linked_taginfo@@A 	 DATA
	?G__AnalysisDictLN_TEveVectorTlEdoublegR@@3UG__linked_taginfo@@A 	 DATA
	?G__AnalysisDictLN_TEveVector4TlEfloatgR@@3UG__linked_taginfo@@A 	 DATA
	?G__AnalysisDictLN_TEveVector4TlEdoublegR@@3UG__linked_taginfo@@A 	 DATA
	?G__AnalysisDictLN_TEveVector2TlEfloatgR@@3UG__linked_taginfo@@A 	 DATA
	?G__AnalysisDictLN_TEveVector2TlEdoublegR@@3UG__linked_taginfo@@A 	 DATA
	?G__AnalysisDictLN_maplETEveElementmUcOsetlETEveElementmUcOlesslETEveElementmUgRcOallocatorlETEveElementmUgRsPgRcOlesslETEveElementmUgRcOallocatorlEpairlETEveElementmUsPconstcOsetlETEveElementmUcOlesslETEveElementmUgRcOallocatorlETEveElementmUgRsPgRsPgRsPgRsPgR@@3UG__linked_taginfo@@A 	 DATA
	?G__AnalysisDictLN_vectorlETArrayCmUcOallocatorlETArrayCmUgRsPgR@@3UG__linked_taginfo@@A 	 DATA
	?G__AnalysisDictLN_reverse_iteratorlEvectorlETArrayCmUcOallocatorlETArrayCmUgRsPgRcLcLiteratorgR@@3UG__linked_taginfo@@A 	 DATA
	?G__AnalysisDictLN_iteratorlErandom_access_iterator_tagcOTArrayCmUcOlongcOTArrayCmUmUcOTArrayCmUaNgR@@3UG__linked_taginfo@@A 	 DATA
	?G__AnalysisDictLN_reverse_iteratorlEvectorlETArrayCmUcOallocatorlETArrayCmUgRsPgRcLcLconst_iteratorgR@@3UG__linked_taginfo@@A 	 DATA
	?G__AnalysisDictLN_TElementActionTlEfloatgR@@3UG__linked_taginfo@@A 	 DATA
	?G__AnalysisDictLN_TElementPosActionTlEfloatgR@@3UG__linked_taginfo@@A 	 DATA
	?G__AnalysisDictLN_TElementActionTlEdoublegR@@3UG__linked_taginfo@@A 	 DATA
	?G__AnalysisDictLN_TElementPosActionTlEdoublegR@@3UG__linked_taginfo@@A 	 DATA
	?G__AnalysisDictLN_TMatrixTlEfloatgR@@3UG__linked_taginfo@@A 	 DATA
	?G__AnalysisDictLN_TMatrixTRow_constlEfloatgR@@3UG__linked_taginfo@@A 	 DATA
	?G__AnalysisDictLN_TMatrixTRowlEfloatgR@@3UG__linked_taginfo@@A 	 DATA
	?G__AnalysisDictLN_TMatrixTDiag_constlEfloatgR@@3UG__linked_taginfo@@A 	 DATA
	?G__AnalysisDictLN_TMatrixTColumn_constlEfloatgR@@3UG__linked_taginfo@@A 	 DATA
	?G__AnalysisDictLN_TMatrixTFlat_constlEfloatgR@@3UG__linked_taginfo@@A 	 DATA
	?G__AnalysisDictLN_TMatrixTSub_constlEfloatgR@@3UG__linked_taginfo@@A 	 DATA
	?G__AnalysisDictLN_TMatrixTSparseRow_constlEfloatgR@@3UG__linked_taginfo@@A 	 DATA
	?G__AnalysisDictLN_TMatrixTSparseDiag_constlEfloatgR@@3UG__linked_taginfo@@A 	 DATA
	?G__AnalysisDictLN_TMatrixTColumnlEfloatgR@@3UG__linked_taginfo@@A 	 DATA
	?G__AnalysisDictLN_TMatrixTDiaglEfloatgR@@3UG__linked_taginfo@@A 	 DATA
	?G__AnalysisDictLN_TMatrixTFlatlEfloatgR@@3UG__linked_taginfo@@A 	 DATA
	?G__AnalysisDictLN_TMatrixTSublEfloatgR@@3UG__linked_taginfo@@A 	 DATA
	?G__AnalysisDictLN_TMatrixTSparseRowlEfloatgR@@3UG__linked_taginfo@@A 	 DATA
	?G__AnalysisDictLN_TMatrixTSparseDiaglEfloatgR@@3UG__linked_taginfo@@A 	 DATA
	?G__AnalysisDictLN_vectorlEintcOallocatorlEintgRsPgR@@3UG__linked_taginfo@@A 	 DATA
	?G__AnalysisDictLN_reverse_iteratorlEvectorlEintcOallocatorlEintgRsPgRcLcLiteratorgR@@3UG__linked_taginfo@@A 	 DATA
	?G__AnalysisDictLN_iteratorlErandom_access_iterator_tagcOintcOlongcOintmUcOintaNgR@@3UG__linked_taginfo@@A 	 DATA
	?G__AnalysisDictLN_reverse_iteratorlEvectorlEintcOallocatorlEintgRsPgRcLcLconst_iteratorgR@@3UG__linked_taginfo@@A 	 DATA
	?G__AnalysisDictLN_maplETGLFontcOintcOlesslETGLFontgRcOallocatorlEpairlEconstsPTGLFontcOintgRsPgRsPgR@@3UG__linked_taginfo@@A 	 DATA
	?G__AnalysisDictLN_listlEconstsPTGLFontmUcOallocatorlEconstsPTGLFontmUgRsPgR@@3UG__linked_taginfo@@A 	 DATA
	?G__AnalysisDictLN_TMatrixTlEdoublegR@@3UG__linked_taginfo@@A 	 DATA
	?fgIsA@EdbTrackDS@@0PAVTClass@@A 	 DATA
	?G__AnalysisDictLN_TMatrixTRow_constlEdoublegR@@3UG__linked_taginfo@@A 	 DATA
	?G__AnalysisDictLN_TMatrixTRowlEdoublegR@@3UG__linked_taginfo@@A 	 DATA
	?G__AnalysisDictLN_TMatrixTDiag_constlEdoublegR@@3UG__linked_taginfo@@A 	 DATA
	?G__AnalysisDictLN_TMatrixTColumn_constlEdoublegR@@3UG__linked_taginfo@@A 	 DATA
	?G__AnalysisDictLN_TMatrixTFlat_constlEdoublegR@@3UG__linked_taginfo@@A 	 DATA
	?G__AnalysisDictLN_TMatrixTSub_constlEdoublegR@@3UG__linked_taginfo@@A 	 DATA
	?G__AnalysisDictLN_TMatrixTSparseRow_constlEdoublegR@@3UG__linked_taginfo@@A 	 DATA
	?G__AnalysisDictLN_TMatrixTSparseDiag_constlEdoublegR@@3UG__linked_taginfo@@A 	 DATA
	?G__AnalysisDictLN_TMatrixTColumnlEdoublegR@@3UG__linked_taginfo@@A 	 DATA
	?G__AnalysisDictLN_TMatrixTDiaglEdoublegR@@3UG__linked_taginfo@@A 	 DATA
	?G__AnalysisDictLN_TMatrixTFlatlEdoublegR@@3UG__linked_taginfo@@A 	 DATA
	?G__AnalysisDictLN_TMatrixTSublEdoublegR@@3UG__linked_taginfo@@A 	 DATA
	?G__AnalysisDictLN_TMatrixTSparseRowlEdoublegR@@3UG__linked_taginfo@@A 	 DATA
	?G__AnalysisDictLN_TMatrixTSparseDiaglEdoublegR@@3UG__linked_taginfo@@A 	 DATA
	?G__AnalysisDictLN_EdbPoint@@3UG__linked_taginfo@@A 	 DATA
	?G__AnalysisDictLN_EdbPoint2D@@3UG__linked_taginfo@@A 	 DATA
	?G__AnalysisDictLN_EdbAngle2D@@3UG__linked_taginfo@@A 	 DATA
	?G__AnalysisDictLN_EdbTrack2D@@3UG__linked_taginfo@@A 	 DATA
	?G__AnalysisDictLN_EdbSegP@@3UG__linked_taginfo@@A 	 DATA
	?G__AnalysisDictLN_EdbVertex@@3UG__linked_taginfo@@A 	 DATA
	?G__AnalysisDictLN_EdbTrackP@@3UG__linked_taginfo@@A 	 DATA
	?G__AnalysisDictLN_listlEVERTEXcLcLRelationmUcOallocatorlEVERTEXcLcLRelationmUgRsPgR@@3UG__linked_taginfo@@A 	 DATA
	?G__AnalysisDictLN_listlEVERTEXcLcLMassCmUcOallocatorlEVERTEXcLcLMassCmUgRsPgR@@3UG__linked_taginfo@@A 	 DATA
	?G__AnalysisDictLN_vectorlEVERTEXcLcLTrackmUcOallocatorlEVERTEXcLcLTrackmUgRsPgR@@3UG__linked_taginfo@@A 	 DATA
	?G__AnalysisDictLN_reverse_iteratorlEvectorlEVERTEXcLcLTrackmUcOallocatorlEVERTEXcLcLTrackmUgRsPgRcLcLiteratorgR@@3UG__linked_taginfo@@A 	 DATA
	?G__AnalysisDictLN_iteratorlErandom_access_iterator_tagcOVERTEXcLcLTrackmUcOlongcOVERTEXcLcLTrackmUmUcOVERTEXcLcLTrackmUaNgR@@3UG__linked_taginfo@@A 	 DATA
	?G__AnalysisDictLN_reverse_iteratorlEvectorlEVERTEXcLcLTrackmUcOallocatorlEVERTEXcLcLTrackmUgRsPgRcLcLconst_iteratorgR@@3UG__linked_taginfo@@A 	 DATA
	?G__AnalysisDictLN_EdbPVRec@@3UG__linked_taginfo@@A 	 DATA
	?G__AnalysisDictLN_EdbTrackDS@@3UG__linked_taginfo@@A 	 DATA
	?G__AnalysisDictLN_EdbDecayVertex@@3UG__linked_taginfo@@A 	 DATA
	?G__AnalysisDictLN_EdbDecayVertexcLcLTopologyType@@3UG__linked_taginfo@@A 	 DATA
	?G__AnalysisDictLN_EdbSmallKink@@3UG__linked_taginfo@@A 	 DATA
	?G__AnalysisDictLN_EdbDecaySearch@@3UG__linked_taginfo@@A 	 DATA
	?G__AnalysisDictLN_EdbDecaySearchcLcLdA@@3UG__linked_taginfo@@A 	 DATA
	?fgIsA@EdbDecayVertex@@0PAVTClass@@A 	 DATA
	?fgIsA@EdbSmallKink@@0PAVTClass@@A 	 DATA
	?fgIsA@EdbDecaySearch@@0PAVTClass@@A 	 DATA
	?G__AnalysisDictLN_TClass@@3UG__linked_taginfo@@A 	 DATA
	?G__AnalysisDictLN_TBuffer@@3UG__linked_taginfo@@A 	 DATA
	?G__AnalysisDictLN_TMemberInspector@@3UG__linked_taginfo@@A 	 DATA
	?G__AnalysisDictLN_TObject@@3UG__linked_taginfo@@A 	 DATA
	?G__AnalysisDictLN_TString@@3UG__linked_taginfo@@A 	 DATA
	?G__AnalysisDictLN_iteratorlErandom_access_iterator_tagcOcharcOlongcOcharmUcOcharaNgR@@3UG__linked_taginfo@@A 	 DATA
	?G__AnalysisDictLN_vectorlEunsignedsPcharcOallocatorlEunsignedsPchargRsPgR@@3UG__linked_taginfo@@A 	 DATA
	?G__AnalysisDictLN_vectorlEunsignedsPintcOallocatorlEunsignedsPintgRsPgR@@3UG__linked_taginfo@@A 	 DATA
	?G__AnalysisDictLN_vectorlEdoublecOallocatorlEdoublegRsPgR@@3UG__linked_taginfo@@A 	 DATA
	?G__AnalysisDictLN_vectorlEROOTcLcLTSchemaHelpercOallocatorlEROOTcLcLTSchemaHelpergRsPgR@@3UG__linked_taginfo@@A 	 DATA
	?G__AnalysisDictLN_reverse_iteratorlEvectorlEROOTcLcLTSchemaHelpercOallocatorlEROOTcLcLTSchemaHelpergRsPgRcLcLiteratorgR@@3UG__linked_taginfo@@A 	 DATA
	?G__AnalysisDictLN_iteratorlErandom_access_iterator_tagcOROOTcLcLTSchemaHelpercOlongcOROOTcLcLTSchemaHelpermUcOROOTcLcLTSchemaHelperaNgR@@3UG__linked_taginfo@@A 	 DATA
	?G__AnalysisDictLN_reverse_iteratorlEvectorlEROOTcLcLTSchemaHelpercOallocatorlEROOTcLcLTSchemaHelpergRsPgRcLcLconst_iteratorgR@@3UG__linked_taginfo@@A 	 DATA
	?G__AnalysisDictLN_TObjArray@@3UG__linked_taginfo@@A 	 DATA
	?G__AnalysisDictLN_vectorlETVirtualArraymUcOallocatorlETVirtualArraymUgRsPgR@@3UG__linked_taginfo@@A 	 DATA
	?G__AnalysisDictLN_reverse_iteratorlEvectorlETVirtualArraymUcOallocatorlETVirtualArraymUgRsPgRcLcLiteratorgR@@3UG__linked_taginfo@@A 	 DATA
	?G__AnalysisDictLN_iteratorlErandom_access_iterator_tagcOTVirtualArraymUcOlongcOTVirtualArraymUmUcOTVirtualArraymUaNgR@@3UG__linked_taginfo@@A 	 DATA
	?G__AnalysisDictLN_reverse_iteratorlEvectorlETVirtualArraymUcOallocatorlETVirtualArraymUgRsPgRcLcLconst_iteratorgR@@3UG__linked_taginfo@@A 	 DATA
	?G__AnalysisDictLN_iteratorlEbidirectional_iterator_tagcOTObjectmUcOlongcOconstsPTObjectmUmUcOconstsPTObjectmUaNgR@@3UG__linked_taginfo@@A 	 DATA
	?G__AnalysisDictLN_vectorlETStringcOallocatorlETStringgRsPgR@@3UG__linked_taginfo@@A 	 DATA
	?G__AnalysisDictLN_reverse_iteratorlEvectorlETStringcOallocatorlETStringgRsPgRcLcLiteratorgR@@3UG__linked_taginfo@@A 	 DATA
	?G__AnalysisDictLN_iteratorlErandom_access_iterator_tagcOTStringcOlongcOTStringmUcOTStringaNgR@@3UG__linked_taginfo@@A 	 DATA
	?G__AnalysisDictLN_reverse_iteratorlEvectorlETStringcOallocatorlETStringgRsPgRcLcLconst_iteratorgR@@3UG__linked_taginfo@@A 	 DATA
	?G__AnalysisDictLN_maplElongcOintcOlesslElonggRcOallocatorlEpairlEconstsPlongcOintgRsPgRsPgR@@3UG__linked_taginfo@@A 	 DATA
	?G__AnalysisDictLN_pairlEdoublecOdoublegR@@3UG__linked_taginfo@@A 	 DATA
	?G__AnalysisDictLN_maplEstringcOTObjArraymUcOlesslEstringgRcOallocatorlEpairlEconstsPstringcOTObjArraymUgRsPgRsPgR@@3UG__linked_taginfo@@A 	 DATA
	hypot
	??0funcptr_and_voidptr@G__func2void@@QAE@PAX@Z
	??BG__func2void@@QBEPAXXZ
	??0G__FastAllocString@@QAE@I@Z
	?data@G__FastAllocString@@QBEPBDXZ
	G__cpp_dllrevAnalysisDict
	G__set_cpp_environmentAnalysisDict
	G__cpp_setup_tagtableAnalysisDict
	G__cpp_setup_inheritanceAnalysisDict
	G__cpp_setup_typetableAnalysisDict
	G__cpp_setup_memvarAnalysisDict
	G__cpp_setup_globalAnalysisDict
	G__cpp_setup_memfuncAnalysisDict
	G__cpp_setup_funcAnalysisDict
	G__cpp_setupAnalysisDict
	??2@YAPAXIPAX@Z
	??3@YAXPAX0@Z
	??_U@YAPAXIPAX@Z
	??_V@YAXPAX0@Z
	?length@?$char_traits@D@std@@SAIPBD@Z
	?copy@?$char_traits@D@std@@SAPADPADPBDI@Z
	?move@?$char_traits@D@std@@SAPADPADPBDI@Z
	?assign@?$char_traits@D@std@@SAXAADABD@Z
	??0?$allocator@D@std@@QAE@XZ
	?deallocate@?$allocator@D@std@@QAEXPADI@Z
	?allocate@?$allocator@D@std@@QAEPADI@Z
	?max_size@?$allocator@D@std@@QBEIXZ
	?max_size@?$allocator_traits@V?$allocator@D@std@@@std@@SAIABV?$allocator@D@2@@Z
	??0?$_Wrap_alloc@V?$allocator@D@std@@@std@@QAE@XZ
	?allocate@?$_Wrap_alloc@V?$allocator@D@std@@@std@@QAEPADI@Z
	?deallocate@?$_Wrap_alloc@V?$allocator@D@std@@@std@@QAEXPADI@Z
	?max_size@?$_Wrap_alloc@V?$allocator@D@std@@@std@@QBEIXZ
	??0?$_String_val@U?$_Simple_types@D@std@@@std@@QAE@XZ
	?_Myptr@?$_String_val@U?$_Simple_types@D@std@@@std@@QAEPADXZ
	?_Myptr@?$_String_val@U?$_Simple_types@D@std@@@std@@QBEPBDXZ
	??0?$_String_alloc@$0A@U?$_String_base_types@DV?$allocator@D@std@@@std@@@std@@QAE@ABV?$allocator@D@1@@Z
	?_Getal@?$_String_alloc@$0A@U?$_String_base_types@DV?$allocator@D@std@@@std@@@std@@QBE?AU?$_Wrap_alloc@V?$allocator@D@std@@@2@XZ
	??0?$basic_string@DU?$char_traits@D@std@@V?$allocator@D@2@@std@@QAE@PBD@Z
	??1?$basic_string@DU?$char_traits@D@std@@V?$allocator@D@2@@std@@QAE@XZ
	?assign@?$basic_string@DU?$char_traits@D@std@@V?$allocator@D@2@@std@@QAEAAV12@ABV12@II@Z
	?assign@?$basic_string@DU?$char_traits@D@std@@V?$allocator@D@2@@std@@QAEAAV12@PBDI@Z
	?assign@?$basic_string@DU?$char_traits@D@std@@V?$allocator@D@2@@std@@QAEAAV12@PBD@Z
	?erase@?$basic_string@DU?$char_traits@D@std@@V?$allocator@D@2@@std@@QAEAAV12@I@Z
	?erase@?$basic_string@DU?$char_traits@D@std@@V?$allocator@D@2@@std@@QAEAAV12@II@Z
	?size@?$basic_string@DU?$char_traits@D@std@@V?$allocator@D@2@@std@@QBEIXZ
	?max_size@?$basic_string@DU?$char_traits@D@std@@V?$allocator@D@2@@std@@QBEIXZ
	?_Copy@?$basic_string@DU?$char_traits@D@std@@V?$allocator@D@2@@std@@QAEXII@Z
	?_Eos@?$basic_string@DU?$char_traits@D@std@@V?$allocator@D@2@@std@@QAEXI@Z
	?_Grow@?$basic_string@DU?$char_traits@D@std@@V?$allocator@D@2@@std@@QAE_NI_N@Z
	?_Inside@?$basic_string@DU?$char_traits@D@std@@V?$allocator@D@2@@std@@QAE_NPBD@Z
	?_Tidy@?$basic_string@DU?$char_traits@D@std@@V?$allocator@D@2@@std@@QAEX_NI@Z
	?_Xlen@?$basic_string@DU?$char_traits@D@std@@V?$allocator@D@2@@std@@QBEXXZ
	?_Xran@?$basic_string@DU?$char_traits@D@std@@V?$allocator@D@2@@std@@QBEXXZ
	?generic_category@std@@YAABVerror_category@1@XZ
	?system_category@std@@YAABVerror_category@1@XZ
	??0error_category@std@@QAE@XZ
	??1error_category@std@@UAE@XZ
	?default_error_condition@error_category@std@@UBE?AVerror_condition@2@H@Z
	?equivalent@error_category@std@@UBE_NHABVerror_condition@2@@Z
	?equivalent@error_category@std@@UBE_NABVerror_code@2@H@Z
	??8error_category@std@@QBE_NABV01@@Z
	?value@error_code@std@@QBEHXZ
	?category@error_code@std@@QBEABVerror_category@2@XZ
	??0error_condition@std@@QAE@HABVerror_category@1@@Z
	?value@error_condition@std@@QBEHXZ
	?category@error_condition@std@@QBEABVerror_category@2@XZ
	??8error_condition@std@@QBE_NABV01@@Z
	??0_Generic_error_category@std@@QAE@XZ
	?name@_Generic_error_category@std@@UBEPBDXZ
	?message@_Generic_error_category@std@@UBE?AV?$basic_string@DU?$char_traits@D@std@@V?$allocator@D@2@@2@H@Z
	??1_Generic_error_category@std@@UAE@XZ
	??0_Iostream_error_category@std@@QAE@XZ
	?name@_Iostream_error_category@std@@UBEPBDXZ
	?message@_Iostream_error_category@std@@UBE?AV?$basic_string@DU?$char_traits@D@std@@V?$allocator@D@2@@2@H@Z
	??1_Iostream_error_category@std@@UAE@XZ
	??0_System_error_category@std@@QAE@XZ
	?name@_System_error_category@std@@UBEPBDXZ
	?message@_System_error_category@std@@UBE?AV?$basic_string@DU?$char_traits@D@std@@V?$allocator@D@2@@2@H@Z
	?default_error_condition@_System_error_category@std@@UBE?AVerror_condition@2@H@Z
	??1_System_error_category@std@@UAE@XZ
	?Clear@TObject@@UAEXPBD@Z
	?GetOption@TObject@@UBEPBDXZ
	?IsSortable@TObject@@UBE_NXZ
	??2TObject@@SAPAXI@Z
	??_UTObject@@SAPAXI@Z
	??2TObject@@SAPAXIPAX@Z
	??_UTObject@@SAPAXIPAX@Z
	?IsReading@TBuffer@@QBE_NXZ
	?IsLong@TString@@ABE_NXZ
	?GetLongPointer@TString@@ABEPBDXZ
	?GetShortPointer@TString@@ABEPBDXZ
	?GetPointer@TString@@ABEPBDXZ
	?Data@TString@@QBEPBDXZ
	??0TDatime@@QAE@I_N@Z
	??1TDatime@@UAE@XZ
	?IsA@TDatime@@UBEPAVTClass@@XZ
	??0_Ignore@std@@QAE@XZ
	??1EdbPoint@@UAE@XZ
	?Transform@EdbPoint@@UAEXPBVEdbAffine2D@@@Z
	?Transform@EdbPoint@@UAEXPBVEdbAffine3D@@@Z
	?Test@EdbPoint@@UBEXXZ
	?IsA@EdbPoint@@UBEPAVTClass@@XZ
	??0EdbPoint@@QAE@XZ
	??4EdbPoint@@QAEAAV0@ABV0@@Z
	??1EdbAngle2D@@UAE@XZ
	?Test@EdbAngle2D@@UBEXXZ
	?IsA@EdbAngle2D@@UBEPAVTClass@@XZ
	??0EdbAngle2D@@QAE@XZ
	??4EdbAngle2D@@QAEAAV0@ABV0@@Z
	??1EdbPoint2D@@UAE@XZ
	?Z@EdbPoint2D@@UBEMXZ
	?SetZ@EdbPoint2D@@UAEXM@Z
	?Test@EdbPoint2D@@UBEXXZ
	?TestPoint2D@EdbPoint2D@@UBEXXZ
	?IsA@EdbPoint2D@@UBEPAVTClass@@XZ
	??0EdbPoint2D@@QAE@XZ
	??4EdbPoint2D@@QAEAAV0@ABV0@@Z
	??1EdbTrack2D@@UAE@XZ
	?Test@EdbTrack2D@@UBEXXZ
	?IsA@EdbTrack2D@@UBEPAVTClass@@XZ
	??0EdbTrack2D@@QAE@XZ
	??4EdbTrack2D@@QAEAAV0@ABV0@@Z
	??0EdbID@@QAE@HHHH@Z
	??1EdbID@@UAE@XZ
	?Set@EdbID@@QAEXHHHH@Z
	?IsA@EdbID@@UBEPAVTClass@@XZ
	??4EdbID@@QAEAAV0@ABV0@@Z
	??0EdbSegP@@QAE@XZ
	??1EdbSegP@@UAE@XZ
	?SetZ@EdbSegP@@UAEXM@Z
	?ID@EdbSegP@@QBEHXZ
	?Z@EdbSegP@@UBEMXZ
	?X@EdbSegP@@UBEMXZ
	?Y@EdbSegP@@UBEMXZ
	?TX@EdbSegP@@UBEMXZ
	?TY@EdbSegP@@UBEMXZ
	?SetX@EdbSegP@@UAEXM@Z
	?SetY@EdbSegP@@UAEXM@Z
	?SetTX@EdbSegP@@UAEXM@Z
	?SetTY@EdbSegP@@UAEXM@Z
	?IsSortable@EdbSegP@@UBE_NXZ
	?IsA@EdbSegP@@UBEPAVTClass@@XZ
	??4EdbSegP@@QAEAAV0@ABV0@@Z
	??0EdbTrackP@@QAE@AAV0@@Z
	?GetSegmentFirst@EdbTrackP@@QBEPAVEdbSegP@@XZ
	?GetSegmentLast@EdbTrackP@@QBEPAVEdbSegP@@XZ
	?IsA@EdbTrackP@@UBEPAVTClass@@XZ
	??4EdbTrackP@@QAEAAV0@ABV0@@Z
	?Hash@EdbVertex@@UBEKXZ
	?IsSortable@EdbVertex@@UBE_NXZ
	?X@EdbVertex@@QBEMXZ
	?Y@EdbVertex@@QBEMXZ
	?Z@EdbVertex@@QBEMXZ
	?SetXYZ@EdbVertex@@QAEXMMM@Z
	??0TLockGuard@@QAE@PAVTVirtualMutex@@@Z
	??1TLockGuard@@UAE@XZ
	?IsA@TLockGuard@@UBEPAVTClass@@XZ
	??0EdbTrackDS@@QAE@XZ
	??0EdbTrackDS@@QAE@PAVEdbTrackP@@@Z
	??0EdbTrackDS@@QAE@PAVEdbTrackP@@PAVEdbVertex@@@Z
	?Init@EdbTrackDS@@QAEXXZ
	?SetComment@EdbTrackDS@@QAEXPAD@Z
	?Comment@EdbTrackDS@@QAEPBDXZ
	?SetVertexUp@EdbTrackDS@@QAEXPAVEdbVertex@@@Z
	?VertexUp@EdbTrackDS@@QAEPAVEdbVertex@@XZ
	?SetVertexDown@EdbTrackDS@@QAEXPAVEdbVertex@@@Z
	?VertexDown@EdbTrackDS@@QAEPAVEdbVertex@@XZ
	?SetSegmentFirst@EdbTrackDS@@QAEXPAVEdbSegP@@@Z
	?SegmentFirst@EdbTrackDS@@QAEPAVEdbSegP@@XZ
	?AddFriend@EdbTrackDS@@QAEXPAVEdbTrackP@@@Z
	?NFriends@EdbTrackDS@@QAEHXZ
	?GetFriend@EdbTrackDS@@QAEPAVEdbTrackP@@H@Z
	?GetFriends@EdbTrackDS@@QAEPAVTObjArray@@XZ
	?AddDaughter@EdbTrackDS@@QAEXPAVEdbTrackP@@@Z
	?NDaughters@EdbTrackDS@@QAEHXZ
	?GetDaughter@EdbTrackDS@@QAEPAVEdbTrackP@@H@Z
	?GetDaughters@EdbTrackDS@@QAEPAVTObjArray@@XZ
	?SetFlagDS@EdbTrackDS@@QAEXH@Z
	?FlagDS@EdbTrackDS@@QAEHXZ
	?SetTrackSearch@EdbTrackDS@@QAEXH@Z
	?TrackSearch@EdbTrackDS@@QAEHXZ
	?SetFlagKink@EdbTrackDS@@QAEXH@Z
	?FlagKink@EdbTrackDS@@QAEHXZ
	?SetKinkPlate@EdbTrackDS@@QAEXH@Z
	?KinkPlate@EdbTrackDS@@QAEHXZ
	?SetParticle@EdbTrackDS@@QAEXH@Z
	?Particle@EdbTrackDS@@QAEHXZ
	?SetDarkness@EdbTrackDS@@QAEXH@Z
	?Darkness@EdbTrackDS@@QAEHXZ
	?SetCSTrack@EdbTrackDS@@QAEXH@Z
	?CSTrack@EdbTrackDS@@QAEHXZ
	?SetRun@EdbTrackDS@@QAEXH@Z
	?Run@EdbTrackDS@@QAEHXZ
	?SetClassification@EdbTrackDS@@QAEXH@Z
	?Classification@EdbTrackDS@@QAEHXZ
	?IPUp@EdbTrackDS@@QAENXZ
	?IPDown@EdbTrackDS@@QAENXZ
	?SetP@EdbTrackDS@@QAEXNNN@Z
	?P@EdbTrackDS@@QAENXZ
	?Pmin@EdbTrackDS@@QAENXZ
	?Pmax@EdbTrackDS@@QAENXZ
	?GetOriginal@EdbTrackDS@@QAEPAVEdbTrackP@@XZ
	?GetTrack@EdbTrackDS@@QAEPAVEdbTrackP@@XZ
	?Class@EdbTrackDS@@SAPAVTClass@@XZ
	?Class_Name@EdbTrackDS@@SAPBDXZ
	?Class_Version@EdbTrackDS@@SAFXZ
	?Dictionary@EdbTrackDS@@SAXXZ
	?IsA@EdbTrackDS@@UBEPAVTClass@@XZ
	?ShowMembers@EdbTrackDS@@UAEXAAVTMemberInspector@@@Z
	?Streamer@EdbTrackDS@@UAEXAAVTBuffer@@@Z
	?StreamerNVirtual@EdbTrackDS@@QAEXAAVTBuffer@@@Z
	?DeclFileName@EdbTrackDS@@SAPBDXZ
	?ImplFileLine@EdbTrackDS@@SAHXZ
	?ImplFileName@EdbTrackDS@@SAPBDXZ
	?DeclFileLine@EdbTrackDS@@SAHXZ
	??1EdbTrackDS@@UAE@XZ
	??0EdbTrackDS@@QAE@AAV0@@Z
	??4EdbTrackDS@@QAEAAV0@ABV0@@Z
	??0EdbDecayVertex@@QAE@XZ
	?SetPartner@EdbDecayVertex@@QAEXPAVEdbTrackDS@@@Z
	?SetPrimaryVertex@EdbDecayVertex@@QAEXPAVEdbVertex@@@Z
	?GetParent@EdbDecayVertex@@QAEPAVEdbTrackP@@XZ
	?GetDaughter@EdbDecayVertex@@QAEPAVEdbTrackP@@H@Z
	?GetPartner@EdbDecayVertex@@QAEPAVEdbTrackP@@XZ
	?NDaughters@EdbDecayVertex@@QAEHXZ
	?GetPrimaryVertex@EdbDecayVertex@@QAEPAVEdbVertex@@XZ
	?SetType@EdbDecayVertex@@QAEXH@Z
	?Type@EdbDecayVertex@@QAEHXZ
	?IsType@EdbDecayVertex@@QAE_NH@Z
	?IsShort@EdbDecayVertex@@QAE_NXZ
	?IsLong@EdbDecayVertex@@QAE_NXZ
	?IsSmallKink@EdbDecayVertex@@QAE_NXZ
	?Class@EdbDecayVertex@@SAPAVTClass@@XZ
	?Class_Name@EdbDecayVertex@@SAPBDXZ
	?Class_Version@EdbDecayVertex@@SAFXZ
	?Dictionary@EdbDecayVertex@@SAXXZ
	?IsA@EdbDecayVertex@@UBEPAVTClass@@XZ
	?ShowMembers@EdbDecayVertex@@UAEXAAVTMemberInspector@@@Z
	?Streamer@EdbDecayVertex@@UAEXAAVTBuffer@@@Z
	?StreamerNVirtual@EdbDecayVertex@@QAEXAAVTBuffer@@@Z
	?DeclFileName@EdbDecayVertex@@SAPBDXZ
	?ImplFileLine@EdbDecayVertex@@SAHXZ
	?ImplFileName@EdbDecayVertex@@SAPBDXZ
	?DeclFileLine@EdbDecayVertex@@SAHXZ
	?Track@EdbSmallKink@@QAEPAVEdbTrackP@@XZ
	?S1@EdbSmallKink@@QAEPAVEdbSegP@@XZ
	?S2@EdbSmallKink@@QAEPAVEdbSegP@@XZ
	?DTT@EdbSmallKink@@QAENXZ
	?DTL@EdbSmallKink@@QAENXZ
	?DXT@EdbSmallKink@@QAENXZ
	?DXL@EdbSmallKink@@QAENXZ
	?Ndau@EdbSmallKink@@QAEHXZ
	?P@EdbSmallKink@@QAENXZ
	?Pmin@EdbSmallKink@@QAENXZ
	?Pmax@EdbSmallKink@@QAENXZ
	?PT@EdbSmallKink@@QAENXZ
	?RMST@EdbSmallKink@@QAENXZ
	?RMSL@EdbSmallKink@@QAENXZ
	??0EdbSmallKink@@QAE@PAVEdbVertex@@PAVEdbTrackP@@PAVEdbSegP@@2NNNNHNNNNNN@Z
	?Class@EdbSmallKink@@SAPAVTClass@@XZ
	?Class_Name@EdbSmallKink@@SAPBDXZ
	?Class_Version@EdbSmallKink@@SAFXZ
	?Dictionary@EdbSmallKink@@SAXXZ
	?IsA@EdbSmallKink@@UBEPAVTClass@@XZ
	?ShowMembers@EdbSmallKink@@UAEXAAVTMemberInspector@@@Z
	?Streamer@EdbSmallKink@@UAEXAAVTBuffer@@@Z
	?StreamerNVirtual@EdbSmallKink@@QAEXAAVTBuffer@@@Z
	?DeclFileName@EdbSmallKink@@SAPBDXZ
	?ImplFileLine@EdbSmallKink@@SAHXZ
	?ImplFileName@EdbSmallKink@@SAPBDXZ
	?DeclFileLine@EdbSmallKink@@SAHXZ
	??1EdbSmallKink@@UAE@XZ
	??0EdbDecaySearch@@QAE@H@Z
	??1EdbDecaySearch@@UAE@XZ
	?GetPrimaryVertex@EdbDecaySearch@@QAEPAVEdbVertex@@XZ
	?FindTrack@EdbDecaySearch@@QAEPAVEdbTrackDS@@PAVEdbTrackP@@@Z
	?Ntracks@EdbDecaySearch@@QAEHXZ
	?GetTrack@EdbDecaySearch@@QAEPAVEdbTrackDS@@H@Z
	?NDecayVertices@EdbDecaySearch@@QAEHXZ
	?GetDecayVertex@EdbDecaySearch@@QAEPAVEdbDecayVertex@@H@Z
	?SetPVR@EdbDecaySearch@@QAEXPAVEdbPVRec@@@Z
	?GetPVR@EdbDecaySearch@@QAEPAVEdbPVRec@@XZ
	?SetIPHist1@EdbDecaySearch@@QAEXPAVTH1F@@@Z
	?SetIPHist2@EdbDecaySearch@@QAEXPAVTH1F@@@Z
	?SetTracks@EdbDecaySearch@@QAEXPAVTObjArray@@@Z
	?CheckInTrackKinks@EdbDecaySearch@@QAEPAVTObjArray@@PAV2@@Z
	?GetKinks@EdbDecaySearch@@QAEPAVTObjArray@@XZ
	?SetBTSearch@EdbDecaySearch@@QAEXHHHMM@Z
	?SetParentSearch@EdbDecaySearch@@QAEXHHMM@Z
	?SetSmallKinkSearch@EdbDecaySearch@@QAEXHHM@Z
	?SetKinkSearch@EdbDecaySearch@@QAEXH@Z
	?SetShortDecaySearch@EdbDecaySearch@@QAEXH@Z
	?Class@EdbDecaySearch@@SAPAVTClass@@XZ
	?Class_Name@EdbDecaySearch@@SAPBDXZ
	?Class_Version@EdbDecaySearch@@SAFXZ
	?Dictionary@EdbDecaySearch@@SAXXZ
	?IsA@EdbDecaySearch@@UBEPAVTClass@@XZ
	?ShowMembers@EdbDecaySearch@@UAEXAAVTMemberInspector@@@Z
	?Streamer@EdbDecaySearch@@UAEXAAVTBuffer@@@Z
	?StreamerNVirtual@EdbDecaySearch@@QAEXAAVTBuffer@@@Z
	?DeclFileName@EdbDecaySearch@@SAPBDXZ
	?ImplFileLine@EdbDecaySearch@@SAHXZ
	?ImplFileName@EdbDecaySearch@@SAPBDXZ
	?DeclFileLine@EdbDecaySearch@@SAHXZ
	??0EdbDecaySearch@@QAE@ABV0@@Z
	??4EdbDecaySearch@@QAEAAV0@ABV0@@Z
	??_FEdbDecaySearch@@QAEXXZ
	??2@YAPAXIPAVTOperatorNewHelper@ROOT@@@Z
	??3@YAXPAXPAVTOperatorNewHelper@ROOT@@@Z
	??1TVirtualIsAProxy@@UAE@XZ
	??0TVirtualIsAProxy@@QAE@XZ
	??0DictInit@?A0xab079e20@@QAE@XZ
	??0?$TInstrumentedIsAProxy@VEdbTrackDS@@@@QAE@PAVTClass@@@Z
	??1?$TInstrumentedIsAProxy@VEdbTrackDS@@@@UAE@XZ
	?SetClass@?$TInstrumentedIsAProxy@VEdbTrackDS@@@@UAEXPAVTClass@@@Z
	??R?$TInstrumentedIsAProxy@VEdbTrackDS@@@@UAEPAVTClass@@PBX@Z
	?GenerateInitInstance@ROOTDict@@YAPAVTGenericClassInfo@ROOT@@PBVEdbTrackDS@@@Z
	??0?$TInstrumentedIsAProxy@VEdbDecayVertex@@@@QAE@PAVTClass@@@Z
	??1?$TInstrumentedIsAProxy@VEdbDecayVertex@@@@UAE@XZ
	?SetClass@?$TInstrumentedIsAProxy@VEdbDecayVertex@@@@UAEXPAVTClass@@@Z
	??R?$TInstrumentedIsAProxy@VEdbDecayVertex@@@@UAEPAVTClass@@PBX@Z
	?GenerateInitInstance@ROOTDict@@YAPAVTGenericClassInfo@ROOT@@PBVEdbDecayVertex@@@Z
	??0?$TInstrumentedIsAProxy@VEdbSmallKink@@@@QAE@PAVTClass@@@Z
	??1?$TInstrumentedIsAProxy@VEdbSmallKink@@@@UAE@XZ
	?SetClass@?$TInstrumentedIsAProxy@VEdbSmallKink@@@@UAEXPAVTClass@@@Z
	??R?$TInstrumentedIsAProxy@VEdbSmallKink@@@@UAEPAVTClass@@PBX@Z
	?GenerateInitInstance@ROOTDict@@YAPAVTGenericClassInfo@ROOT@@PBVEdbSmallKink@@@Z
	??0?$TInstrumentedIsAProxy@VEdbDecaySearch@@@@QAE@PAVTClass@@@Z
	??1?$TInstrumentedIsAProxy@VEdbDecaySearch@@@@UAE@XZ
	?SetClass@?$TInstrumentedIsAProxy@VEdbDecaySearch@@@@UAEXPAVTClass@@@Z
	??R?$TInstrumentedIsAProxy@VEdbDecaySearch@@@@UAEPAVTClass@@PBX@Z
	?GenerateInitInstance@ROOTDict@@YAPAVTGenericClassInfo@ROOT@@PBVEdbDecaySearch@@@Z
	??$InspectMember@VTString@@@TMemberInspector@@QAEXAAVTString@@PBD@Z
	G__cpp_reset_tagtableAnalysisDict
	??0G__Sizep2memfuncAnalysisDict@@QAE@XZ
	?sizep2memfunc@G__Sizep2memfuncAnalysisDict@@QAEIXZ
	?G__get_sizep2memfuncAnalysisDict@@YAIXZ
	??$?0P6APAVTClass@@XZ@G__func2void@@QAE@P6APAVTClass@@XZ@Z
	??$?0P6APBDXZ@G__func2void@@QAE@P6APBDXZ@Z
	??$?0P6AFXZ@G__func2void@@QAE@P6AFXZ@Z
	??$?0P6AXXZ@G__func2void@@QAE@P6AXXZ@Z
	??$?0P6AHXZ@G__func2void@@QAE@P6AHXZ@Z
	??0G__cpp_setup_initAnalysisDict@@QAE@XZ
	??1G__cpp_setup_initAnalysisDict@@QAE@XZ
	??$construct@PADAAPAD@?$_Wrap_alloc@V?$allocator@D@std@@@std@@QAEXPAPADAAPAD@Z
	??$destroy@PAD@?$_Wrap_alloc@V?$allocator@D@std@@@std@@QAEXPAPAD@Z
	??$addressof@D@std@@YAPADAAD@Z
	??$_Allocate@D@std@@YAPADIPAD@Z
	??$forward@AAPAD@std@@YAAAPADAAPAD@Z
	??$construct@PADAAPAD@?$allocator_traits@V?$allocator@D@std@@@std@@SAXAAV?$allocator@D@1@PAPADAAPAD@Z
	??$destroy@PAD@?$allocator_traits@V?$allocator@D@std@@@std@@SAXAAV?$allocator@D@1@PAPAD@Z
	??$construct@PADAAPAD@?$allocator@D@std@@QAEXPAPADAAPAD@Z
	??$destroy@PAD@?$allocator@D@std@@QAEXPAPAD@Z
	?Transform@EdbTrack2D@@W3AEXPBVEdbAffine2D@@@Z
	?Test@EdbTrack2D@@W3BEXXZ
	?Print@EdbTrack2D@@W3BEXPBD@Z
	?IsA@EdbTrack2D@@W3BEPAVTClass@@XZ
	?ShowMembers@EdbTrack2D@@W3AEXAAVTMemberInspector@@@Z
	?Streamer@EdbTrack2D@@W3AEXAAVTBuffer@@@Z
	?IsA@EdbSegP@@WM@BEPAVTClass@@XZ
	?ShowMembers@EdbSegP@@WM@AEXAAVTMemberInspector@@@Z
	?Streamer@EdbSegP@@WM@AEXAAVTBuffer@@@Z
	?Print@EdbSegP@@WM@BEXPBD@Z
	?Print@EdbSegP@@WBA@BEXPBD@Z
	?IsA@EdbSegP@@WBA@BEPAVTClass@@XZ
	?ShowMembers@EdbSegP@@WBA@AEXAAVTMemberInspector@@@Z
	?Streamer@EdbSegP@@WBA@AEXAAVTBuffer@@@Z
	?IsA@EdbTrackP@@WM@BEPAVTClass@@XZ
	?ShowMembers@EdbTrackP@@WM@AEXAAVTMemberInspector@@@Z
	?Streamer@EdbTrackP@@WM@AEXAAVTBuffer@@@Z
	?IsA@EdbTrackP@@WBA@BEPAVTClass@@XZ
	?ShowMembers@EdbTrackP@@WBA@AEXAAVTMemberInspector@@@Z
	?Streamer@EdbTrackP@@WBA@AEXAAVTBuffer@@@Z
	?IsA@EdbTrackDS@@WM@BEPAVTClass@@XZ
	?ShowMembers@EdbTrackDS@@WM@AEXAAVTMemberInspector@@@Z
	?Streamer@EdbTrackDS@@WM@AEXAAVTBuffer@@@Z
	?IsA@EdbTrackDS@@WBA@BEPAVTClass@@XZ
	?ShowMembers@EdbTrackDS@@WBA@AEXAAVTMemberInspector@@@Z
	?Streamer@EdbTrackDS@@WBA@AEXAAVTBuffer@@@Z
	?_Generic_object@?$_Error_objects@H@std@@2V_Generic_error_category@2@A 	 DATA
	?_Iostream_object@?$_Error_objects@H@std@@2V_Iostream_error_category@2@A 	 DATA
	?_System_object@?$_Error_objects@H@std@@2V_System_error_category@2@A 	 DATA
	?id@?$num_put@DV?$back_insert_iterator@V?$basic_string@DU?$char_traits@D@std@@V?$allocator@D@2@@std@@@std@@@std@@2V0locale@2@A 	 DATA
	?id@?$num_put@_WV?$back_insert_iterator@V?$basic_string@_WU?$char_traits@_W@std@@V?$allocator@_W@2@@std@@@std@@@std@@2V0locale@2@A 	 DATA
	??_R0?AVTObject@@@8 	 DATA
	??_R0?AVEdbTrackDS@@@8 	 DATA
	??_R0?AVEdbDecayVertex@@@8 	 DATA
	??_R0?AVEdbSmallKink@@@8 	 DATA
	??_R0?AVEdbDecaySearch@@@8 	 DATA
	?G__cpp_setup_initializerAnalysisDict@@3VG__cpp_setup_initAnalysisDict@@A 	 DATA
	??_R0?AVTVirtualIsAProxy@@@8 	 DATA
	??_R0?AVerror_category@std@@@8 	 DATA
	??_R0?AV_Generic_error_category@std@@@8 	 DATA
	??_R0?AV_Iostream_error_category@std@@@8 	 DATA
	??_R0?AV_System_error_category@std@@@8 	 DATA
	??_R0?AVTDatime@@@8 	 DATA
	??_R0?AVEdbPoint@@@8 	 DATA
	??_R0?AVEdbPoint2D@@@8 	 DATA
	??_R0?AVEdbAngle2D@@@8 	 DATA
	??_R0?AVEdbTrack2D@@@8 	 DATA
	??_R0?AVEdbID@@@8 	 DATA
	??_R0?AVEdbSegP@@@8 	 DATA
	??_R0?AVEdbTrackP@@@8 	 DATA
	??_R0?AVTLockGuard@@@8 	 DATA
	??_R0?AVEdbVertex@@@8 	 DATA
	??_R0?AV?$TInstrumentedIsAProxy@VEdbTrackDS@@@@@8 	 DATA
	??_R0?AV?$TInstrumentedIsAProxy@VEdbDecayVertex@@@@@8 	 DATA
	??_R0?AV?$TInstrumentedIsAProxy@VEdbSmallKink@@@@@8 	 DATA
	??_R0?AV?$TInstrumentedIsAProxy@VEdbDecaySearch@@@@@8 	 DATA
