LIBRARY    C:\Users\User\Downloads\Fedra/lib/libEDA
EXPORTS 
	?gEDA@@3PAVEdbEDA@@A 	 DATA
	hypot
	cosf
	fabsf
	sinf
	sqrtf
	?pow@@YANNH@Z
	??$_Pow_int@N@@YANNH@Z
	?cos@@YAMM@Z
	?fabs@@YAMM@Z
	?sin@@YAMM@Z
	?sqrt@@YAMM@Z
	??2@YAPAXIPAX@Z
	??3@YAXPAX0@Z
	?compare@?$char_traits@D@std@@SAHPBD0I@Z
	?length@?$char_traits@D@std@@SAIPBD@Z
	?copy@?$char_traits@D@std@@SAPADPADPBDI@Z
	?find@?$char_traits@D@std@@SAPBDPBDIABD@Z
	?move@?$char_traits@D@std@@SAPADPADPBDI@Z
	?assign@?$char_traits@D@std@@SAPADPADID@Z
	?assign@?$char_traits@D@std@@SAXAADABD@Z
	?eq@?$char_traits@D@std@@SA_NABD0@Z
	?to_char_type@?$char_traits@D@std@@SADABH@Z
	?to_int_type@?$char_traits@D@std@@SAHABD@Z
	?eq_int_type@?$char_traits@D@std@@SA_NABH0@Z
	?not_eof@?$char_traits@D@std@@SAHABH@Z
	?eof@?$char_traits@D@std@@SAHXZ
	?_Adopt@_Iterator_base0@std@@QAEXPBX@Z
	??0?$allocator@D@std@@QAE@XZ
	?deallocate@?$allocator@D@std@@QAEXPADI@Z
	?allocate@?$allocator@D@std@@QAEPADI@Z
	?max_size@?$allocator@D@std@@QBEIXZ
	?max_size@?$allocator_traits@V?$allocator@D@std@@@std@@SAIABV?$allocator@D@2@@Z
	??0?$_Wrap_alloc@V?$allocator@D@std@@@std@@QAE@XZ
	?allocate@?$_Wrap_alloc@V?$allocator@D@std@@@std@@QAEPADI@Z
	?deallocate@?$_Wrap_alloc@V?$allocator@D@std@@@std@@QAEXPADI@Z
	?max_size@?$_Wrap_alloc@V?$allocator@D@std@@@std@@QBEIXZ
	??0?$_String_val@U?$_Simple_types@D@std@@@std@@QAE@XZ
	?_Myptr@?$_String_val@U?$_Simple_types@D@std@@@std@@QAEPADXZ
	?_Myptr@?$_String_val@U?$_Simple_types@D@std@@@std@@QBEPBDXZ
	??0?$_String_alloc@$0A@U?$_String_base_types@DV?$allocator@D@std@@@std@@@std@@QAE@ABV?$allocator@D@1@@Z
	?_Getal@?$_String_alloc@$0A@U?$_String_base_types@DV?$allocator@D@std@@@std@@@std@@QBE?AU?$_Wrap_alloc@V?$allocator@D@std@@@2@XZ
	??0?$basic_string@DU?$char_traits@D@std@@V?$allocator@D@2@@std@@QAE@XZ
	??0?$basic_string@DU?$char_traits@D@std@@V?$allocator@D@2@@std@@QAE@PBD@Z
	??0?$basic_string@DU?$char_traits@D@std@@V?$allocator@D@2@@std@@QAE@ID@Z
	??1?$basic_string@DU?$char_traits@D@std@@V?$allocator@D@2@@std@@QAE@XZ
	?append@?$basic_string@DU?$char_traits@D@std@@V?$allocator@D@2@@std@@QAEAAV12@ID@Z
	?assign@?$basic_string@DU?$char_traits@D@std@@V?$allocator@D@2@@std@@QAEAAV12@ABV12@II@Z
	?assign@?$basic_string@DU?$char_traits@D@std@@V?$allocator@D@2@@std@@QAEAAV12@PBDI@Z
	?assign@?$basic_string@DU?$char_traits@D@std@@V?$allocator@D@2@@std@@QAEAAV12@PBD@Z
	?assign@?$basic_string@DU?$char_traits@D@std@@V?$allocator@D@2@@std@@QAEAAV12@ID@Z
	?erase@?$basic_string@DU?$char_traits@D@std@@V?$allocator@D@2@@std@@QAEAAV12@I@Z
	?erase@?$basic_string@DU?$char_traits@D@std@@V?$allocator@D@2@@std@@QAEAAV12@II@Z
	?begin@?$basic_string@DU?$char_traits@D@std@@V?$allocator@D@2@@std@@QAE?AV?$_String_iterator@V?$_String_val@U?$_Simple_types@D@std@@@std@@@2@XZ
	??A?$basic_string@DU?$char_traits@D@std@@V?$allocator@D@2@@std@@QAEAADI@Z
	?c_str@?$basic_string@DU?$char_traits@D@std@@V?$allocator@D@2@@std@@QBEPBDXZ
	?size@?$basic_string@DU?$char_traits@D@std@@V?$allocator@D@2@@std@@QBEIXZ
	?max_size@?$basic_string@DU?$char_traits@D@std@@V?$allocator@D@2@@std@@QBEIXZ
	?find@?$basic_string@DU?$char_traits@D@std@@V?$allocator@D@2@@std@@QBEIPBDII@Z
	?find@?$basic_string@DU?$char_traits@D@std@@V?$allocator@D@2@@std@@QBEIPBDI@Z
	?compare@?$basic_string@DU?$char_traits@D@std@@V?$allocator@D@2@@std@@QBEHPBD@Z
	?compare@?$basic_string@DU?$char_traits@D@std@@V?$allocator@D@2@@std@@QBEHIIPBDI@Z
	?_Chassign@?$basic_string@DU?$char_traits@D@std@@V?$allocator@D@2@@std@@QAEXIID@Z
	?_Copy@?$basic_string@DU?$char_traits@D@std@@V?$allocator@D@2@@std@@QAEXII@Z
	?_Eos@?$basic_string@DU?$char_traits@D@std@@V?$allocator@D@2@@std@@QAEXI@Z
	?_Grow@?$basic_string@DU?$char_traits@D@std@@V?$allocator@D@2@@std@@QAE_NI_N@Z
	?_Inside@?$basic_string@DU?$char_traits@D@std@@V?$allocator@D@2@@std@@QAE_NPBD@Z
	?_Tidy@?$basic_string@DU?$char_traits@D@std@@V?$allocator@D@2@@std@@QAEX_NI@Z
	?_Xlen@?$basic_string@DU?$char_traits@D@std@@V?$allocator@D@2@@std@@QBEXXZ
	?_Xran@?$basic_string@DU?$char_traits@D@std@@V?$allocator@D@2@@std@@QBEXXZ
	??1locale@std@@QAE@XZ
	?_Getfacet@locale@std@@QBEPBVfacet@12@I@Z
	??$use_facet@V?$ctype@D@std@@@std@@YAABV?$ctype@D@0@ABVlocale@0@@Z
	?generic_category@std@@YAABVerror_category@1@XZ
	?system_category@std@@YAABVerror_category@1@XZ
	??0error_category@std@@QAE@XZ
	??1error_category@std@@UAE@XZ
	?default_error_condition@error_category@std@@UBE?AVerror_condition@2@H@Z
	?equivalent@error_category@std@@UBE_NHABVerror_condition@2@@Z
	?equivalent@error_category@std@@UBE_NABVerror_code@2@H@Z
	??8error_category@std@@QBE_NABV01@@Z
	?value@error_code@std@@QBEHXZ
	?category@error_code@std@@QBEABVerror_category@2@XZ
	??0error_condition@std@@QAE@HABVerror_category@1@@Z
	?value@error_condition@std@@QBEHXZ
	?category@error_condition@std@@QBEABVerror_category@2@XZ
	??8error_condition@std@@QBE_NABV01@@Z
	??0_Generic_error_category@std@@QAE@XZ
	?name@_Generic_error_category@std@@UBEPBDXZ
	?message@_Generic_error_category@std@@UBE?AV?$basic_string@DU?$char_traits@D@std@@V?$allocator@D@2@@2@H@Z
	??1_Generic_error_category@std@@UAE@XZ
	??0_Iostream_error_category@std@@QAE@XZ
	?name@_Iostream_error_category@std@@UBEPBDXZ
	?message@_Iostream_error_category@std@@UBE?AV?$basic_string@DU?$char_traits@D@std@@V?$allocator@D@2@@2@H@Z
	??1_Iostream_error_category@std@@UAE@XZ
	??0_System_error_category@std@@QAE@XZ
	?name@_System_error_category@std@@UBEPBDXZ
	?message@_System_error_category@std@@UBE?AV?$basic_string@DU?$char_traits@D@std@@V?$allocator@D@2@@2@H@Z
	?default_error_condition@_System_error_category@std@@UBE?AVerror_condition@2@H@Z
	??1_System_error_category@std@@UAE@XZ
	??0_Sentry_base@?$basic_istream@DU?$char_traits@D@std@@@std@@QAE@AAV12@@Z
	??1_Sentry_base@?$basic_istream@DU?$char_traits@D@std@@@std@@QAE@XZ
	??0sentry@?$basic_istream@DU?$char_traits@D@std@@@std@@QAE@AAV12@_N@Z
	??Bsentry@?$basic_istream@DU?$char_traits@D@std@@@std@@QBE_NXZ
	??1sentry@?$basic_istream@DU?$char_traits@D@std@@@std@@QAE@XZ
	??$_Fgetc@D@std@@YA_NAADPAU_iobuf@@@Z
	??$_Fputc@D@std@@YA_NDPAU_iobuf@@@Z
	??$_Ungetc@D@std@@YA_NABDPAU_iobuf@@@Z
	?Clear@TObject@@UAEXPBD@Z
	?GetOption@TObject@@UBEPBDXZ
	?IsSortable@TObject@@UBE_NXZ
	??2TObject@@SAPAXI@Z
	?Abs@TMath@@YAHH@Z
	?IsLong@TString@@ABE_NXZ
	?GetShortSize@TString@@ABEHXZ
	?GetLongSize@TString@@ABEHXZ
	?GetLongPointer@TString@@ABEPBDXZ
	?GetShortPointer@TString@@ABEPBDXZ
	?GetPointer@TString@@ABEPBDXZ
	??BTString@@QBEPBDXZ
	??YTString@@QAEAAV0@ABV0@@Z
	?Append@TString@@QAEAAV1@PBDH@Z
	?BeginsWith@TString@@QBE_NPBDW4ECaseCompare@1@@Z
	?Contains@TString@@QBE_NPBDW4ECaseCompare@1@@Z
	?Data@TString@@QBEPBDXZ
	?Index@TString@@QBEHPBDHW4ECaseCompare@1@@Z
	?Length@TString@@QBEHXZ
	?Remove@TString@@QAEAAV1@HH@Z
	?ReplaceAll@TString@@QAEAAV1@PBD0@Z
	??0TNamed@@QAE@XZ
	??1TNamed@@UAE@XZ
	?GetName@TNamed@@UBEPBDXZ
	?GetTitle@TNamed@@UBEPBDXZ
	?Hash@TNamed@@UBEKXZ
	?IsSortable@TNamed@@UBE_NXZ
	?IsA@TNamed@@UBEPAVTClass@@XZ
	??0TCollection@@IAE@XZ
	??1TCollection@@UAE@XZ
	?GetEntries@TCollection@@UBEHXZ
	?GetSize@TCollection@@UBEHXZ
	?Hash@TCollection@@UBEKXZ
	?IsEmpty@TCollection@@UBE_NXZ
	?IsFolder@TCollection@@UBE_NXZ
	?IsSortable@TCollection@@UBE_NXZ
	?MakeReverseIterator@TCollection@@UBEPAVTIterator@@XZ
	?IsA@TCollection@@UBEPAVTClass@@XZ
	??0TSeqCollection@@IAE@XZ
	?Changed@TSeqCollection@@MAEXXZ
	??1TSeqCollection@@UAE@XZ
	?Add@TSeqCollection@@UAEXPAVTObject@@@Z
	?RemoveFirst@TSeqCollection@@UAEXXZ
	?RemoveLast@TSeqCollection@@UAEXXZ
	?RemoveAt@TSeqCollection@@UAEPAVTObject@@H@Z
	?RemoveAfter@TSeqCollection@@UAEXPAVTObject@@@Z
	?RemoveBefore@TSeqCollection@@UAEXPAVTObject@@@Z
	?IsSorted@TSeqCollection@@UBE_NXZ
	?IsA@TSeqCollection@@UBEPAVTClass@@XZ
	??0TList@@QAE@XZ
	?Add@TList@@UAEXPAVTObject@@@Z
	?Add@TList@@UAEXPAVTObject@@PBD@Z
	?FirstLink@TList@@UBEPAVTObjLink@@XZ
	?LastLink@TList@@UBEPAVTObjLink@@XZ
	?IsA@TList@@UBEPAVTClass@@XZ
	??0TDatime@@QAE@I_N@Z
	??1TDatime@@UAE@XZ
	?IsA@TDatime@@UBEPAVTClass@@XZ
	?GetEntriesFast@TObjArray@@QBEHXZ
	??0_Ignore@std@@QAE@XZ
	?Set@TGLVertex3@@QAEXNNN@Z
	??ATGLVertex3@@QBEABNH@Z
	?X@TGLVertex3@@QBENXZ
	?Y@TGLVertex3@@QBENXZ
	?Z@TGLVertex3@@QBENXZ
	?CArr@TGLVertex3@@QBEPBNXZ
	??D@YA?BVTGLVector3@@ABV0@N@Z
	??H@YA?AVTGLVertex3@@ABV0@ABVTGLVector3@@@Z
	??G@YA?AVTGLVector3@@ABVTGLVertex3@@0@Z
	?Start@TGLLine3@@QBEABVTGLVertex3@@XZ
	?End@TGLLine3@@QBE?BVTGLVertex3@@XZ
	?Vector@TGLLine3@@QBEABVTGLVector3@@XZ
	??0TGLOverlayElement@@QAE@W4ERole@0@W4EState@0@@Z
	??1TGLOverlayElement@@UAE@XZ
	?IsA@TGLOverlayElement@@UBEPAVTClass@@XZ
	?RefCamera@TGLRnrCtx@@QAEAAVTGLCamera@@XZ
	?SetEnableRotate@TGLOrthoCamera@@QAEX_N@Z
	?CurrentCamera@TGLViewer@@QBEAAVTGLCamera@@XZ
	?_Nextnode@?$_List_val@U?$_List_simple_types@PAVTEveElement@@@std@@@std@@SAAAPAU?$_List_node@PAVTEveElement@@PAX@2@PAU32@@Z
	?_Myval@?$_List_val@U?$_List_simple_types@PAVTEveElement@@@std@@@std@@SAAAPAVTEveElement@@PAU?$_List_node@PAVTEveElement@@PAX@2@@Z
	?begin@?$list@PAVTEveElement@@V?$allocator@PAVTEveElement@@@std@@@std@@QAE?AV?$_List_iterator@V?$_List_val@U?$_List_simple_types@PAVTEveElement@@@std@@@std@@@2@XZ
	?end@?$list@PAVTEveElement@@V?$allocator@PAVTEveElement@@@std@@@std@@QAE?AV?$_List_iterator@V?$_List_val@U?$_List_simple_types@PAVTEveElement@@@std@@@std@@@2@XZ
	?BeginParents@TEveElement@@QAE?AV?$_List_iterator@V?$_List_val@U?$_List_simple_types@PAVTEveElement@@@std@@@std@@@std@@XZ
	?BeginChildren@TEveElement@@QAE?AV?$_List_iterator@V?$_List_val@U?$_List_simple_types@PAVTEveElement@@@std@@@std@@@std@@XZ
	?EndChildren@TEveElement@@QAE?AV?$_List_iterator@V?$_List_val@U?$_List_simple_types@PAVTEveElement@@@std@@@std@@@std@@XZ
	?NumChildren@TEveElement@@QBEHXZ
	?GetUserData@TEveElement@@QBEPAXXZ
	??0?$_List_unchecked_const_iterator@V?$_List_val@U?$_List_simple_types@PAVTEveElement@@@std@@@std@@U_Iterator_base0@2@@std@@QAE@PAU?$_List_node@PAVTEveElement@@PAX@1@PBV?$_List_val@U?$_List_simple_types@PAVTEveElement@@@std@@@1@@Z
	??0?$_List_const_iterator@V?$_List_val@U?$_List_simple_types@PAVTEveElement@@@std@@@std@@@std@@QAE@PAU?$_List_node@PAVTEveElement@@PAX@1@PBV?$_List_val@U?$_List_simple_types@PAVTEveElement@@@std@@@1@@Z
	??D?$_List_const_iterator@V?$_List_val@U?$_List_simple_types@PAVTEveElement@@@std@@@std@@@std@@QBEABQAVTEveElement@@XZ
	??E?$_List_const_iterator@V?$_List_val@U?$_List_simple_types@PAVTEveElement@@@std@@@std@@@std@@QAEAAV01@XZ
	??8?$_List_const_iterator@V?$_List_val@U?$_List_simple_types@PAVTEveElement@@@std@@@std@@@std@@QBE_NABV01@@Z
	??9?$_List_const_iterator@V?$_List_val@U?$_List_simple_types@PAVTEveElement@@@std@@@std@@@std@@QBE_NABV01@@Z
	??0?$_List_iterator@V?$_List_val@U?$_List_simple_types@PAVTEveElement@@@std@@@std@@@std@@QAE@PAU?$_List_node@PAVTEveElement@@PAX@1@PBV?$_List_val@U?$_List_simple_types@PAVTEveElement@@@std@@@1@@Z
	??D?$_List_iterator@V?$_List_val@U?$_List_simple_types@PAVTEveElement@@@std@@@std@@@std@@QBEAAPAVTEveElement@@XZ
	??E?$_List_iterator@V?$_List_val@U?$_List_simple_types@PAVTEveElement@@@std@@@std@@@std@@QAEAAV01@XZ
	??E?$_List_iterator@V?$_List_val@U?$_List_simple_types@PAVTEveElement@@@std@@@std@@@std@@QAE?AV01@H@Z
	?GetSelection@TEveManager@@QBEPAVTEveSelection@@XZ
	?GetBrowser@TEveManager@@QBEPAVTEveBrowser@@XZ
	?GetWindowManager@TEveManager@@QBEPAVTEveWindowManager@@XZ
	?GetViewers@TEveManager@@QBEPAVTEveViewerList@@XZ
	?GetCurrentEvent@TEveManager@@QBEPAVTEveEventManager@@XZ
	?Redraw3D@TEveManager@@QAEX_N0@Z
	?Power@TMath@@YANNH@Z
	?SetFontFile@TEveText@@QAEXH@Z
	?SetText@TEveText@@QAEXPBD@Z
	?GetTabRight@TRootBrowser@@QBEPAVTGTab@@XZ
	?GetTabBottom@TRootBrowser@@QBEPAVTGTab@@XZ
	?X@TVector3@@QBENXZ
	?Y@TVector3@@QBENXZ
	?Z@TVector3@@QBENXZ
	?SetX@TVector3@@QAEXN@Z
	?SetY@TVector3@@QAEXN@Z
	?SetZ@TVector3@@QAEXN@Z
	?SetMag@TVector3@@QAEXN@Z
	?Cross@TVector3@@QBE?AV1@ABV1@@Z
	?GetGLViewer@TEveViewer@@QBEPAVTGLViewer@@XZ
	?GetCurrentTab@TGTab@@QBEPAVTGTabElement@@XZ
	??0TGFileInfo@@QAE@XZ
	??0TSortedList@@QAE@_N@Z
	?IsSorted@TSortedList@@UBE_NXZ
	?AddFirst@TSortedList@@UAEXPAVTObject@@@Z
	?AddFirst@TSortedList@@UAEXPAVTObject@@PBD@Z
	?AddLast@TSortedList@@UAEXPAVTObject@@@Z
	?AddLast@TSortedList@@UAEXPAVTObject@@PBD@Z
	?AddAt@TSortedList@@UAEXPAVTObject@@H@Z
	?AddAfter@TSortedList@@UAEXPBVTObject@@PAV2@@Z
	?AddAfter@TSortedList@@UAEXPAVTObjLink@@PAVTObject@@@Z
	?AddBefore@TSortedList@@UAEXPBVTObject@@PAV2@@Z
	?AddBefore@TSortedList@@UAEXPAVTObjLink@@PAVTObject@@@Z
	?Sort@TSortedList@@UAEX_N@Z
	?IsA@TSortedList@@UBEPAVTClass@@XZ
	??1TSortedList@@UAE@XZ
	??1EdbPoint@@UAE@XZ
	?Transform@EdbPoint@@UAEXPBVEdbAffine2D@@@Z
	?Transform@EdbPoint@@UAEXPBVEdbAffine3D@@@Z
	?Test@EdbPoint@@UBEXXZ
	?IsA@EdbPoint@@UBEPAVTClass@@XZ
	??0EdbPoint@@QAE@XZ
	??4EdbPoint@@QAEAAV0@ABV0@@Z
	??1EdbAngle2D@@UAE@XZ
	?Test@EdbAngle2D@@UBEXXZ
	?IsA@EdbAngle2D@@UBEPAVTClass@@XZ
	??0EdbAngle2D@@QAE@XZ
	??4EdbAngle2D@@QAEAAV0@ABV0@@Z
	??1EdbPoint2D@@UAE@XZ
	?Z@EdbPoint2D@@UBEMXZ
	?SetZ@EdbPoint2D@@UAEXM@Z
	?Test@EdbPoint2D@@UBEXXZ
	?TestPoint2D@EdbPoint2D@@UBEXXZ
	?IsA@EdbPoint2D@@UBEPAVTClass@@XZ
	??0EdbPoint2D@@QAE@XZ
	??4EdbPoint2D@@QAEAAV0@ABV0@@Z
	??1EdbTrack2D@@UAE@XZ
	?Test@EdbTrack2D@@UBEXXZ
	?IsA@EdbTrack2D@@UBEPAVTClass@@XZ
	??0EdbTrack2D@@QAE@XZ
	??4EdbTrack2D@@QAEAAV0@ABV0@@Z
	??0EdbID@@QAE@HHHH@Z
	??1EdbID@@UAE@XZ
	?Set@EdbID@@QAEXHHHH@Z
	?Get@EdbID@@QAEXQAH@Z
	?Print@EdbID@@QAEXXZ
	?IsA@EdbID@@UBEPAVTClass@@XZ
	??0EdbID@@QAE@ABV0@@Z
	??4EdbID@@QAEAAV0@ABV0@@Z
	??0EdbSegP@@QAE@XZ
	??0EdbSegP@@QAE@ABV0@@Z
	??1EdbSegP@@UAE@XZ
	?Set@EdbSegP@@QAEXHMMMMMH@Z
	?SetErrors@EdbSegP@@QAEXXZ
	?COV@EdbSegP@@QBEAAV?$TMatrixT@N@@XZ
	?SetZ@EdbSegP@@UAEXM@Z
	?SetDZ@EdbSegP@@QAEXM@Z
	?SetID@EdbSegP@@QAEXH@Z
	?SetPID@EdbSegP@@QAEXH@Z
	?SetFlag@EdbSegP@@QAEXH@Z
	?SetTrack@EdbSegP@@QAEXH@Z
	?SetW@EdbSegP@@QAEXM@Z
	?SetChi2@EdbSegP@@QAEXM@Z
	?SetSide@EdbSegP@@QAEXH@Z
	?SetPlate@EdbSegP@@QAEXH@Z
	?ID@EdbSegP@@QBEHXZ
	?PID@EdbSegP@@QBEHXZ
	?Flag@EdbSegP@@QBEHXZ
	?W@EdbSegP@@QBEMXZ
	?Z@EdbSegP@@UBEMXZ
	?Chi2@EdbSegP@@QBEMXZ
	?Plate@EdbSegP@@QBEHXZ
	?ScanID@EdbSegP@@QBE?AVEdbID@@XZ
	?Side@EdbSegP@@QBEHXZ
	?X@EdbSegP@@UBEMXZ
	?Y@EdbSegP@@UBEMXZ
	?TX@EdbSegP@@UBEMXZ
	?TY@EdbSegP@@UBEMXZ
	?SetX@EdbSegP@@UAEXM@Z
	?SetY@EdbSegP@@UAEXM@Z
	?SetTX@EdbSegP@@UAEXM@Z
	?SetTY@EdbSegP@@UAEXM@Z
	?IsSortable@EdbSegP@@UBE_NXZ
	?IsA@EdbSegP@@UBEPAVTClass@@XZ
	??4EdbSegP@@QAEAAV0@ABV0@@Z
	?GetSegment@EdbSegmentsBox@@QBEPAVEdbSegP@@H@Z
	?SetCounters@EdbTrackP@@QAEXXZ
	?SetN0@EdbTrackP@@QAEXXZ
	?SetNpl@EdbTrackP@@QAEXXZ
	?N@EdbTrackP@@QBEHXZ
	?GetSegmentFirst@EdbTrackP@@QBEPAVEdbSegP@@XZ
	?GetSegmentLast@EdbTrackP@@QBEPAVEdbSegP@@XZ
	?GetSegment@EdbTrackP@@QBEPAVEdbSegP@@H@Z
	?AddSegment@EdbTrackP@@QAEXPAVEdbSegP@@@Z
	?RemoveSegment@EdbTrackP@@QAEXPAVEdbSegP@@@Z
	?SetID@EdbPattern@@QAEXH@Z
	?SetPID@EdbPattern@@QAEXH@Z
	?ID@EdbPattern@@QBEHXZ
	?PID@EdbPattern@@QBEHXZ
	?Plate@EdbPattern@@QBEHXZ
	?Npatterns@EdbPatternsVolume@@QBEHXZ
	?Imp@EdbVTA@@QBEMXZ
	?GetTrack@EdbVTA@@QBEPAVEdbTrackP@@XZ
	?SetZpos@EdbVTA@@QAEXH@Z
	?SetFlag@EdbVTA@@QAEXH@Z
	?SetImp@EdbVTA@@QAEXM@Z
	?N@EdbVertex@@QBEHXZ
	?ID@EdbVertex@@QBEHXZ
	?X@EdbVertex@@QBEMXZ
	?Y@EdbVertex@@QBEMXZ
	?Z@EdbVertex@@QBEMXZ
	?GetVTa@EdbVertex@@QAEPAVEdbVTA@@H@Z
	?GetTrack@EdbVertex@@QAEPAVEdbTrackP@@H@Z
	?Impact@EdbVertex@@QAEMH@Z
	?SetID@EdbVertex@@QAEXH@Z
	?SetXYZ@EdbVertex@@QAEXMMM@Z
	?SetFlag@EdbVertex@@QAEXH@Z
	??1EdbVertexPar@@UAE@XZ
	?IsA@EdbVertexPar@@UBEPAVTClass@@XZ
	??0EdbVertexRec@@QAE@XZ
	?IsA@EdbVertexRec@@UBEPAVTClass@@XZ
	??BTCut@@QBEPBDXZ
	?At@TIndexCell@@QBEPAV1@H@Z
	?Value@TIndexCell@@QBEJXZ
	?ID@EdbLayer@@QBEHXZ
	?Z@EdbLayer@@QBEMXZ
	?Shr@EdbLayer@@QBEMXZ
	?GetAffineXY@EdbLayer@@QAEPAVEdbAffine2D@@XZ
	?GetAffineTXTY@EdbLayer@@QAEPAVEdbAffine2D@@XZ
	??1EdbScanCond@@UAE@XZ
	?SetRadX0@EdbScanCond@@QAEXM@Z
	?SetSigma0@EdbScanCond@@QAEXMMMM@Z
	?SetBins@EdbScanCond@@QAEXMMMM@Z
	?SetDegrad@EdbScanCond@@QAEXM@Z
	?SetPulsRamp0@EdbScanCond@@QAEXMM@Z
	?SetPulsRamp04@EdbScanCond@@QAEXMM@Z
	?SetChi2Max@EdbScanCond@@QAEXM@Z
	?SetChi2PMax@EdbScanCond@@QAEXM@Z
	?Ntracks@EdbPVRec@@QBEHXZ
	?GetTrack@EdbPVRec@@QBEPAVEdbTrackP@@H@Z
	?AddTrack@EdbPVRec@@QAEXPAVEdbTrackP@@@Z
	?AddVertex@EdbPVRec@@QAEXPAVEdbVertex@@@Z
	?Nvtx@EdbPVRec@@QBEHXZ
	?GetVertex@EdbPVRec@@QAEPAVEdbVertex@@AAH@Z
	?Plate@EdbDataPiece@@QBEHXZ
	?GetLayer@EdbDataPiece@@QAEPAVEdbLayer@@H@Z
	?N@EdbDataSet@@QBEHXZ
	?GetPiece@EdbDataSet@@QAEPAVEdbDataPiece@@H@Z
	?GetDataSet@EdbDataProc@@QAEPAVEdbDataSet@@XZ
	?SetPVR@EdbDataProc@@QAEXPAVEdbPVRec@@@Z
	?Npl@EdbBrickP@@QBEHXZ
	?GetPlate@EdbBrickP@@QAEPAVEdbPlateP@@H@Z
	?Brick@EdbScanSet@@QAEAAVEdbBrickP@@XZ
	?GetPlate@EdbScanSet@@QAEPAVEdbPlateP@@H@Z
	?MakeFileName@EdbScanProc@@QAEXAAVTString@@VEdbID@@PBD_N@Z
	?ReadPatCP@EdbScanProc@@QAEHAAVEdbPattern@@VEdbID@@VTCut@@@Z
	??0EdbEDAArea@@QAE@HNNNNN@Z
	?Plate@EdbEDAArea@@QAEHXZ
	?Xmin@EdbEDAArea@@QAENXZ
	?Xmax@EdbEDAArea@@QAENXZ
	?Ymin@EdbEDAArea@@QAENXZ
	?Ymax@EdbEDAArea@@QAENXZ
	?Z@EdbEDAArea@@QAENXZ
	?IsA@EdbEDAArea@@UBEPAVTClass@@XZ
	??1EdbEDAArea@@UAE@XZ
	??0EdbEDAAreaSet@@QAE@XZ
	?Init@EdbEDAAreaSet@@QAEXXZ
	?SetDraw@EdbEDAAreaSet@@QAEX_N@Z
	?AddArea@EdbEDAAreaSet@@QAEXHNNNNN@Z
	?AddArea@EdbEDAAreaSet@@QAEXPAVEdbEDAArea@@@Z
	?N@EdbEDAAreaSet@@QAEHXZ
	?GetArea@EdbEDAAreaSet@@QAEPAVEdbEDAArea@@H@Z
	?Clear@EdbEDAAreaSet@@QAEXXZ
	?IsA@EdbEDAAreaSet@@UBEPAVTClass@@XZ
	??1EdbEDAAreaSet@@UAE@XZ
	??0EdbEDAVertexSet@@QAE@XZ
	?Init@EdbEDAVertexSet@@QAEXXZ
	?SetVertexAttribute@EdbEDAVertexSet@@QAEXHHH@Z
	?AddVertex@EdbEDAVertexSet@@QAEXPAVEdbVertex@@@Z
	?AddVertices@EdbEDAVertexSet@@QAEXPAVTObjArray@@@Z
	?ClearVertices@EdbEDAVertexSet@@QAEXXZ
	?Clear@EdbEDAVertexSet@@QAEXXZ
	?N@EdbEDAVertexSet@@QAEHXZ
	?GetVertex@EdbEDAVertexSet@@QAEPAVEdbVertex@@H@Z
	?GetVertices@EdbEDAVertexSet@@QAEPAVTObjArray@@XZ
	?IsA@EdbEDAVertexSet@@UBEPAVTClass@@XZ
	??1EdbEDAVertexSet@@UAE@XZ
	??0EdbEDAExtentionSet@@QAE@XZ
	?IsA@EdbEDAExtentionSet@@UBEPAVTClass@@XZ
	??1EdbEDAExtentionSet@@UAE@XZ
	??0EdbRunTracking@@QAE@XZ
	?IsA@EdbRunTracking@@UBEPAVTClass@@XZ
	?GetTrack@EdbEDATrackComment@@QAEPAVEdbTrackP@@XZ
	?GetComment@EdbEDATrackComment@@QAEPBDXZ
	??0EdbEDATrackSelection@@QAE@XZ
	??1EdbEDATrackSelection@@UAE@XZ
	?Reset@EdbEDATrackSelection@@QAEXXZ
	?SetNsegCut@EdbEDATrackSelection@@QAEXH@Z
	?SetUpstreamPlate@EdbEDATrackSelection@@QAEXH@Z
	?SetCondTrackingDefault@EdbEDATrackSelection@@QAEXXZ
	?SetCondMTDefault@EdbEDATrackSelection@@QAEXAAVEdbScanCond@@@Z
	?SetCondBTDefault@EdbEDATrackSelection@@QAEXAAVEdbScanCond@@@Z
	?IsA@EdbEDATrackSelection@@UBEPAVTClass@@XZ
	??0EdbEDATrackSet@@QAE@PADPAVTObjArray@@@Z
	?SetTracksBase@EdbEDATrackSet@@QAEXPAVTObjArray@@@Z
	?AddTracksBase@EdbEDATrackSet@@QAEXPAVTObjArray@@@Z
	?AddTrack@EdbEDATrackSet@@QAEXPAVEdbTrackP@@@Z
	?SetTrack@EdbEDATrackSet@@QAEXPAVEdbTrackP@@@Z
	?SetTracks@EdbEDATrackSet@@QAEXPAVTObjArray@@@Z
	?AddTracksPVR@EdbEDATrackSet@@QAEXPAVEdbPVRec@@@Z
	?GetPVRec@EdbEDATrackSet@@QAEPAVEdbPVRec@@XZ
	?ClearTracks@EdbEDATrackSet@@QAEXXZ
	?ClearTracksBase@EdbEDATrackSet@@QAEXXZ
	?Clear@EdbEDATrackSet@@QAEXXZ
	?SetTracksAll@EdbEDATrackSet@@QAEXXZ
	?FindTrack@EdbEDATrackSet@@QAEPAVEdbTrackP@@PAVEdbSegP@@NN@Z
	?FindTrack@EdbEDATrackSet@@QAEPAVEdbTrackP@@PAV2@@Z
	?FindTrackLast@EdbEDATrackSet@@QAEPAVEdbTrackP@@PAVEdbSegP@@NN@Z
	?N@EdbEDATrackSet@@QAEHXZ
	?NBase@EdbEDATrackSet@@QAEHXZ
	?GetTrack@EdbEDATrackSet@@QAEPAVEdbTrackP@@H@Z
	?GetTrackBase@EdbEDATrackSet@@QAEPAVEdbTrackP@@H@Z
	?SetID@EdbEDATrackSet@@QAEXVEdbID@@@Z
	?GetID@EdbEDATrackSet@@QAEAAVEdbID@@XZ
	?SetScanSet@EdbEDATrackSet@@QAEXPAVEdbScanSet@@@Z
	?GetScanSet@EdbEDATrackSet@@QAEPAVEdbScanSet@@XZ
	?GetDataSet@EdbEDATrackSet@@QAEPAVEdbDataSet@@XZ
	?GetComment@EdbEDATrackSet@@QAEPBDPAVEdbTrackP@@@Z
	?DoSelection@EdbEDATrackSet@@QAEXXZ
	?SetExtendMode@EdbEDATrackSet@@QAEXH@Z
	?SetInterpolation@EdbEDATrackSet@@QAEXH@Z
	?SetTrackAttribute@EdbEDATrackSet@@QAEXHHNHHNH@Z
	?SetTextAttribute@EdbEDATrackSet@@QAEXHHH@Z
	?GetDraw@EdbEDATrackSet@@QAE_NXZ
	?SetDrawMT@EdbEDATrackSet@@QAEX_N@Z
	?SetDrawTrackID@EdbEDATrackSet@@QAEX_N@Z
	?SetDrawTrackAngle@EdbEDATrackSet@@QAEX_N@Z
	?SetDrawTrackIDG@EdbEDATrackSet@@QAEX_N@Z
	?SetDrawTrackAngleG@EdbEDATrackSet@@QAEX_N@Z
	?SetAreaSet@EdbEDATrackSet@@QAEXPAVEdbEDAAreaSet@@@Z
	?GetAreaSet@EdbEDATrackSet@@QAEPAVEdbEDAAreaSet@@XZ
	?SetDrawAreaSet@EdbEDATrackSet@@QAEX_N@Z
	?IsA@EdbEDATrackSet@@UBEPAVTClass@@XZ
	??1EdbEDATrackSet@@UAE@XZ
	??0EdbEDAMainTab@@QAE@XZ
	??1EdbEDAMainTab@@UAE@XZ
	?IsA@EdbEDAMainTab@@UBEPAVTClass@@XZ
	??0EdbEDAListTab@@QAE@XZ
	??0EdbEDAVertexTab@@QAE@XZ
	?IsA@EdbEDAVertexTab@@UBEPAVTClass@@XZ
	??1EdbEDAVertexTab@@UAE@XZ
	??0EdbEDAMCTab@@QAE@XZ
	??0EdbEDAPredTab@@QAE@XZ
	??0EdbEDAPlotTab@@QAE@XZ
	??0EdbEDADecaySearch@@QAE@H@Z
	??1EdbEDADecaySearch@@UAE@XZ
	?IsA@EdbEDADecaySearch@@UBEPAVTClass@@XZ
	??0EdbEDADecaySearchTab@@QAE@H@Z
	??1EdbEDADecaySearchTab@@UAE@XZ
	?IsA@EdbEDADecaySearchTab@@UBEPAVTClass@@XZ
	??$endl@DU?$char_traits@D@std@@@std@@YAAAV?$basic_ostream@DU?$char_traits@D@std@@@0@AAV10@@Z
	??0EdbEDAObject@@QAE@XZ
	??1EdbEDAObject@@UAE@XZ
	?Draw@EdbEDAObject@@UAEXPBD@Z
	?SetColorMode@EdbEDAObject@@UAEXH@Z
	?SetReference@EdbEDAObject@@QAEXPAX@Z
	?GetDraw@EdbEDAObject@@QAE_NXZ
	?IsA@EdbEDAObject@@UBEPAVTClass@@XZ
	??0EdbEDAText@@QAE@MMMVTString@@H@Z
	??1EdbEDAText@@UAE@XZ
	?SetAttribute@EdbEDAText@@QAEXHHH@Z
	?SetColorMode@EdbEDAText@@UAEXH@Z
	?SetXYZ@EdbEDAText@@QAEXMMM@Z
	?SetText@EdbEDAText@@QAEXVTString@@@Z
	?AddText@EdbEDAText@@QAEXVTString@@@Z
	?N@EdbEDAText@@QAEHXZ
	?Draw@EdbEDAText@@UAEXPBD@Z
	?IsA@EdbEDAText@@UBEPAVTClass@@XZ
	?Draw@EdbEDALine@@UAEXPBD@Z
	??0EdbEDAOverlay@@QAE@XZ
	??1EdbEDAOverlay@@UAE@XZ
	?Render@EdbEDAOverlay@@UAEXAAVTGLRnrCtx@@@Z
	?RenderBar@EdbEDAOverlay@@QAEXAAVTGLRnrCtx@@@Z
	?RenderAxes@EdbEDAOverlay@@QAEXAAVTGLRnrCtx@@@Z
	?SetXY@EdbEDAOverlay@@QAEXHH@Z
	?SetLength@EdbEDAOverlay@@QAEXH@Z
	?IsA@EdbEDAOverlay@@UBEPAVTClass@@XZ
	?SetCamera@EdbEDACamera@@QAEXH@Z
	?Animation@EdbEDACamera@@QAEXXZ
	?SetAnimationMode@EdbEDACamera@@QAEXXZ
	?StartAnimation@EdbEDACamera@@QAEXXZ
	?StopAnimation@EdbEDACamera@@QAEXXZ
	?SaveAnimation@EdbEDACamera@@QAEXPADHH@Z
	?SavePictures@EdbEDACamera@@QAEXXZ
	?Snapshot@EdbEDACamera@@QAEXPAD@Z
	?GetGLViewer@EdbEDACamera@@QAEPAVTGLViewer@@XZ
	?SetOverlay@EdbEDACamera@@QAEPAVEdbEDAOverlay@@XZ
	?ReadCouples@EdbEDAIO@@QAEPAVEdbPattern@@HPAV2@@Z
	?ReadCouplesPID@EdbEDAIO@@QAEPAVEdbPattern@@HPAV2@@Z
	?GetPatternIPL@EdbEDAIO@@QAEPAVEdbPattern@@H@Z
	?WriteFeedbackFile@EdbEDAIO@@QAEXPAD@Z
	?WriteFeedbackFile2008@EdbEDAIO@@QAEXPAVEdbVertex@@PAD@Z
	?ReadFeedbackFile@EdbEDAIO@@QAEXPAD@Z
	?ReadFeedbackFile2008@EdbEDAIO@@QAEPAVEdbVertex@@PAD@Z
	?IdMuon@EdbEDAIO@@QAEHPAD@Z
	?OpenTextEditor@EdbEDAIO@@QAEXPAD@Z
	?WriteFilteredText@EdbEDAIO@@QAEXPAD@Z
	?ReadFilteredText@EdbEDAIO@@QAEPAVEdbPVRec@@PAD@Z
	?SetPVR@EdbEDABrickData@@QAEXPAVEdbPVRec@@@Z
	?SetBrick@EdbEDABrickData@@QAEXH@Z
	?GetBrick@EdbEDABrickData@@QAEHXZ
	?SetDataType@EdbEDABrickData@@QAEXH@Z
	?GetPlateUp@EdbEDABrickData@@QAEHXZ
	?GetFirstPlate@EdbEDABrickData@@QAEHXZ
	?GetLastPlate@EdbEDABrickData@@QAEHXZ
	?GetDataSet@EdbEDABrickData@@QAEPAVEdbDataSet@@XZ
	?GetIPL@EdbEDABrickData@@QAEHH@Z
	?GetIPLZ@EdbEDABrickData@@QAEHM@Z
	?GetPID@EdbEDABrickData@@QAEHH@Z
	?GetZ@EdbEDABrickData@@QAENH@Z
	?GetZPID@EdbEDABrickData@@QAENH@Z
	?GetBeamTX@EdbEDABrickData@@QAENXZ
	?GetBeamTY@EdbEDABrickData@@QAENXZ
	?GetAffine@EdbEDABrickData@@QAEPAVEdbAffine2D@@H@Z
	?InitSelection@EdbEDASelection@@QAEXPAVTEveSelection@@@Z
	?ClearSelected@EdbEDASelection@@QAEXXZ
	?GetTrack@EdbEDASelection@@QAEPAVEdbTrackP@@PAVTEveElement@@@Z
	?SetSelected@EdbEDASelection@@QAEPAVTObjArray@@PAV2@@Z
	?SelectAll@EdbEDASelection@@QAEXXZ
	?SetSelection@EdbEDASelection@@QAEXPAVTObjArray@@@Z
	?GetSelectedVertex@EdbEDASelection@@QAEPAVEdbVertex@@XZ
	?ClearSelectedVertex@EdbEDASelection@@QAEXXZ
	?Added@EdbEDASelection@@QAEXPAVTEveElement@@@Z
	?Removed@EdbEDASelection@@QAEXPAVTEveElement@@@Z
	?Cleared@EdbEDASelection@@QAEXXZ
	?Disable@EdbEDASelection@@QAEHH@Z
	?Enable@EdbEDASelection@@QAEHH@Z
	?OpenFile@EdbEDA@@QAEXPADHVTCut@@@Z
	?PVRec2DataProc@EdbEDA@@QAEPAVEdbDataProc@@PAVEdbPVRec@@@Z
	?Init@EdbEDA@@QAEXXZ
	?Run@EdbEDA@@QAEXXZ
	?ScanProc@EdbEDA@@QAEPAVEdbScanProc@@XZ
	?AddDrawObject@EdbEDA@@QAEXPAVEdbEDAObject@@@Z
	?ClearDrawObjects@EdbEDA@@QAEXXZ
	?NDrawObjects@EdbEDA@@QAEHXZ
	?GetDrawObject@EdbEDA@@QAEPAVEdbEDAObject@@H@Z
	?NTrackSets@EdbEDA@@QAEHXZ
	?GetTrackSet@EdbEDA@@QAEPAVEdbEDATrackSet@@H@Z
	?GetTrackSet@EdbEDA@@QAEPAVEdbEDATrackSet@@PAD@Z
	?GetTrackSet@EdbEDA@@QAEPAVEdbEDATrackSet@@AAVEdbID@@@Z
	?GetVertexSet@EdbEDA@@QAEPAVEdbEDAVertexSet@@XZ
	?AddVertex@EdbEDA@@QAEXPAVEdbVertex@@@Z
	?ClearVertices@EdbEDA@@QAEXXZ
	?Draw@EdbEDA@@QAEXH@Z
	?Redraw@EdbEDA@@QAEXXZ
	?UpdateScene@EdbEDA@@QAEXXZ
	?Reset@EdbEDA@@QAEXXZ
	?GetExtentionSet@EdbEDA@@QAEPAVEdbEDAExtentionSet@@XZ
	?CheckScanback@EdbEDA@@QAEPAVEdbTrackP@@PAV2@@Z
	?GetScaleZ@EdbEDA@@QAENXZ
	?SetJapanese@EdbEDA@@QAEX_N@Z
	??0?$basic_ifstream@DU?$char_traits@D@std@@@std@@QAE@PBDHH@Z
	??1?$basic_ifstream@DU?$char_traits@D@std@@@std@@UAE@XZ
	?close@?$basic_ifstream@DU?$char_traits@D@std@@@std@@QAEXXZ
	??0?$basic_filebuf@DU?$char_traits@D@std@@@std@@QAE@PAU_iobuf@@@Z
	??1?$basic_filebuf@DU?$char_traits@D@std@@@std@@UAE@XZ
	?open@?$basic_filebuf@DU?$char_traits@D@std@@@std@@QAEPAV12@PBDHH@Z
	?close@?$basic_filebuf@DU?$char_traits@D@std@@@std@@QAEPAV12@XZ
	?_Lock@?$basic_filebuf@DU?$char_traits@D@std@@@std@@UAEXXZ
	?_Unlock@?$basic_filebuf@DU?$char_traits@D@std@@@std@@UAEXXZ
	?overflow@?$basic_filebuf@DU?$char_traits@D@std@@@std@@MAEHH@Z
	?pbackfail@?$basic_filebuf@DU?$char_traits@D@std@@@std@@MAEHH@Z
	?underflow@?$basic_filebuf@DU?$char_traits@D@std@@@std@@MAEHXZ
	?uflow@?$basic_filebuf@DU?$char_traits@D@std@@@std@@MAEHXZ
	?seekoff@?$basic_filebuf@DU?$char_traits@D@std@@@std@@MAE?AV?$fpos@H@2@_JHH@Z
	?seekpos@?$basic_filebuf@DU?$char_traits@D@std@@@std@@MAE?AV?$fpos@H@2@V32@H@Z
	?setbuf@?$basic_filebuf@DU?$char_traits@D@std@@@std@@MAEPAV?$basic_streambuf@DU?$char_traits@D@std@@@2@PAD_J@Z
	?sync@?$basic_filebuf@DU?$char_traits@D@std@@@std@@MAEHXZ
	?imbue@?$basic_filebuf@DU?$char_traits@D@std@@@std@@MAEXABVlocale@2@@Z
	?_Init@?$basic_filebuf@DU?$char_traits@D@std@@@std@@IAEXPAU_iobuf@@W4_Initfl@12@@Z
	?_Endwrite@?$basic_filebuf@DU?$char_traits@D@std@@@std@@IAE_NXZ
	?_Initcvt@?$basic_filebuf@DU?$char_traits@D@std@@@std@@IAEXPBV?$codecvt@DDH@2@@Z
	?_Reset_back@?$basic_filebuf@DU?$char_traits@D@std@@@std@@AAEXXZ
	?_Set_back@?$basic_filebuf@DU?$char_traits@D@std@@@std@@AAEXXZ
	??_D?$basic_ifstream@DU?$char_traits@D@std@@@std@@QAEXXZ
	??0?$basic_istringstream@DU?$char_traits@D@std@@V?$allocator@D@2@@std@@QAE@ABV?$basic_string@DU?$char_traits@D@std@@V?$allocator@D@2@@1@H@Z
	??1?$basic_istringstream@DU?$char_traits@D@std@@V?$allocator@D@2@@std@@UAE@XZ
	??0?$basic_stringbuf@DU?$char_traits@D@std@@V?$allocator@D@2@@std@@QAE@ABV?$basic_string@DU?$char_traits@D@std@@V?$allocator@D@2@@1@H@Z
	??1?$basic_stringbuf@DU?$char_traits@D@std@@V?$allocator@D@2@@std@@UAE@XZ
	?overflow@?$basic_stringbuf@DU?$char_traits@D@std@@V?$allocator@D@2@@std@@MAEHH@Z
	?pbackfail@?$basic_stringbuf@DU?$char_traits@D@std@@V?$allocator@D@2@@std@@MAEHH@Z
	?underflow@?$basic_stringbuf@DU?$char_traits@D@std@@V?$allocator@D@2@@std@@MAEHXZ
	?seekoff@?$basic_stringbuf@DU?$char_traits@D@std@@V?$allocator@D@2@@std@@MAE?AV?$fpos@H@2@_JHH@Z
	?seekpos@?$basic_stringbuf@DU?$char_traits@D@std@@V?$allocator@D@2@@std@@MAE?AV?$fpos@H@2@V32@H@Z
	?_Init@?$basic_stringbuf@DU?$char_traits@D@std@@V?$allocator@D@2@@std@@IAEXPBDIH@Z
	?_Tidy@?$basic_stringbuf@DU?$char_traits@D@std@@V?$allocator@D@2@@std@@IAEXXZ
	?_Getstate@?$basic_stringbuf@DU?$char_traits@D@std@@V?$allocator@D@2@@std@@AAEHH@Z
	??_D?$basic_istringstream@DU?$char_traits@D@std@@V?$allocator@D@2@@std@@QAEXXZ
	??$?5DU?$char_traits@D@std@@V?$allocator@D@1@@std@@YAAAV?$basic_istream@DU?$char_traits@D@std@@@0@AAV10@AAV?$basic_string@DU?$char_traits@D@std@@V?$allocator@D@2@@0@@Z
	??$?5DU?$char_traits@D@std@@V?$allocator@D@1@@std@@YAAAV?$basic_istream@DU?$char_traits@D@std@@@0@$$QAV10@AAV?$basic_string@DU?$char_traits@D@std@@V?$allocator@D@2@@0@@Z
	??$?6DU?$char_traits@D@std@@V?$allocator@D@1@@std@@YAAAV?$basic_ostream@DU?$char_traits@D@std@@@0@AAV10@ABV?$basic_string@DU?$char_traits@D@std@@V?$allocator@D@2@@0@@Z
	??$?8DU?$char_traits@D@std@@V?$allocator@D@1@@std@@YA_NABV?$basic_string@DU?$char_traits@D@std@@V?$allocator@D@2@@0@PBD@Z
	??0?$_String_const_iterator@V?$_String_val@U?$_Simple_types@D@std@@@std@@@std@@QAE@PBDPBU_Container_base0@1@@Z
	??D?$_String_const_iterator@V?$_String_val@U?$_Simple_types@D@std@@@std@@@std@@QBEABDXZ
	??0?$fpos@H@std@@QAE@_J@Z
	??0?$fpos@H@std@@QAE@H_J@Z
	?state@?$fpos@H@std@@QBEHXZ
	?seekpos@?$fpos@H@std@@QBE_JXZ
	??B?$fpos@H@std@@QBE_JXZ
	??0_Sentry_base@?$basic_ostream@DU?$char_traits@D@std@@@std@@QAE@AAV12@@Z
	??1_Sentry_base@?$basic_ostream@DU?$char_traits@D@std@@@std@@QAE@XZ
	??0sentry@?$basic_ostream@DU?$char_traits@D@std@@@std@@QAE@AAV12@@Z
	??1sentry@?$basic_ostream@DU?$char_traits@D@std@@@std@@QAE@XZ
	??Bsentry@?$basic_ostream@DU?$char_traits@D@std@@@std@@QBE_NXZ
	??0?$_String_iterator@V?$_String_val@U?$_Simple_types@D@std@@@std@@@std@@QAE@PADPBU_Container_base0@1@@Z
	??D?$_String_iterator@V?$_String_val@U?$_Simple_types@D@std@@@std@@@std@@QBEAADXZ
	??$use_facet@V?$codecvt@DDH@std@@@std@@YAABV?$codecvt@DDH@0@ABVlocale@0@@Z
	??$construct@PADAAPAD@?$_Wrap_alloc@V?$allocator@D@std@@@std@@QAEXPAPADAAPAD@Z
	??$destroy@PAD@?$_Wrap_alloc@V?$allocator@D@std@@@std@@QAEXPAPAD@Z
	??$addressof@D@std@@YAPADAAD@Z
	??$_Allocate@D@std@@YAPADIPAD@Z
	??$move@AAV?$basic_istream@DU?$char_traits@D@std@@@std@@@std@@YA$$QAV?$basic_istream@DU?$char_traits@D@std@@@0@AAV10@@Z
	??$forward@AAPAD@std@@YAAAPADAAPAD@Z
	??$construct@PADAAPAD@?$allocator_traits@V?$allocator@D@std@@@std@@SAXAAV?$allocator@D@1@PAPADAAPAD@Z
	??$destroy@PAD@?$allocator_traits@V?$allocator@D@std@@@std@@SAXAAV?$allocator@D@1@PAPAD@Z
	??$construct@PADAAPAD@?$allocator@D@std@@QAEXPAPADAAPAD@Z
	??$destroy@PAD@?$allocator@D@std@@QAEXPAPAD@Z
	?Transform@EdbTrack2D@@W3AEXPBVEdbAffine2D@@@Z
	?Test@EdbTrack2D@@W3BEXXZ
	?Print@EdbTrack2D@@W3BEXPBD@Z
	?IsA@EdbTrack2D@@W3BEPAVTClass@@XZ
	?ShowMembers@EdbTrack2D@@W3AEXAAVTMemberInspector@@@Z
	?Streamer@EdbTrack2D@@W3AEXAAVTBuffer@@@Z
	?IsA@EdbSegP@@WM@BEPAVTClass@@XZ
	?ShowMembers@EdbSegP@@WM@AEXAAVTMemberInspector@@@Z
	?Streamer@EdbSegP@@WM@AEXAAVTBuffer@@@Z
	?Print@EdbSegP@@WM@BEXPBD@Z
	?Print@EdbSegP@@WBA@BEXPBD@Z
	?IsA@EdbSegP@@WBA@BEPAVTClass@@XZ
	?ShowMembers@EdbSegP@@WBA@AEXAAVTMemberInspector@@@Z
	?Streamer@EdbSegP@@WBA@AEXAAVTBuffer@@@Z
	?IsA@EdbEDATrackSet@@WDA@BEPAVTClass@@XZ
	?ShowMembers@EdbEDATrackSet@@WDA@AEXAAVTMemberInspector@@@Z
	?Streamer@EdbEDATrackSet@@WDA@AEXAAVTBuffer@@@Z
	??_R0?AVexception@std@@@8 	 DATA
	?_Generic_object@?$_Error_objects@H@std@@2V_Generic_error_category@2@A 	 DATA
	?_Iostream_object@?$_Error_objects@H@std@@2V_Iostream_error_category@2@A 	 DATA
	?_System_object@?$_Error_objects@H@std@@2V_System_error_category@2@A 	 DATA
	?id@?$num_put@DV?$back_insert_iterator@V?$basic_string@DU?$char_traits@D@std@@V?$allocator@D@2@@std@@@std@@@std@@2V0locale@2@A 	 DATA
	?id@?$num_put@_WV?$back_insert_iterator@V?$basic_string@_WU?$char_traits@_W@std@@V?$allocator@_W@2@@std@@@std@@@std@@2V0locale@2@A 	 DATA
	??_R0?AVTObject@@@8 	 DATA
	?_Stinit@?1??_Init@?$basic_filebuf@DU?$char_traits@D@std@@@std@@IAEXPAU_iobuf@@W4_Initfl@23@@Z@4HA 	 DATA
	?_Psave@?$_Facetptr@V?$ctype@D@std@@@std@@2PBVfacet@locale@2@B 	 DATA
	??_R0?AVbad_cast@std@@@8 	 DATA
	?_Psave@?$_Facetptr@V?$codecvt@DDH@std@@@std@@2PBVfacet@locale@2@B 	 DATA
	??_R0?AV?$basic_stringbuf@DU?$char_traits@D@std@@V?$allocator@D@2@@std@@@8 	 DATA
	??_R0?AV?$basic_streambuf@DU?$char_traits@D@std@@@std@@@8 	 DATA
	??_R0?AV?$basic_istringstream@DU?$char_traits@D@std@@V?$allocator@D@2@@std@@@8 	 DATA
	??_R0?AV?$basic_istream@DU?$char_traits@D@std@@@std@@@8 	 DATA
	??_R0?AV?$basic_ios@DU?$char_traits@D@std@@@std@@@8 	 DATA
	??_R0?AVios_base@std@@@8 	 DATA
	??_R0?AV?$_Iosb@H@std@@@8 	 DATA
	??_R0?AV?$basic_filebuf@DU?$char_traits@D@std@@@std@@@8 	 DATA
	??_R0?AV?$basic_ifstream@DU?$char_traits@D@std@@@std@@@8 	 DATA
	??_R0?AVerror_category@std@@@8 	 DATA
	??_R0?AV_Generic_error_category@std@@@8 	 DATA
	??_R0?AV_Iostream_error_category@std@@@8 	 DATA
	??_R0?AV_System_error_category@std@@@8 	 DATA
	??_R0?AVTNamed@@@8 	 DATA
	??_R0?AVTCollection@@@8 	 DATA
	??_R0?AVTList@@@8 	 DATA
	??_R0?AVTSeqCollection@@@8 	 DATA
	??_R0?AVTDatime@@@8 	 DATA
	??_R0?AVTGLOverlayElement@@@8 	 DATA
	??_R0?AVTSortedList@@@8 	 DATA
	??_R0?AVEdbPoint@@@8 	 DATA
	??_R0?AVEdbPoint2D@@@8 	 DATA
	??_R0?AVEdbAngle2D@@@8 	 DATA
	??_R0?AVEdbTrack2D@@@8 	 DATA
	??_R0?AVEdbID@@@8 	 DATA
	??_R0?AVEdbSegP@@@8 	 DATA
	??_R0?AVEdbVertexPar@@@8 	 DATA
	??_R0?AVEdbVertexRec@@@8 	 DATA
	??_R0?AVEdbEDAArea@@@8 	 DATA
	??_R0?AVEdbEDAAreaSet@@@8 	 DATA
	??_R0?AVEdbEDAVertexSet@@@8 	 DATA
	??_R0?AVEdbEDAExtentionSet@@@8 	 DATA
	??_R0?AVEdbRunTracking@@@8 	 DATA
	??_R0?AVEdbRunAccess@@@8 	 DATA
	??_R0?AVEdbEDATrackSelection@@@8 	 DATA
	??_R0?AVEdbEDATrackSet@@@8 	 DATA
	??_R0?AVEdbEDAMainTab@@@8 	 DATA
	??_R0?AVEdbEDAVertexTab@@@8 	 DATA
	??_R0?AVEdbEDADecaySearch@@@8 	 DATA
	??_R0?AVEdbEDADecaySearchTab@@@8 	 DATA
	??_R0?AVEdbEDAObject@@@8 	 DATA
	??_R0?AVEdbEDAText@@@8 	 DATA
	??_R0?AVEdbEDAOverlay@@@8 	 DATA
	hypot
	fabsf
	sqrtf
	?fabs@@YAMM@Z
	?sqrt@@YAMM@Z
	??2@YAPAXIPAX@Z
	??3@YAXPAX0@Z
	?length@?$char_traits@D@std@@SAIPBD@Z
	?copy@?$char_traits@D@std@@SAPADPADPBDI@Z
	?move@?$char_traits@D@std@@SAPADPADPBDI@Z
	?assign@?$char_traits@D@std@@SAXAADABD@Z
	?eq_int_type@?$char_traits@D@std@@SA_NABH0@Z
	?eof@?$char_traits@D@std@@SAHXZ
	?_Adopt@_Iterator_base0@std@@QAEXPBX@Z
	??0?$allocator@D@std@@QAE@XZ
	?deallocate@?$allocator@D@std@@QAEXPADI@Z
	?allocate@?$allocator@D@std@@QAEPADI@Z
	?max_size@?$allocator@D@std@@QBEIXZ
	?max_size@?$allocator_traits@V?$allocator@D@std@@@std@@SAIABV?$allocator@D@2@@Z
	??0?$_Wrap_alloc@V?$allocator@D@std@@@std@@QAE@XZ
	?allocate@?$_Wrap_alloc@V?$allocator@D@std@@@std@@QAEPADI@Z
	?deallocate@?$_Wrap_alloc@V?$allocator@D@std@@@std@@QAEXPADI@Z
	?max_size@?$_Wrap_alloc@V?$allocator@D@std@@@std@@QBEIXZ
	??0?$_String_val@U?$_Simple_types@D@std@@@std@@QAE@XZ
	?_Myptr@?$_String_val@U?$_Simple_types@D@std@@@std@@QAEPADXZ
	?_Myptr@?$_String_val@U?$_Simple_types@D@std@@@std@@QBEPBDXZ
	??0?$_String_alloc@$0A@U?$_String_base_types@DV?$allocator@D@std@@@std@@@std@@QAE@ABV?$allocator@D@1@@Z
	?_Getal@?$_String_alloc@$0A@U?$_String_base_types@DV?$allocator@D@std@@@std@@@std@@QBE?AU?$_Wrap_alloc@V?$allocator@D@std@@@2@XZ
	??0?$basic_string@DU?$char_traits@D@std@@V?$allocator@D@2@@std@@QAE@PBD@Z
	??1?$basic_string@DU?$char_traits@D@std@@V?$allocator@D@2@@std@@QAE@XZ
	?assign@?$basic_string@DU?$char_traits@D@std@@V?$allocator@D@2@@std@@QAEAAV12@ABV12@II@Z
	?assign@?$basic_string@DU?$char_traits@D@std@@V?$allocator@D@2@@std@@QAEAAV12@PBDI@Z
	?assign@?$basic_string@DU?$char_traits@D@std@@V?$allocator@D@2@@std@@QAEAAV12@PBD@Z
	?erase@?$basic_string@DU?$char_traits@D@std@@V?$allocator@D@2@@std@@QAEAAV12@I@Z
	?erase@?$basic_string@DU?$char_traits@D@std@@V?$allocator@D@2@@std@@QAEAAV12@II@Z
	?size@?$basic_string@DU?$char_traits@D@std@@V?$allocator@D@2@@std@@QBEIXZ
	?max_size@?$basic_string@DU?$char_traits@D@std@@V?$allocator@D@2@@std@@QBEIXZ
	?_Copy@?$basic_string@DU?$char_traits@D@std@@V?$allocator@D@2@@std@@QAEXII@Z
	?_Eos@?$basic_string@DU?$char_traits@D@std@@V?$allocator@D@2@@std@@QAEXI@Z
	?_Grow@?$basic_string@DU?$char_traits@D@std@@V?$allocator@D@2@@std@@QAE_NI_N@Z
	?_Inside@?$basic_string@DU?$char_traits@D@std@@V?$allocator@D@2@@std@@QAE_NPBD@Z
	?_Tidy@?$basic_string@DU?$char_traits@D@std@@V?$allocator@D@2@@std@@QAEX_NI@Z
	?_Xlen@?$basic_string@DU?$char_traits@D@std@@V?$allocator@D@2@@std@@QBEXXZ
	?_Xran@?$basic_string@DU?$char_traits@D@std@@V?$allocator@D@2@@std@@QBEXXZ
	?generic_category@std@@YAABVerror_category@1@XZ
	?system_category@std@@YAABVerror_category@1@XZ
	??0error_category@std@@QAE@XZ
	??1error_category@std@@UAE@XZ
	?default_error_condition@error_category@std@@UBE?AVerror_condition@2@H@Z
	?equivalent@error_category@std@@UBE_NHABVerror_condition@2@@Z
	?equivalent@error_category@std@@UBE_NABVerror_code@2@H@Z
	??8error_category@std@@QBE_NABV01@@Z
	?value@error_code@std@@QBEHXZ
	?category@error_code@std@@QBEABVerror_category@2@XZ
	??0error_condition@std@@QAE@HABVerror_category@1@@Z
	?value@error_condition@std@@QBEHXZ
	?category@error_condition@std@@QBEABVerror_category@2@XZ
	??8error_condition@std@@QBE_NABV01@@Z
	??0_Generic_error_category@std@@QAE@XZ
	?name@_Generic_error_category@std@@UBEPBDXZ
	?message@_Generic_error_category@std@@UBE?AV?$basic_string@DU?$char_traits@D@std@@V?$allocator@D@2@@2@H@Z
	??1_Generic_error_category@std@@UAE@XZ
	??0_Iostream_error_category@std@@QAE@XZ
	?name@_Iostream_error_category@std@@UBEPBDXZ
	?message@_Iostream_error_category@std@@UBE?AV?$basic_string@DU?$char_traits@D@std@@V?$allocator@D@2@@2@H@Z
	??1_Iostream_error_category@std@@UAE@XZ
	??0_System_error_category@std@@QAE@XZ
	?name@_System_error_category@std@@UBEPBDXZ
	?message@_System_error_category@std@@UBE?AV?$basic_string@DU?$char_traits@D@std@@V?$allocator@D@2@@2@H@Z
	?default_error_condition@_System_error_category@std@@UBE?AVerror_condition@2@H@Z
	??1_System_error_category@std@@UAE@XZ
	?Clear@TObject@@UAEXPBD@Z
	?GetOption@TObject@@UBEPBDXZ
	?IsSortable@TObject@@UBE_NXZ
	??2TObject@@SAPAXI@Z
	?Abs@TMath@@YAHH@Z
	?IsLong@TString@@ABE_NXZ
	?GetShortSize@TString@@ABEHXZ
	?GetLongSize@TString@@ABEHXZ
	?GetLongPointer@TString@@ABEPBDXZ
	?GetShortPointer@TString@@ABEPBDXZ
	?GetPointer@TString@@ABEPBDXZ
	??BTString@@QBEPBDXZ
	?Data@TString@@QBEPBDXZ
	?Index@TString@@QBEHPBDHW4ECaseCompare@1@@Z
	?Length@TString@@QBEHXZ
	?Remove@TString@@QAEAAV1@HH@Z
	?ReplaceAll@TString@@QAEAAV1@PBD0@Z
	??1TNamed@@UAE@XZ
	?GetName@TNamed@@UBEPBDXZ
	?GetTitle@TNamed@@UBEPBDXZ
	?Hash@TNamed@@UBEKXZ
	?IsSortable@TNamed@@UBE_NXZ
	?IsA@TNamed@@UBEPAVTClass@@XZ
	??0TCollection@@IAE@XZ
	??1TCollection@@UAE@XZ
	?GetEntries@TCollection@@UBEHXZ
	?GetSize@TCollection@@UBEHXZ
	?Hash@TCollection@@UBEKXZ
	?IsEmpty@TCollection@@UBE_NXZ
	?IsFolder@TCollection@@UBE_NXZ
	?IsSortable@TCollection@@UBE_NXZ
	?MakeReverseIterator@TCollection@@UBEPAVTIterator@@XZ
	?IsA@TCollection@@UBEPAVTClass@@XZ
	??0TSeqCollection@@IAE@XZ
	?Changed@TSeqCollection@@MAEXXZ
	??1TSeqCollection@@UAE@XZ
	?Add@TSeqCollection@@UAEXPAVTObject@@@Z
	?RemoveFirst@TSeqCollection@@UAEXXZ
	?RemoveLast@TSeqCollection@@UAEXXZ
	?RemoveAt@TSeqCollection@@UAEPAVTObject@@H@Z
	?RemoveAfter@TSeqCollection@@UAEXPAVTObject@@@Z
	?RemoveBefore@TSeqCollection@@UAEXPAVTObject@@@Z
	?IsSorted@TSeqCollection@@UBE_NXZ
	?IsA@TSeqCollection@@UBEPAVTClass@@XZ
	??0TList@@QAE@XZ
	?Add@TList@@UAEXPAVTObject@@@Z
	?Add@TList@@UAEXPAVTObject@@PBD@Z
	?FirstLink@TList@@UBEPAVTObjLink@@XZ
	?LastLink@TList@@UBEPAVTObjLink@@XZ
	?IsA@TList@@UBEPAVTClass@@XZ
	??0TDatime@@QAE@I_N@Z
	??1TDatime@@UAE@XZ
	?IsA@TDatime@@UBEPAVTClass@@XZ
	?GetSenderClassName@TQObject@@MBEPBDXZ
	?Connected@TQObject@@UAEXPBD@Z
	?Disconnected@TQObject@@UAEXPBD@Z
	?Destroyed@TQObject@@UAEXXZ
	?ChangedBy@TQObject@@UAEXPBD@Z
	?Message@TQObject@@UAEXPBD@Z
	?GetEntriesFast@TObjArray@@QBEHXZ
	??0_Ignore@std@@QAE@XZ
	?Hash@TGObject@@UBEKXZ
	?MapWindow@TGWindow@@UAEXXZ
	?MapRaised@TGWindow@@UAEXXZ
	?UnmapWindow@TGWindow@@UAEXXZ
	?DestroyWindow@TGWindow@@UAEXXZ
	?DestroySubwindows@TGWindow@@UAEXXZ
	?RaiseWindow@TGWindow@@UAEXXZ
	?LowerWindow@TGWindow@@UAEXXZ
	?IconifyWindow@TGWindow@@UAEXXZ
	?RequestFocus@TGWindow@@UAEXXZ
	?SetBackgroundPixmap@TGWindow@@UAEXK@Z
	?HandleExpose@TGWindow@@UAE_NPAUEvent_t@@@Z
	?HandleTimer@TGWindow@@UAE_NPAVTTimer@@@Z
	?HandleIdleEvent@TGWindow@@UAE_NPAVTGIdleHandler@@@Z
	?GetEditDisabled@TGWindow@@UBEIXZ
	?SetName@TGWindow@@UAEXPBD@Z
	??0TGDimension@@QAE@II@Z
	??0TGDimension@@QAE@ABV0@@Z
	??1TGDimension@@UAE@XZ
	?IsA@TGDimension@@UBEPAVTClass@@XZ
	??0TRefCnt@@QAE@H@Z
	??1TRefCnt@@UAE@XZ
	?SetRefCount@TRefCnt@@QAEXI@Z
	??0TGLayoutHints@@QAE@KHHHH@Z
	?SetLayoutHints@TGLayoutHints@@UAEXK@Z
	?SetPadTop@TGLayoutHints@@UAEXH@Z
	?SetPadBottom@TGLayoutHints@@UAEXH@Z
	?SetPadLeft@TGLayoutHints@@UAEXH@Z
	?SetPadRight@TGLayoutHints@@UAEXH@Z
	?ls@TGLayoutHints@@UBEXPBD@Z
	?IsA@TGLayoutHints@@UBEPAVTClass@@XZ
	?GetSender@TGFrame@@MAEPAXXZ
	?ReallyDelete@TGFrame@@UAEXXZ
	?HandleSelectionClear@TGFrame@@UAE_NPAUEvent_t@@@Z
	?HandleColormapChange@TGFrame@@UAE_NPAUEvent_t@@@Z
	?ProcessedConfigure@TGFrame@@UAEXPAUEvent_t@@@Z
	?ProcessedEvent@TGFrame@@UAEXPAUEvent_t@@@Z
	?GetBackground@TGFrame@@UBEKXZ
	?SetForegroundColor@TGFrame@@UAEXK@Z
	?GetOptions@TGFrame@@UBEIXZ
	?ReparentWindow@TGFrame@@UAEXPBVTGWindow@@HH@Z
	?MapWindow@TGFrame@@UAEXXZ
	?MapRaised@TGFrame@@UAEXXZ
	?UnmapWindow@TGFrame@@UAEXXZ
	?DrawCopy@TGFrame@@UAEXKHH@Z
	?Activate@TGFrame@@UAEX_N@Z
	?IsActive@TGFrame@@UBE_NXZ
	?SetX@TGFrame@@UAEXH@Z
	?SetY@TGFrame@@UAEXH@Z
	?SetWidth@TGFrame@@UAEXI@Z
	?SetHeight@TGFrame@@UAEXI@Z
	?SetMinWidth@TGFrame@@UAEXI@Z
	?SetMinHeight@TGFrame@@UAEXI@Z
	?SetMaxWidth@TGFrame@@UAEXI@Z
	?SetMaxHeight@TGFrame@@UAEXI@Z
	?SetSize@TGFrame@@UAEXABVTGDimension@@@Z
	?Delete@TGFrame@@UAEXPBD@Z
	?DrawClone@TGFrame@@UBEPAVTObject@@PBD@Z
	?DrawClass@TGFrame@@UBEXXZ
	?Dump@TGFrame@@UBEXXZ
	?Inspect@TGFrame@@UBEXXZ
	?SetDrawOption@TGFrame@@UAEXPBD@Z
	?GetDNDData@TGFrame@@UAEPAVTDNDData@@K@Z
	?HandleDNDDrop@TGFrame@@UAE_NPAVTDNDData@@@Z
	?HandleDNDPosition@TGFrame@@UAEKHHKHH@Z
	?HandleDNDEnter@TGFrame@@UAEKPAK@Z
	?HandleDNDLeave@TGFrame@@UAE_NXZ
	?HandleDNDFinished@TGFrame@@UAE_NXZ
	?GetList@TGCompositeFrame@@UBEPAVTList@@XZ
	?GetDefaultWidth@TGCompositeFrame@@UBEIXZ
	?GetDefaultHeight@TGCompositeFrame@@UBEIXZ
	?GetDefaultSize@TGCompositeFrame@@UBE?AVTGDimension@@XZ
	?HandleDoubleClick@TGCompositeFrame@@UAE_NPAUEvent_t@@@Z
	?HandleCrossing@TGCompositeFrame@@UAE_NPAUEvent_t@@@Z
	?HandleFocusChange@TGCompositeFrame@@UAE_NPAUEvent_t@@@Z
	?GetLayoutManager@TGCompositeFrame@@UBEPAVTGLayoutManager@@XZ
	?IsComposite@TGCompositeFrame@@UBE_NXZ
	?IsLayoutBroken@TGCompositeFrame@@UBE_NXZ
	?MustCleanup@TGCompositeFrame@@UBEHXZ
	?SetMapSubwindows@TGCompositeFrame@@UAEX_N@Z
	?IsMapSubwindows@TGCompositeFrame@@UBE_NXZ
	?GetIconName@TGMainFrame@@UBEPBDXZ
	??1TGTransientFrame@@UAE@XZ
	?_Nextnode@?$_List_val@U?$_List_simple_types@PAVTEveElement@@@std@@@std@@SAAAPAU?$_List_node@PAVTEveElement@@PAX@2@PAU32@@Z
	?_Myval@?$_List_val@U?$_List_simple_types@PAVTEveElement@@@std@@@std@@SAAAPAVTEveElement@@PAU?$_List_node@PAVTEveElement@@PAX@2@@Z
	?begin@?$list@PAVTEveElement@@V?$allocator@PAVTEveElement@@@std@@@std@@QAE?AV?$_List_iterator@V?$_List_val@U?$_List_simple_types@PAVTEveElement@@@std@@@std@@@2@XZ
	?BeginChildren@TEveElement@@QAE?AV?$_List_iterator@V?$_List_val@U?$_List_simple_types@PAVTEveElement@@@std@@@std@@@std@@XZ
	?NumChildren@TEveElement@@QBEHXZ
	?GetUserData@TEveElement@@QBEPAXXZ
	??0?$_List_unchecked_const_iterator@V?$_List_val@U?$_List_simple_types@PAVTEveElement@@@std@@@std@@U_Iterator_base0@2@@std@@QAE@PAU?$_List_node@PAVTEveElement@@PAX@1@PBV?$_List_val@U?$_List_simple_types@PAVTEveElement@@@std@@@1@@Z
	??0?$_List_const_iterator@V?$_List_val@U?$_List_simple_types@PAVTEveElement@@@std@@@std@@@std@@QAE@PAU?$_List_node@PAVTEveElement@@PAX@1@PBV?$_List_val@U?$_List_simple_types@PAVTEveElement@@@std@@@1@@Z
	??D?$_List_const_iterator@V?$_List_val@U?$_List_simple_types@PAVTEveElement@@@std@@@std@@@std@@QBEABQAVTEveElement@@XZ
	??E?$_List_const_iterator@V?$_List_val@U?$_List_simple_types@PAVTEveElement@@@std@@@std@@@std@@QAEAAV01@XZ
	??0?$_List_iterator@V?$_List_val@U?$_List_simple_types@PAVTEveElement@@@std@@@std@@@std@@QAE@PAU?$_List_node@PAVTEveElement@@PAX@1@PBV?$_List_val@U?$_List_simple_types@PAVTEveElement@@@std@@@1@@Z
	??D?$_List_iterator@V?$_List_val@U?$_List_simple_types@PAVTEveElement@@@std@@@std@@@std@@QBEAAPAVTEveElement@@XZ
	??E?$_List_iterator@V?$_List_val@U?$_List_simple_types@PAVTEveElement@@@std@@@std@@@std@@QAEAAV01@XZ
	??E?$_List_iterator@V?$_List_val@U?$_List_simple_types@PAVTEveElement@@@std@@@std@@@std@@QAE?AV01@H@Z
	?GetCurrentEvent@TEveManager@@QBEPAVTEveEventManager@@XZ
	?Log@TMath@@YANN@Z
	?GET_MSG@@YAHJ@Z
	?GET_SUBMSG@@YAHJ@Z
	?X@TVector3@@QBENXZ
	?Y@TVector3@@QBENXZ
	?SetXYZ@TVector3@@QAEXNNN@Z
	??0TGFileInfo@@QAE@XZ
	??0TSortedList@@QAE@_N@Z
	?IsSorted@TSortedList@@UBE_NXZ
	?AddFirst@TSortedList@@UAEXPAVTObject@@@Z
	?AddFirst@TSortedList@@UAEXPAVTObject@@PBD@Z
	?AddLast@TSortedList@@UAEXPAVTObject@@@Z
	?AddLast@TSortedList@@UAEXPAVTObject@@PBD@Z
	?AddAt@TSortedList@@UAEXPAVTObject@@H@Z
	?AddAfter@TSortedList@@UAEXPBVTObject@@PAV2@@Z
	?AddAfter@TSortedList@@UAEXPAVTObjLink@@PAVTObject@@@Z
	?AddBefore@TSortedList@@UAEXPBVTObject@@PAV2@@Z
	?AddBefore@TSortedList@@UAEXPAVTObjLink@@PAVTObject@@@Z
	?Sort@TSortedList@@UAEX_N@Z
	?IsA@TSortedList@@UBEPAVTClass@@XZ
	??1TSortedList@@UAE@XZ
	??1EdbPoint@@UAE@XZ
	?Transform@EdbPoint@@UAEXPBVEdbAffine2D@@@Z
	?Transform@EdbPoint@@UAEXPBVEdbAffine3D@@@Z
	?Test@EdbPoint@@UBEXXZ
	?IsA@EdbPoint@@UBEPAVTClass@@XZ
	??0EdbPoint@@QAE@XZ
	??1EdbAngle2D@@UAE@XZ
	?Test@EdbAngle2D@@UBEXXZ
	?IsA@EdbAngle2D@@UBEPAVTClass@@XZ
	??0EdbAngle2D@@QAE@XZ
	??1EdbPoint2D@@UAE@XZ
	?Z@EdbPoint2D@@UBEMXZ
	?SetZ@EdbPoint2D@@UAEXM@Z
	?Test@EdbPoint2D@@UBEXXZ
	?TestPoint2D@EdbPoint2D@@UBEXXZ
	?IsA@EdbPoint2D@@UBEPAVTClass@@XZ
	??0EdbPoint2D@@QAE@XZ
	??1EdbTrack2D@@UAE@XZ
	?Test@EdbTrack2D@@UBEXXZ
	?IsA@EdbTrack2D@@UBEPAVTClass@@XZ
	??0EdbTrack2D@@QAE@XZ
	??0EdbID@@QAE@HHHH@Z
	??1EdbID@@UAE@XZ
	?Set@EdbID@@QAEXHHHH@Z
	?IsA@EdbID@@UBEPAVTClass@@XZ
	??0EdbSegP@@QAE@XZ
	??0EdbSegP@@QAE@ABV0@@Z
	??1EdbSegP@@UAE@XZ
	?Set@EdbSegP@@QAEXHMMMMMH@Z
	?SetErrors@EdbSegP@@QAEXXZ
	?COV@EdbSegP@@QBEAAV?$TMatrixT@N@@XZ
	?SetZ@EdbSegP@@UAEXM@Z
	?SetID@EdbSegP@@QAEXH@Z
	?SetPID@EdbSegP@@QAEXH@Z
	?SetFlag@EdbSegP@@QAEXH@Z
	?SetTrack@EdbSegP@@QAEXH@Z
	?SetW@EdbSegP@@QAEXM@Z
	?SetP@EdbSegP@@QAEXM@Z
	?SetSide@EdbSegP@@QAEXH@Z
	?SetPlate@EdbSegP@@QAEXH@Z
	?ID@EdbSegP@@QBEHXZ
	?PID@EdbSegP@@QBEHXZ
	?Track@EdbSegP@@QBEHXZ
	?W@EdbSegP@@QBEMXZ
	?P@EdbSegP@@QBEMXZ
	?Z@EdbSegP@@UBEMXZ
	?Plate@EdbSegP@@QBEHXZ
	?SX@EdbSegP@@QBEMXZ
	?Side@EdbSegP@@QBEHXZ
	?X@EdbSegP@@UBEMXZ
	?Y@EdbSegP@@UBEMXZ
	?TX@EdbSegP@@UBEMXZ
	?TY@EdbSegP@@UBEMXZ
	?SetX@EdbSegP@@UAEXM@Z
	?SetY@EdbSegP@@UAEXM@Z
	?SetTX@EdbSegP@@UAEXM@Z
	?SetTY@EdbSegP@@UAEXM@Z
	?IsSortable@EdbSegP@@UBE_NXZ
	?IsA@EdbSegP@@UBEPAVTClass@@XZ
	?GetSegment@EdbSegmentsBox@@QBEPAVEdbSegP@@H@Z
	??0EdbTrackP@@QAE@AAV0@@Z
	?SetCounters@EdbTrackP@@QAEXXZ
	?SetN0@EdbTrackP@@QAEXXZ
	?SetNpl@EdbTrackP@@QAEXXZ
	?Npl@EdbTrackP@@QBEHXZ
	?N@EdbTrackP@@QBEHXZ
	?GetSegmentFirst@EdbTrackP@@QBEPAVEdbSegP@@XZ
	?GetSegmentLast@EdbTrackP@@QBEPAVEdbSegP@@XZ
	?GetSegment@EdbTrackP@@QBEPAVEdbSegP@@H@Z
	?AddSegment@EdbTrackP@@QAEXPAVEdbSegP@@@Z
	?RemoveSegment@EdbTrackP@@QAEXPAVEdbSegP@@@Z
	?IsA@EdbTrackP@@UBEPAVTClass@@XZ
	?SetPID@EdbPattern@@QAEXH@Z
	?Plate@EdbPattern@@QBEHXZ
	?Npatterns@EdbPatternsVolume@@QBEHXZ
	?SetZpos@EdbVTA@@QAEXH@Z
	?SetFlag@EdbVTA@@QAEXH@Z
	?SetImp@EdbVTA@@QAEXM@Z
	?ID@EdbVertex@@QBEHXZ
	?X@EdbVertex@@QBEMXZ
	?Y@EdbVertex@@QBEMXZ
	?Z@EdbVertex@@QBEMXZ
	?SetID@EdbVertex@@QAEXH@Z
	?SetXYZ@EdbVertex@@QAEXMMM@Z
	?SetFlag@EdbVertex@@QAEXH@Z
	??1EdbScanCond@@UAE@XZ
	?Ntracks@EdbPVRec@@QBEHXZ
	?GetTrack@EdbPVRec@@QBEPAVEdbTrackP@@H@Z
	?AddTrack@EdbPVRec@@QAEXPAVEdbTrackP@@@Z
	?AddVertex@EdbPVRec@@QAEXPAVEdbVertex@@@Z
	?Nvtx@EdbPVRec@@QBEHXZ
	?GetVertex@EdbPVRec@@QAEPAVEdbVertex@@AAH@Z
	?IsVertex@EdbEDAUtil@@YAHPAVTObject@@@Z
	?IsVertex@EdbEDAUtil@@YAHPAVTEveElement@@@Z
	?IsTrack@EdbEDAUtil@@YAHPAVTObject@@@Z
	?IsTrack@EdbEDAUtil@@YAHPAVTEveElement@@@Z
	?IsSegment@EdbEDAUtil@@YAHPAVTObject@@@Z
	?IsSegment@EdbEDAUtil@@YAHPAVTEveElement@@@Z
	?IsIncludeCouples@EdbEDAUtil@@YAHPAVEdbPattern@@@Z
	?GetTrackElement@EdbEDAUtil@@YAPAVTEveCompound@@PAVEdbTrackP@@@Z
	?GetVertexElement@EdbEDAUtil@@YAPAVTEvePointSet@@PAVEdbVertex@@@Z
	?CalcIP@EdbEDAUtil@@YANPAVEdbSegP@@NNN@Z
	?CalcIP@EdbEDAUtil@@YANPAVEdbSegP@@PAVEdbVertex@@@Z
	?CalcDmin@EdbEDAUtil@@YANPAVEdbSegP@@0PAN@Z
	?CalcMinimumKinkAngle@EdbEDAUtil@@YANVTVector3@@00@Z
	?CalcMinimumKinkAngle@EdbEDAUtil@@YANPAVEdbVertex@@PAVEdbSegP@@H@Z
	?CalcMinimumKinkAngle@EdbEDAUtil@@YANPAVEdbSegP@@0H@Z
	?CalcPtmin@EdbEDAUtil@@YANVTVector3@@00@Z
	?CalcPtmin@EdbEDAUtil@@YANPAVEdbVertex@@PAVEdbSegP@@H@Z
	?CalcPtmin@EdbEDAUtil@@YANPAVEdbSegP@@0H@Z
	?CalcKinkAngle@EdbEDAUtil@@YANPAVEdbSegP@@0@Z
	?CalcPt@EdbEDAUtil@@YANPAVEdbSegP@@0@Z
	?CalcEMCSelectron@EdbEDAUtil@@YANPAVEdbTrackP@@@Z
	?CalcVertex@EdbEDAUtil@@YAPAVEdbVertex@@PAVTObjArray@@@Z
	?CalcP@EdbEDAUtil@@YAPAVEdbMomentumEstimator@@PAVEdbTrackP@@AAN11_N@Z
	?CalcPPartial@EdbEDAUtil@@YAXPAVEdbTrackP@@PAVEdbSegP@@1AAN22_N@Z
	?CalcDistance@EdbEDAUtil@@YANPAVEdbSegP@@0N@Z
	?CalcDTTransLongi@EdbEDAUtil@@YAXPAVEdbSegP@@0PAN1@Z
	?CalcDTTransLongi@EdbEDAUtil@@YAXNNNNPAN0@Z
	?CalcDXTransLongi@EdbEDAUtil@@YAXPAVEdbSegP@@0PAN1@Z
	?DTRMS@EdbEDAUtil@@YANPAVEdbTrackP@@@Z
	?DTRMSelectron@EdbEDAUtil@@YANPAVEdbTrackP@@@Z
	?DTRMS1Kink@EdbEDAUtil@@YANPAVEdbTrackP@@PAH@Z
	?DTRMSTL@EdbEDAUtil@@YANPAVEdbTrackP@@PAN11PAH@Z
	?DTRMSTL1Kink@EdbEDAUtil@@YANPAVEdbTrackP@@PAN11PAH@Z
	?DTRMSTLGiven1Kink@EdbEDAUtil@@YANPAVEdbTrackP@@HPAN11PAH@Z
	?CleanTrack@EdbEDAUtil@@YAPAVEdbTrackP@@PAV2@@Z
	?ErrorMessage@EdbEDAUtil@@YAXPAD0@Z
	?ErrorMessage@EdbEDAUtil@@YAXPAD@Z
	?AskYesNo@EdbEDAUtil@@YA_NPAD@Z
	?InputNumberInteger@EdbEDAUtil@@YAHPADH@Z
	?InputNumberReal@EdbEDAUtil@@YANPADNW4EStyle@TGNumberFormat@@@Z
	?InputID@EdbEDAUtil@@YAHPADAAVEdbID@@@Z
	?FindProcDirClient@EdbEDAUtil@@YAPADXZ
	?FindBrickIDFromPath@EdbEDAUtil@@YAHXZ
	?ReadFeedbackPVR@EdbEDAUtil@@YAPAVEdbPVRec@@PAD@Z
	?ReadMxxPVR@EdbEDAUtil@@YAPAVEdbPVRec@@PAD@Z
	?WritePVRMxx@EdbEDAUtil@@YAXPAVEdbPVRec@@PAD@Z
	?WriteTracksMxx@EdbEDAUtil@@YAXPAVTObjArray@@PAD@Z
	?MakePVRFromTracksArray@EdbEDAUtil@@YAXPAVTObjArray@@AAVEdbPVRec@@@Z
	?FillTracksFromPatterns@EdbEDAUtil@@YAXPAVEdbPVRec@@@Z
	??0EdbIDDialog@@QAE@PADAAVEdbID@@PAH@Z
	??1EdbIDDialog@@UAE@XZ
	?ProcessMessage@EdbIDDialog@@UAE_NJJJ@Z
	?CloseWindow@EdbIDDialog@@UAEXXZ
	?IsA@EdbIDDialog@@UBEPAVTClass@@XZ
	??$?6U?$char_traits@D@std@@@std@@YAAAV?$basic_ostream@DU?$char_traits@D@std@@@0@AAV10@PBD@Z
	??$endl@DU?$char_traits@D@std@@@std@@YAAAV?$basic_ostream@DU?$char_traits@D@std@@@0@AAV10@@Z
	??0?$allocator@J@std@@QAE@XZ
	?deallocate@?$allocator@J@std@@QAEXPAJI@Z
	?allocate@?$allocator@J@std@@QAEPAJI@Z
	?construct@?$allocator@J@std@@QAEXPAJABJ@Z
	?max_size@?$allocator@J@std@@QBEIXZ
	?max_size@?$allocator_traits@V?$allocator@J@std@@@std@@SAIABV?$allocator@J@2@@Z
	??0?$_Wrap_alloc@V?$allocator@J@std@@@std@@QAE@XZ
	?allocate@?$_Wrap_alloc@V?$allocator@J@std@@@std@@QAEPAJI@Z
	?deallocate@?$_Wrap_alloc@V?$allocator@J@std@@@std@@QAEXPAJI@Z
	?max_size@?$_Wrap_alloc@V?$allocator@J@std@@@std@@QBEIXZ
	??0?$_Vector_val@U?$_Simple_types@J@std@@@std@@QAE@XZ
	??0?$_Vector_alloc@$0A@U?$_Vec_base_types@JV?$allocator@J@std@@@std@@@std@@QAE@ABV?$allocator@J@1@@Z
	?_Getal@?$_Vector_alloc@$0A@U?$_Vec_base_types@JV?$allocator@J@std@@@std@@@std@@QBE?AU?$_Wrap_alloc@V?$allocator@J@std@@@2@XZ
	??0?$vector@JV?$allocator@J@std@@@std@@QAE@XZ
	??1?$vector@JV?$allocator@J@std@@@std@@QAE@XZ
	?capacity@?$vector@JV?$allocator@J@std@@@std@@QBEIXZ
	?_Unused_capacity@?$vector@JV?$allocator@J@std@@@std@@QBEIXZ
	?begin@?$vector@JV?$allocator@J@std@@@std@@QAE?AV?$_Vector_iterator@V?$_Vector_val@U?$_Simple_types@J@std@@@std@@@2@XZ
	?end@?$vector@JV?$allocator@J@std@@@std@@QAE?AV?$_Vector_iterator@V?$_Vector_val@U?$_Simple_types@J@std@@@std@@@2@XZ
	?size@?$vector@JV?$allocator@J@std@@@std@@QBEIXZ
	?max_size@?$vector@JV?$allocator@J@std@@@std@@QBEIXZ
	??A?$vector@JV?$allocator@J@std@@@std@@QAEAAJI@Z
	?push_back@?$vector@JV?$allocator@J@std@@@std@@QAEXABJ@Z
	?_Destroy@?$vector@JV?$allocator@J@std@@@std@@IAEXPAJ0@Z
	?_Grow_to@?$vector@JV?$allocator@J@std@@@std@@IBEII@Z
	?_Inside@?$vector@JV?$allocator@J@std@@@std@@IBE_NPBJ@Z
	?_Reallocate@?$vector@JV?$allocator@J@std@@@std@@IAEXI@Z
	?_Reserve@?$vector@JV?$allocator@J@std@@@std@@IAEXI@Z
	?_Tidy@?$vector@JV?$allocator@J@std@@@std@@IAEXXZ
	?_Xlen@?$vector@JV?$allocator@J@std@@@std@@IBEXXZ
	?_Orphan_range@?$vector@JV?$allocator@J@std@@@std@@IBEXPAJ0@Z
	??0?$_Vector_const_iterator@V?$_Vector_val@U?$_Simple_types@J@std@@@std@@@std@@QAE@XZ
	??0?$_Vector_const_iterator@V?$_Vector_val@U?$_Simple_types@J@std@@@std@@@std@@QAE@PAJPBU_Container_base0@1@@Z
	??G?$_Vector_const_iterator@V?$_Vector_val@U?$_Simple_types@J@std@@@std@@@std@@QBEHABV01@@Z
	??8?$_Vector_const_iterator@V?$_Vector_val@U?$_Simple_types@J@std@@@std@@@std@@QBE_NABV01@@Z
	?_Compat@?$_Vector_const_iterator@V?$_Vector_val@U?$_Simple_types@J@std@@@std@@@std@@QBEXABV12@@Z
	??0?$_Vector_iterator@V?$_Vector_val@U?$_Simple_types@J@std@@@std@@@std@@QAE@XZ
	??0?$_Vector_iterator@V?$_Vector_val@U?$_Simple_types@J@std@@@std@@@std@@QAE@PAJPBU_Container_base0@1@@Z
	?_Rechecked@?$_Vector_iterator@V?$_Vector_val@U?$_Simple_types@J@std@@@std@@@std@@QAEAAV12@PAJ@Z
	?_Unchecked@?$_Vector_iterator@V?$_Vector_val@U?$_Simple_types@J@std@@@std@@@std@@QBEPAJXZ
	??G?$_Vector_iterator@V?$_Vector_val@U?$_Simple_types@J@std@@@std@@@std@@QBEHABV?$_Vector_const_iterator@V?$_Vector_val@U?$_Simple_types@J@std@@@std@@@1@@Z
	??$find@V?$_Vector_iterator@V?$_Vector_val@U?$_Simple_types@J@std@@@std@@@std@@H@std@@YA?AV?$_Vector_iterator@V?$_Vector_val@U?$_Simple_types@J@std@@@std@@@0@V10@0ABH@Z
	??$sort@V?$_Vector_iterator@V?$_Vector_val@U?$_Simple_types@J@std@@@std@@@std@@@std@@YAXV?$_Vector_iterator@V?$_Vector_val@U?$_Simple_types@J@std@@@std@@@0@0@Z
	??0_Sentry_base@?$basic_ostream@DU?$char_traits@D@std@@@std@@QAE@AAV12@@Z
	??1_Sentry_base@?$basic_ostream@DU?$char_traits@D@std@@@std@@QAE@XZ
	??0sentry@?$basic_ostream@DU?$char_traits@D@std@@@std@@QAE@AAV12@@Z
	??1sentry@?$basic_ostream@DU?$char_traits@D@std@@@std@@QAE@XZ
	??Bsentry@?$basic_ostream@DU?$char_traits@D@std@@@std@@QBE_NXZ
	??$addressof@$$CBJ@std@@YAPBJABJ@Z
	??$construct@JAAJ@?$_Wrap_alloc@V?$allocator@J@std@@@std@@QAEXPAJAAJ@Z
	??$construct@JABJ@?$_Wrap_alloc@V?$allocator@J@std@@@std@@QAEXPAJABJ@Z
	??$construct@PADAAPAD@?$_Wrap_alloc@V?$allocator@D@std@@@std@@QAEXPAPADAAPAD@Z
	??$destroy@PAD@?$_Wrap_alloc@V?$allocator@D@std@@@std@@QAEXPAPAD@Z
	??$addressof@D@std@@YAPADAAD@Z
	??$_Destroy_range@U?$_Wrap_alloc@V?$allocator@J@std@@@std@@@std@@YAXPAJ0AAU?$_Wrap_alloc@V?$allocator@J@std@@@0@@Z
	??$_Umove@PAJ@?$vector@JV?$allocator@J@std@@@std@@IAEPAJPAJ00@Z
	??$_Allocate@J@std@@YAPAJIPAJ@Z
	??$_Allocate@D@std@@YAPADIPAD@Z
	??$_Unchecked@V?$_Vector_val@U?$_Simple_types@J@std@@@std@@@std@@YAPAJV?$_Vector_iterator@V?$_Vector_val@U?$_Simple_types@J@std@@@std@@@0@@Z
	??$_Find@PAJH@std@@YAPAJPAJ0ABH@Z
	??$_Rechecked@V?$_Vector_val@U?$_Simple_types@J@std@@@std@@@std@@YAAAV?$_Vector_iterator@V?$_Vector_val@U?$_Simple_types@J@std@@@std@@@0@AAV10@PAJ@Z
	??$sort@V?$_Vector_iterator@V?$_Vector_val@U?$_Simple_types@J@std@@@std@@@std@@U?$less@X@2@@std@@YAXV?$_Vector_iterator@V?$_Vector_val@U?$_Simple_types@J@std@@@std@@@0@0U?$less@X@0@@Z
	??$forward@AAJ@std@@YAAAJAAJ@Z
	??$construct@JAAJ@?$allocator_traits@V?$allocator@J@std@@@std@@SAXAAV?$allocator@J@1@PAJAAJ@Z
	??$forward@ABJ@std@@YAABJABJ@Z
	??$construct@JABJ@?$allocator_traits@V?$allocator@J@std@@@std@@SAXAAV?$allocator@J@1@PAJABJ@Z
	??$forward@AAPAD@std@@YAAAPADAAPAD@Z
	??$construct@PADAAPAD@?$allocator_traits@V?$allocator@D@std@@@std@@SAXAAV?$allocator@D@1@PAPADAAPAD@Z
	??$destroy@PAD@?$allocator_traits@V?$allocator@D@std@@@std@@SAXAAV?$allocator@D@1@PAPAD@Z
	??$_Ptr_cat@JJ@std@@YA?AU_Scalar_ptr_iterator_tag@0@PAJ0@Z
	??$_Destroy_range@U?$_Wrap_alloc@V?$allocator@J@std@@@std@@@std@@YAXPAJ0AAU?$_Wrap_alloc@V?$allocator@J@std@@@0@U_Scalar_ptr_iterator_tag@0@@Z
	??$_Uninitialized_move@PAJPAJU?$_Wrap_alloc@V?$allocator@J@std@@@std@@@std@@YAPAJPAJ00AAU?$_Wrap_alloc@V?$allocator@J@std@@@0@@Z
	??$_Find@PAJH@std@@YAPAJPAJ0ABHU?$integral_constant@_N$0A@@0@@Z
	??$_Sort@PAJHU?$less@X@std@@@std@@YAXPAJ0HU?$less@X@0@@Z
	??$construct@JAAJ@?$allocator@J@std@@QAEXPAJAAJ@Z
	??$construct@PADAAPAD@?$allocator@D@std@@QAEXPAPADAAPAD@Z
	??$destroy@PAD@?$allocator@D@std@@QAEXPAPAD@Z
	??$_Unchecked@PAJ@std@@YAPAJPAJ@Z
	??$_Uninit_move@PAJPAJU?$_Wrap_alloc@V?$allocator@J@std@@@std@@@std@@YAPAJPAJ00AAU?$_Wrap_alloc@V?$allocator@J@std@@@0@@Z
	??$_Rechecked@PAJPAJ@std@@YAAAPAJAAPAJPAJ@Z
	??$_Unguarded_partition@PAJU?$less@X@std@@@std@@YA?AU?$pair@PAJPAJ@0@PAJ0U?$less@X@0@@Z
	??$make_heap@PAJU?$less@X@std@@@std@@YAXPAJ0U?$less@X@0@@Z
	??$sort_heap@PAJU?$less@X@std@@@std@@YAXPAJ0U?$less@X@0@@Z
	??$_Insertion_sort@PAJU?$less@X@std@@@std@@YAXPAJ0U?$less@X@0@@Z
	??$_Val_type@PAJ@std@@YAPAJPAJ@Z
	??$_Uninit_move@JJJ@std@@YAPAJPAJ00AAU?$_Wrap_alloc@V?$allocator@J@std@@@0@0U_Scalar_ptr_iterator_tag@0@@Z
	??$_Median@PAJU?$less@X@std@@@std@@YAXPAJ00U?$less@X@0@@Z
	??$?RAAJAAJ@?$less@X@std@@QBE_NAAJ0@Z
	??$iter_swap@PAJPAJ@std@@YAXPAJ0@Z
	??$?0AAPAJAAPAJX@?$pair@PAJPAJ@std@@QAE@AAPAJ0@Z
	??$_Dist_type@PAJ@std@@YAPAHPAJ@Z
	??$_Make_heap@PAJHJU?$less@X@std@@@std@@YAXPAJ0U?$less@X@0@PAH0@Z
	??$_Sort_heap@PAJU?$less@X@std@@@std@@YAXPAJ0U?$less@X@0@@Z
	??$_Insertion_sort1@PAJU?$less@X@std@@J@std@@YAXPAJ0U?$less@X@0@0@Z
	??$_Med3@PAJU?$less@X@std@@@std@@YAXPAJ00U?$less@X@0@@Z
	??$swap@J@std@@YAXAAJ0@Z
	??$forward@AAPAJ@std@@YAAAPAJAAPAJ@Z
	??$_Move@AAJ@std@@YA$$QAJAAJ@Z
	??$_Adjust_heap@PAJHJU?$less@X@std@@@std@@YAXPAJHH$$QAJU?$less@X@0@@Z
	??$_Pop_heap@PAJU?$less@X@std@@@std@@YAXPAJ0U?$less@X@0@@Z
	??$_Move_backward@PAJPAJ@std@@YAPAJPAJ00@Z
	??$_Push_heap@PAJHJU?$less@X@std@@@std@@YAXPAJHH$$QAJU?$less@X@0@@Z
	??$_Pop_heap_0@PAJJU?$less@X@std@@@std@@YAXPAJ0U?$less@X@0@0@Z
	??$_Move_backward@PAJPAJ@std@@YAPAJPAJ00U_Scalar_ptr_iterator_tag@0@@Z
	??$_Pop_heap@PAJHJU?$less@X@std@@@std@@YAXPAJ00$$QAJU?$less@X@0@PAH@Z
	?Transform@EdbTrack2D@@W3AEXPBVEdbAffine2D@@@Z
	?Test@EdbTrack2D@@W3BEXXZ
	?Print@EdbTrack2D@@W3BEXPBD@Z
	?IsA@EdbTrack2D@@W3BEPAVTClass@@XZ
	?ShowMembers@EdbTrack2D@@W3AEXAAVTMemberInspector@@@Z
	?Streamer@EdbTrack2D@@W3AEXAAVTBuffer@@@Z
	?IsA@EdbSegP@@WM@BEPAVTClass@@XZ
	?ShowMembers@EdbSegP@@WM@AEXAAVTMemberInspector@@@Z
	?Streamer@EdbSegP@@WM@AEXAAVTBuffer@@@Z
	?Print@EdbSegP@@WM@BEXPBD@Z
	?Print@EdbSegP@@WBA@BEXPBD@Z
	?IsA@EdbSegP@@WBA@BEPAVTClass@@XZ
	?ShowMembers@EdbSegP@@WBA@AEXAAVTMemberInspector@@@Z
	?Streamer@EdbSegP@@WBA@AEXAAVTBuffer@@@Z
	?IsA@EdbTrackP@@WM@BEPAVTClass@@XZ
	?ShowMembers@EdbTrackP@@WM@AEXAAVTMemberInspector@@@Z
	?Streamer@EdbTrackP@@WM@AEXAAVTBuffer@@@Z
	?IsA@EdbTrackP@@WBA@BEPAVTClass@@XZ
	?ShowMembers@EdbTrackP@@WBA@AEXAAVTMemberInspector@@@Z
	?Streamer@EdbTrackP@@WBA@AEXAAVTBuffer@@@Z
	?IsA@EdbIDDialog@@WDA@BEPAVTClass@@XZ
	?ShowMembers@EdbIDDialog@@WDA@AEXAAVTMemberInspector@@@Z
	?Streamer@EdbIDDialog@@WDA@AEXAAVTBuffer@@@Z
	?_Generic_object@?$_Error_objects@H@std@@2V_Generic_error_category@2@A 	 DATA
	?_Iostream_object@?$_Error_objects@H@std@@2V_Iostream_error_category@2@A 	 DATA
	?_System_object@?$_Error_objects@H@std@@2V_System_error_category@2@A 	 DATA
	?id@?$num_put@DV?$back_insert_iterator@V?$basic_string@DU?$char_traits@D@std@@V?$allocator@D@2@@std@@@std@@@std@@2V0locale@2@A 	 DATA
	?id@?$num_put@_WV?$back_insert_iterator@V?$basic_string@_WU?$char_traits@_W@std@@V?$allocator@_W@2@@std@@@std@@@std@@2V0locale@2@A 	 DATA
	??_R0?AVTObject@@@8 	 DATA
	??_R0?AVerror_category@std@@@8 	 DATA
	??_R0?AV_Generic_error_category@std@@@8 	 DATA
	??_R0?AV_Iostream_error_category@std@@@8 	 DATA
	??_R0?AV_System_error_category@std@@@8 	 DATA
	??_R0?AVTNamed@@@8 	 DATA
	??_R0?AVTCollection@@@8 	 DATA
	??_R0?AVTList@@@8 	 DATA
	??_R0?AVTSeqCollection@@@8 	 DATA
	??_R0?AVTQObject@@@8 	 DATA
	??_R0?AVTDatime@@@8 	 DATA
	??_R0?AVTGWindow@@@8 	 DATA
	??_R0?AVTGObject@@@8 	 DATA
	??_R0?AVTRefCnt@@@8 	 DATA
	??_R0?AVTGDimension@@@8 	 DATA
	??_R0?AVTGLayoutHints@@@8 	 DATA
	??_R0?AVTGCompositeFrame@@@8 	 DATA
	??_R0?AVTGFrame@@@8 	 DATA
	??_R0?AVTGMainFrame@@@8 	 DATA
	??_R0?AVTSortedList@@@8 	 DATA
	??_R0?AVEdbPoint@@@8 	 DATA
	??_R0?AVEdbPoint2D@@@8 	 DATA
	??_R0?AVEdbAngle2D@@@8 	 DATA
	??_R0?AVEdbTrack2D@@@8 	 DATA
	??_R0?AVEdbID@@@8 	 DATA
	??_R0?AVEdbSegP@@@8 	 DATA
	??_R0?AVEdbTrackP@@@8 	 DATA
	??_R0?AVEdbIDDialog@@@8 	 DATA
	??_R0?AVTGTransientFrame@@@8 	 DATA
	hypot
	fabsf
	?fabs@@YAMM@Z
	??2@YAPAXIPAX@Z
	??3@YAXPAX0@Z
	?length@?$char_traits@D@std@@SAIPBD@Z
	?copy@?$char_traits@D@std@@SAPADPADPBDI@Z
	?move@?$char_traits@D@std@@SAPADPADPBDI@Z
	?assign@?$char_traits@D@std@@SAXAADABD@Z
	?_Adopt@_Iterator_base0@std@@QAEXPBX@Z
	??0?$allocator@D@std@@QAE@XZ
	?deallocate@?$allocator@D@std@@QAEXPADI@Z
	?allocate@?$allocator@D@std@@QAEPADI@Z
	?max_size@?$allocator@D@std@@QBEIXZ
	?max_size@?$allocator_traits@V?$allocator@D@std@@@std@@SAIABV?$allocator@D@2@@Z
	??0?$_Wrap_alloc@V?$allocator@D@std@@@std@@QAE@XZ
	?allocate@?$_Wrap_alloc@V?$allocator@D@std@@@std@@QAEPADI@Z
	?deallocate@?$_Wrap_alloc@V?$allocator@D@std@@@std@@QAEXPADI@Z
	?max_size@?$_Wrap_alloc@V?$allocator@D@std@@@std@@QBEIXZ
	??0?$_String_val@U?$_Simple_types@D@std@@@std@@QAE@XZ
	?_Myptr@?$_String_val@U?$_Simple_types@D@std@@@std@@QAEPADXZ
	?_Myptr@?$_String_val@U?$_Simple_types@D@std@@@std@@QBEPBDXZ
	??0?$_String_alloc@$0A@U?$_String_base_types@DV?$allocator@D@std@@@std@@@std@@QAE@ABV?$allocator@D@1@@Z
	?_Getal@?$_String_alloc@$0A@U?$_String_base_types@DV?$allocator@D@std@@@std@@@std@@QBE?AU?$_Wrap_alloc@V?$allocator@D@std@@@2@XZ
	??0?$basic_string@DU?$char_traits@D@std@@V?$allocator@D@2@@std@@QAE@PBD@Z
	??1?$basic_string@DU?$char_traits@D@std@@V?$allocator@D@2@@std@@QAE@XZ
	?assign@?$basic_string@DU?$char_traits@D@std@@V?$allocator@D@2@@std@@QAEAAV12@ABV12@II@Z
	?assign@?$basic_string@DU?$char_traits@D@std@@V?$allocator@D@2@@std@@QAEAAV12@PBDI@Z
	?assign@?$basic_string@DU?$char_traits@D@std@@V?$allocator@D@2@@std@@QAEAAV12@PBD@Z
	?erase@?$basic_string@DU?$char_traits@D@std@@V?$allocator@D@2@@std@@QAEAAV12@I@Z
	?erase@?$basic_string@DU?$char_traits@D@std@@V?$allocator@D@2@@std@@QAEAAV12@II@Z
	?size@?$basic_string@DU?$char_traits@D@std@@V?$allocator@D@2@@std@@QBEIXZ
	?max_size@?$basic_string@DU?$char_traits@D@std@@V?$allocator@D@2@@std@@QBEIXZ
	?_Copy@?$basic_string@DU?$char_traits@D@std@@V?$allocator@D@2@@std@@QAEXII@Z
	?_Eos@?$basic_string@DU?$char_traits@D@std@@V?$allocator@D@2@@std@@QAEXI@Z
	?_Grow@?$basic_string@DU?$char_traits@D@std@@V?$allocator@D@2@@std@@QAE_NI_N@Z
	?_Inside@?$basic_string@DU?$char_traits@D@std@@V?$allocator@D@2@@std@@QAE_NPBD@Z
	?_Tidy@?$basic_string@DU?$char_traits@D@std@@V?$allocator@D@2@@std@@QAEX_NI@Z
	?_Xlen@?$basic_string@DU?$char_traits@D@std@@V?$allocator@D@2@@std@@QBEXXZ
	?_Xran@?$basic_string@DU?$char_traits@D@std@@V?$allocator@D@2@@std@@QBEXXZ
	?generic_category@std@@YAABVerror_category@1@XZ
	?system_category@std@@YAABVerror_category@1@XZ
	??0error_category@std@@QAE@XZ
	??1error_category@std@@UAE@XZ
	?default_error_condition@error_category@std@@UBE?AVerror_condition@2@H@Z
	?equivalent@error_category@std@@UBE_NHABVerror_condition@2@@Z
	?equivalent@error_category@std@@UBE_NABVerror_code@2@H@Z
	??8error_category@std@@QBE_NABV01@@Z
	?value@error_code@std@@QBEHXZ
	?category@error_code@std@@QBEABVerror_category@2@XZ
	??0error_condition@std@@QAE@HABVerror_category@1@@Z
	?value@error_condition@std@@QBEHXZ
	?category@error_condition@std@@QBEABVerror_category@2@XZ
	??8error_condition@std@@QBE_NABV01@@Z
	??0_Generic_error_category@std@@QAE@XZ
	?name@_Generic_error_category@std@@UBEPBDXZ
	?message@_Generic_error_category@std@@UBE?AV?$basic_string@DU?$char_traits@D@std@@V?$allocator@D@2@@2@H@Z
	??1_Generic_error_category@std@@UAE@XZ
	??0_Iostream_error_category@std@@QAE@XZ
	?name@_Iostream_error_category@std@@UBEPBDXZ
	?message@_Iostream_error_category@std@@UBE?AV?$basic_string@DU?$char_traits@D@std@@V?$allocator@D@2@@2@H@Z
	??1_Iostream_error_category@std@@UAE@XZ
	??0_System_error_category@std@@QAE@XZ
	?name@_System_error_category@std@@UBEPBDXZ
	?message@_System_error_category@std@@UBE?AV?$basic_string@DU?$char_traits@D@std@@V?$allocator@D@2@@2@H@Z
	?default_error_condition@_System_error_category@std@@UBE?AVerror_condition@2@H@Z
	??1_System_error_category@std@@UAE@XZ
	?Clear@TObject@@UAEXPBD@Z
	?GetOption@TObject@@UBEPBDXZ
	?IsSortable@TObject@@UBE_NXZ
	??2TObject@@SAPAXI@Z
	?Abs@TMath@@YAHH@Z
	?IsLong@TString@@ABE_NXZ
	?GetLongPointer@TString@@ABEPBDXZ
	?GetShortPointer@TString@@ABEPBDXZ
	?GetPointer@TString@@ABEPBDXZ
	??BTString@@QBEPBDXZ
	?Data@TString@@QBEPBDXZ
	??1TNamed@@UAE@XZ
	?GetName@TNamed@@UBEPBDXZ
	?GetTitle@TNamed@@UBEPBDXZ
	?Hash@TNamed@@UBEKXZ
	?IsSortable@TNamed@@UBE_NXZ
	?IsA@TNamed@@UBEPAVTClass@@XZ
	??0TCollection@@IAE@XZ
	??1TCollection@@UAE@XZ
	?GetEntries@TCollection@@UBEHXZ
	?GetSize@TCollection@@UBEHXZ
	?Hash@TCollection@@UBEKXZ
	?IsEmpty@TCollection@@UBE_NXZ
	?IsFolder@TCollection@@UBE_NXZ
	?IsSortable@TCollection@@UBE_NXZ
	?MakeReverseIterator@TCollection@@UBEPAVTIterator@@XZ
	?IsA@TCollection@@UBEPAVTClass@@XZ
	??0TIter@@QAE@PBVTCollection@@_N@Z
	??1TIter@@UAE@XZ
	??RTIter@@QAEPAVTObject@@XZ
	?Next@TIter@@QAEPAVTObject@@XZ
	?IsA@TIter@@UBEPAVTClass@@XZ
	??0TSeqCollection@@IAE@XZ
	?Changed@TSeqCollection@@MAEXXZ
	??1TSeqCollection@@UAE@XZ
	?Add@TSeqCollection@@UAEXPAVTObject@@@Z
	?RemoveFirst@TSeqCollection@@UAEXXZ
	?RemoveLast@TSeqCollection@@UAEXXZ
	?RemoveAt@TSeqCollection@@UAEPAVTObject@@H@Z
	?RemoveAfter@TSeqCollection@@UAEXPAVTObject@@@Z
	?RemoveBefore@TSeqCollection@@UAEXPAVTObject@@@Z
	?IsSorted@TSeqCollection@@UBE_NXZ
	?IsA@TSeqCollection@@UBEPAVTClass@@XZ
	??0TList@@QAE@XZ
	?Add@TList@@UAEXPAVTObject@@@Z
	?Add@TList@@UAEXPAVTObject@@PBD@Z
	?FirstLink@TList@@UBEPAVTObjLink@@XZ
	?LastLink@TList@@UBEPAVTObjLink@@XZ
	?IsA@TList@@UBEPAVTClass@@XZ
	??0TDatime@@QAE@I_N@Z
	??1TDatime@@UAE@XZ
	?IsA@TDatime@@UBEPAVTClass@@XZ
	?GetEntriesFast@TObjArray@@QBEHXZ
	?GetString@TObjString@@QBE?AVTString@@XZ
	??0_Ignore@std@@QAE@XZ
	??1TGDimension@@UAE@XZ
	?IsA@TGDimension@@UBEPAVTClass@@XZ
	??0TRefCnt@@QAE@H@Z
	??1TRefCnt@@UAE@XZ
	?SetRefCount@TRefCnt@@QAEXI@Z
	??0TGLayoutHints@@QAE@KHHHH@Z
	?SetLayoutHints@TGLayoutHints@@UAEXK@Z
	?SetPadTop@TGLayoutHints@@UAEXH@Z
	?SetPadBottom@TGLayoutHints@@UAEXH@Z
	?SetPadLeft@TGLayoutHints@@UAEXH@Z
	?SetPadRight@TGLayoutHints@@UAEXH@Z
	?ls@TGLayoutHints@@UBEXPBD@Z
	?IsA@TGLayoutHints@@UBEPAVTClass@@XZ
	??0TGString@@QAE@PBD@Z
	??1TGString@@UAE@XZ
	?SetString@TGString@@UAEXPBD@Z
	?IsA@TGString@@UBEPAVTClass@@XZ
	??4TGString@@QAEAAV0@ABV0@@Z
	?_Nextnode@?$_List_val@U?$_List_simple_types@PAVTEveElement@@@std@@@std@@SAAAPAU?$_List_node@PAVTEveElement@@PAX@2@PAU32@@Z
	?_Myval@?$_List_val@U?$_List_simple_types@PAVTEveElement@@@std@@@std@@SAAAPAVTEveElement@@PAU?$_List_node@PAVTEveElement@@PAX@2@@Z
	?begin@?$list@PAVTEveElement@@V?$allocator@PAVTEveElement@@@std@@@std@@QAE?AV?$_List_iterator@V?$_List_val@U?$_List_simple_types@PAVTEveElement@@@std@@@std@@@2@XZ
	?end@?$list@PAVTEveElement@@V?$allocator@PAVTEveElement@@@std@@@std@@QAE?AV?$_List_iterator@V?$_List_val@U?$_List_simple_types@PAVTEveElement@@@std@@@std@@@2@XZ
	?BeginChildren@TEveElement@@QAE?AV?$_List_iterator@V?$_List_val@U?$_List_simple_types@PAVTEveElement@@@std@@@std@@@std@@XZ
	?EndChildren@TEveElement@@QAE?AV?$_List_iterator@V?$_List_val@U?$_List_simple_types@PAVTEveElement@@@std@@@std@@@std@@XZ
	?SetUserData@TEveElement@@QAEXPAX@Z
	??0?$_List_unchecked_const_iterator@V?$_List_val@U?$_List_simple_types@PAVTEveElement@@@std@@@std@@U_Iterator_base0@2@@std@@QAE@PAU?$_List_node@PAVTEveElement@@PAX@1@PBV?$_List_val@U?$_List_simple_types@PAVTEveElement@@@std@@@1@@Z
	??0?$_List_const_iterator@V?$_List_val@U?$_List_simple_types@PAVTEveElement@@@std@@@std@@@std@@QAE@PAU?$_List_node@PAVTEveElement@@PAX@1@PBV?$_List_val@U?$_List_simple_types@PAVTEveElement@@@std@@@1@@Z
	??D?$_List_const_iterator@V?$_List_val@U?$_List_simple_types@PAVTEveElement@@@std@@@std@@@std@@QBEABQAVTEveElement@@XZ
	??E?$_List_const_iterator@V?$_List_val@U?$_List_simple_types@PAVTEveElement@@@std@@@std@@@std@@QAEAAV01@XZ
	??8?$_List_const_iterator@V?$_List_val@U?$_List_simple_types@PAVTEveElement@@@std@@@std@@@std@@QBE_NABV01@@Z
	??9?$_List_const_iterator@V?$_List_val@U?$_List_simple_types@PAVTEveElement@@@std@@@std@@@std@@QBE_NABV01@@Z
	??0?$_List_iterator@V?$_List_val@U?$_List_simple_types@PAVTEveElement@@@std@@@std@@@std@@QAE@PAU?$_List_node@PAVTEveElement@@PAX@1@PBV?$_List_val@U?$_List_simple_types@PAVTEveElement@@@std@@@1@@Z
	??D?$_List_iterator@V?$_List_val@U?$_List_simple_types@PAVTEveElement@@@std@@@std@@@std@@QBEAAPAVTEveElement@@XZ
	??E?$_List_iterator@V?$_List_val@U?$_List_simple_types@PAVTEveElement@@@std@@@std@@@std@@QAEAAV01@XZ
	??E?$_List_iterator@V?$_List_val@U?$_List_simple_types@PAVTEveElement@@@std@@@std@@@std@@QAE?AV01@H@Z
	?GetBrowser@TEveManager@@QBEPAVTEveBrowser@@XZ
	?Redraw3D@TEveManager@@QAEX_N0@Z
	?SetFontFile@TEveText@@QAEXH@Z
	?GetText@TEveText@@QBEPBDXZ
	?SetText@TEveText@@QAEXPBD@Z
	?OpenCompound@TEveCompound@@QAEXXZ
	?CloseCompound@TEveCompound@@QAEXXZ
	?IsEnabled@TGWidget@@QBE_NXZ
	?begin@?$vector@HV?$allocator@H@std@@@std@@QAE?AV?$_Vector_iterator@V?$_Vector_val@U?$_Simple_types@H@std@@@std@@@2@XZ
	?size@?$vector@HV?$allocator@H@std@@@std@@QBEIXZ
	?front@?$vector@HV?$allocator@H@std@@@std@@QAEAAHXZ
	??0TGFileInfo@@QAE@XZ
	?SetText@TGLabel@@QAEXPBD@Z
	?GetColor@TGColorSelect@@QBEKXZ
	??0TSortedList@@QAE@_N@Z
	?IsSorted@TSortedList@@UBE_NXZ
	?AddFirst@TSortedList@@UAEXPAVTObject@@@Z
	?AddFirst@TSortedList@@UAEXPAVTObject@@PBD@Z
	?AddLast@TSortedList@@UAEXPAVTObject@@@Z
	?AddLast@TSortedList@@UAEXPAVTObject@@PBD@Z
	?AddAt@TSortedList@@UAEXPAVTObject@@H@Z
	?AddAfter@TSortedList@@UAEXPBVTObject@@PAV2@@Z
	?AddAfter@TSortedList@@UAEXPAVTObjLink@@PAVTObject@@@Z
	?AddBefore@TSortedList@@UAEXPBVTObject@@PAV2@@Z
	?AddBefore@TSortedList@@UAEXPAVTObjLink@@PAVTObject@@@Z
	?Sort@TSortedList@@UAEX_N@Z
	?IsA@TSortedList@@UBEPAVTClass@@XZ
	??1TSortedList@@UAE@XZ
	??1EdbPoint@@UAE@XZ
	?Transform@EdbPoint@@UAEXPBVEdbAffine2D@@@Z
	?Transform@EdbPoint@@UAEXPBVEdbAffine3D@@@Z
	?Test@EdbPoint@@UBEXXZ
	?IsA@EdbPoint@@UBEPAVTClass@@XZ
	??0EdbPoint@@QAE@XZ
	??1EdbAngle2D@@UAE@XZ
	?Test@EdbAngle2D@@UBEXXZ
	?IsA@EdbAngle2D@@UBEPAVTClass@@XZ
	??0EdbAngle2D@@QAE@XZ
	??1EdbPoint2D@@UAE@XZ
	?Z@EdbPoint2D@@UBEMXZ
	?SetZ@EdbPoint2D@@UAEXM@Z
	?Test@EdbPoint2D@@UBEXXZ
	?TestPoint2D@EdbPoint2D@@UBEXXZ
	?IsA@EdbPoint2D@@UBEPAVTClass@@XZ
	??0EdbPoint2D@@QAE@XZ
	??1EdbTrack2D@@UAE@XZ
	?Test@EdbTrack2D@@UBEXXZ
	?IsA@EdbTrack2D@@UBEPAVTClass@@XZ
	??0EdbTrack2D@@QAE@XZ
	??0EdbID@@QAE@HHHH@Z
	??1EdbID@@UAE@XZ
	?Set@EdbID@@QAEXHHHH@Z
	?Get@EdbID@@QAEXQAH@Z
	?Print@EdbID@@QAEXXZ
	?IsA@EdbID@@UBEPAVTClass@@XZ
	??0EdbID@@QAE@ABV0@@Z
	??4EdbID@@QAEAAV0@ABV0@@Z
	??0EdbSegP@@QAE@XZ
	??0EdbSegP@@QAE@ABV0@@Z
	??1EdbSegP@@UAE@XZ
	?Set@EdbSegP@@QAEXHMMMMMH@Z
	?SetErrors@EdbSegP@@QAEXXZ
	?COV@EdbSegP@@QBEAAV?$TMatrixT@N@@XZ
	?SetZ@EdbSegP@@UAEXM@Z
	?SetDZ@EdbSegP@@QAEXM@Z
	?SetID@EdbSegP@@QAEXH@Z
	?SetPID@EdbSegP@@QAEXH@Z
	?SetFlag@EdbSegP@@QAEXH@Z
	?SetTrack@EdbSegP@@QAEXH@Z
	?SetW@EdbSegP@@QAEXM@Z
	?SetAid@EdbSegP@@QAEXHHH@Z
	?SetPlate@EdbSegP@@QAEXH@Z
	?MCEvt@EdbSegP@@QBEHXZ
	?ID@EdbSegP@@QBEHXZ
	?PID@EdbSegP@@QBEHXZ
	?Flag@EdbSegP@@QBEHXZ
	?Track@EdbSegP@@QBEHXZ
	?W@EdbSegP@@QBEMXZ
	?P@EdbSegP@@QBEMXZ
	?Z@EdbSegP@@UBEMXZ
	?Chi2@EdbSegP@@QBEMXZ
	?Plate@EdbSegP@@QBEHXZ
	?ScanID@EdbSegP@@QBE?AVEdbID@@XZ
	?Aid@EdbSegP@@QBEHH@Z
	?Side@EdbSegP@@QBEHXZ
	?X@EdbSegP@@UBEMXZ
	?Y@EdbSegP@@UBEMXZ
	?TX@EdbSegP@@UBEMXZ
	?TY@EdbSegP@@UBEMXZ
	?SetX@EdbSegP@@UAEXM@Z
	?SetY@EdbSegP@@UAEXM@Z
	?SetTX@EdbSegP@@UAEXM@Z
	?SetTY@EdbSegP@@UAEXM@Z
	?IsSortable@EdbSegP@@UBE_NXZ
	?IsA@EdbSegP@@UBEPAVTClass@@XZ
	?GetSegment@EdbSegmentsBox@@QBEPAVEdbSegP@@H@Z
	?GetSegments@EdbSegmentsBox@@QBEPAVTClonesArray@@XZ
	?SetCounters@EdbTrackP@@QAEXXZ
	?SetN0@EdbTrackP@@QAEXXZ
	?SetNpl@EdbTrackP@@QAEXXZ
	?N@EdbTrackP@@QBEHXZ
	?GetSegmentFirst@EdbTrackP@@QBEPAVEdbSegP@@XZ
	?GetSegmentLast@EdbTrackP@@QBEPAVEdbSegP@@XZ
	?GetSegment@EdbTrackP@@QBEPAVEdbSegP@@H@Z
	?AddSegment@EdbTrackP@@QAEXPAVEdbSegP@@@Z
	?ID@EdbPattern@@QBEHXZ
	?Plate@EdbPattern@@QBEHXZ
	?Npatterns@EdbPatternsVolume@@QBEHXZ
	?GetTrack@EdbVTA@@QBEPAVEdbTrackP@@XZ
	?N@EdbVertex@@QBEHXZ
	?Z@EdbVertex@@QBEMXZ
	?GetVTa@EdbVertex@@QAEPAVEdbVTA@@H@Z
	?GetTrack@EdbVertex@@QAEPAVEdbTrackP@@H@Z
	??1EdbVertexPar@@UAE@XZ
	?IsA@EdbVertexPar@@UBEPAVTClass@@XZ
	??0EdbVertexRec@@QAE@XZ
	?SetPVRec@EdbVertexRec@@QAEXPAVEdbPVRec@@@Z
	?IsA@EdbVertexRec@@UBEPAVTClass@@XZ
	??BTCut@@QBEPBDXZ
	??1EdbAffine2D@@UAE@XZ
	?IsA@EdbAffine2D@@UBEPAVTClass@@XZ
	??0EdbAffine2D@@QAE@ABV0@@Z
	?At@TIndexCell@@QBEPAV1@H@Z
	?Value@TIndexCell@@QBEJXZ
	?ID@EdbLayer@@QBEHXZ
	?Z@EdbLayer@@QBEMXZ
	?SetID@EdbLayer@@QAEXH@Z
	?GetAffineXY@EdbLayer@@QAEPAVEdbAffine2D@@XZ
	??1EdbScanCond@@UAE@XZ
	?SetScanCond@EdbPVRec@@QAEXPAVEdbScanCond@@@Z
	?GetScanCond@EdbPVRec@@QAEPBVEdbScanCond@@XZ
	?Ntracks@EdbPVRec@@QBEHXZ
	?GetTrack@EdbPVRec@@QBEPAVEdbTrackP@@H@Z
	?Plate@EdbDataPiece@@QBEHXZ
	?GetLayer@EdbDataPiece@@QAEPAVEdbLayer@@H@Z
	?N@EdbDataSet@@QBEHXZ
	?GetPiece@EdbDataSet@@QAEPAVEdbDataPiece@@H@Z
	?GetDataSet@EdbDataProc@@QAEPAVEdbDataSet@@XZ
	?PVR@EdbDataProc@@QBEPAVEdbPVRec@@XZ
	?Npl@EdbBrickP@@QBEHXZ
	?GetPlate@EdbBrickP@@QAEPAVEdbPlateP@@H@Z
	?GetID@EdbScanSet@@QAEPAVEdbID@@H@Z
	?Brick@EdbScanSet@@QAEAAVEdbBrickP@@XZ
	?GetPlate@EdbScanSet@@QAEPAVEdbPlateP@@H@Z
	?MakeFileName@EdbScanProc@@QAEXAAVTString@@VEdbID@@PBD_N@Z
	?Plate@EdbEDAArea@@QAEHXZ
	?Xmin@EdbEDAArea@@QAENXZ
	?Xmax@EdbEDAArea@@QAENXZ
	?Ymin@EdbEDAArea@@QAENXZ
	?Ymax@EdbEDAArea@@QAENXZ
	?Z@EdbEDAArea@@QAENXZ
	?N@EdbEDAAreaSet@@QAEHXZ
	?GetArea@EdbEDAAreaSet@@QAEPAVEdbEDAArea@@H@Z
	?GetAreaIPL@EdbEDAAreaSet@@QAEPAVEdbEDAArea@@H@Z
	?Clear@EdbEDAAreaSet@@QAEXXZ
	?AddVertex@EdbEDAVertexSet@@QAEXPAVEdbVertex@@@Z
	?AddVertices@EdbEDAVertexSet@@QAEXPAVTObjArray@@@Z
	?SetVertex@EdbEDAVertexSet@@QAEXPAVEdbVertex@@@Z
	?SetVerticesNtrk@EdbEDAVertexSet@@QAEXH@Z
	?ClearVertices@EdbEDAVertexSet@@QAEXXZ
	?Clear@EdbEDAVertexSet@@QAEXXZ
	?GetVertices@EdbEDAVertexSet@@QAEPAVTObjArray@@XZ
	?NBase@EdbEDAVertexSet@@QAEHXZ
	?GetVertexBase@EdbEDAVertexSet@@QAEPAVEdbVertex@@H@Z
	??0EdbEDATrackComment@@QAE@PAVEdbTrackP@@PAD@Z
	?GetTrack@EdbEDATrackComment@@QAEPAVEdbTrackP@@XZ
	?GetComment@EdbEDATrackComment@@QAEPBDXZ
	?IsA@EdbEDATrackComment@@UBEPAVTClass@@XZ
	??1EdbEDATrackComment@@UAE@XZ
	?Neighborhood@EdbEDATrackSelection@@QAEHPAVEdbSegP@@PAN@Z
	?ImpactSearch@EdbEDATrackSelection@@QAEHPAVEdbTrackP@@@Z
	?SideOut@EdbEDATrackSelection@@QAEHPAVEdbTrackP@@@Z
	?DoSelection@EdbEDATrackSelection@@QAEXPAVTObjArray@@0@Z
	?AddTracksBase@EdbEDATrackSet@@QAEXPAVTObjArray@@@Z
	?AddTrack@EdbEDATrackSet@@QAEXPAVEdbTrackP@@@Z
	?SetTrack@EdbEDATrackSet@@QAEXPAVEdbTrackP@@@Z
	?GetTracks@EdbEDATrackSet@@QAEPAVTObjArray@@XZ
	?AddTracksPVR@EdbEDATrackSet@@QAEXPAVEdbPVRec@@@Z
	?GetPVRec@EdbEDATrackSet@@QAEPAVEdbPVRec@@XZ
	?ClearTracks@EdbEDATrackSet@@QAEXXZ
	?ClearTracksBase@EdbEDATrackSet@@QAEXXZ
	?Clear@EdbEDATrackSet@@QAEXXZ
	?SetTracksAll@EdbEDATrackSet@@QAEXXZ
	?SearchCorrespondTrack@EdbEDATrackSet@@QAEPAVEdbTrackP@@PAV2@@Z
	?MicroTrackSearch@EdbEDATrackSet@@QAEHPAVEdbTrackP@@PAVEdbSegP@@H@Z
	?MicroTrackSearch@EdbEDATrackSet@@QAEXPAVEdbTrackP@@@Z
	?PrepareScanSetForMT@EdbEDATrackSet@@QAEHXZ
	?SearchSegment@EdbEDATrackSet@@QAEPAVEdbTrackP@@HH@Z
	?N@EdbEDATrackSet@@QAEHXZ
	?NBase@EdbEDATrackSet@@QAEHXZ
	?GetTrack@EdbEDATrackSet@@QAEPAVEdbTrackP@@H@Z
	?GetTrackBase@EdbEDATrackSet@@QAEPAVEdbTrackP@@H@Z
	?SetID@EdbEDATrackSet@@QAEXVEdbID@@@Z
	?GetID@EdbEDATrackSet@@QAEAAVEdbID@@XZ
	?SetScanSet@EdbEDATrackSet@@QAEXPAVEdbScanSet@@@Z
	?GetScanSet@EdbEDATrackSet@@QAEPAVEdbScanSet@@XZ
	?AddComment@EdbEDATrackSet@@QAEXPAVEdbTrackP@@PAD@Z
	?ClearComments@EdbEDATrackSet@@QAEXXZ
	?GetComment@EdbEDATrackSet@@QAEPBDPAVEdbTrackP@@@Z
	?ReadFile@EdbEDATrackSet@@QAEXPADHVTCut@@@Z
	?ReadTracksTree@EdbEDATrackSet@@QAEXPADVTCut@@@Z
	?ReadTracksTree@EdbEDATrackSet@@QAEXVEdbID@@VTCut@@@Z
	?ReadLinkedTracks@EdbEDATrackSet@@QAEPAVEdbDataProc@@PADVTCut@@@Z
	?ReadLinkedTracksFile@EdbEDATrackSet@@QAEPAVEdbDataProc@@PADVTCut@@@Z
	?ReadLinkedTracks@EdbEDATrackSet@@QAEPAVEdbDataProc@@PAV2@@Z
	?ReadPredictionScan@EdbEDATrackSet@@QAEXHHHH@Z
	?ReadPredictionScan@EdbEDATrackSet@@QAEXVEdbID@@_N@Z
	?ReadPredictionScan@EdbEDATrackSet@@QAEXPAVEdbScanSet@@@Z
	?ReadTextTracks@EdbEDATrackSet@@QAEXPAD@Z
	?ReadMxxFile@EdbEDATrackSet@@QAEXPAD@Z
	?ReadListFile@EdbEDATrackSet@@QAEXPAD_N@Z
	?WriteListFile@EdbEDATrackSet@@QAEPADPAD_N1@Z
	?DoVertexing@EdbEDATrackSet@@QAEXPAVEdbVertexRec@@H@Z
	?SetTracksVertex@EdbEDATrackSet@@QAEXPAVEdbVertex@@_N@Z
	?SetTracksVertices@EdbEDATrackSet@@QAEXPAVTObjArray@@_N@Z
	?SetExtendMode@EdbEDATrackSet@@QAEXH@Z
	?GetExtendMode@EdbEDATrackSet@@QAEHXZ
	?SetTrackAttribute@EdbEDATrackSet@@QAEXHHNHHNH@Z
	?GetTrackAttribute@EdbEDATrackSet@@QAEXPAH0PAN0010@Z
	?SetLayerLength@EdbEDATrackSet@@QAEXN@Z
	?ResetTrackAttribute@EdbEDATrackSet@@QAEXXZ
	?SetColorMode@EdbEDATrackSet@@QAEXH@Z
	?GetTrackColor@EdbEDATrackSet@@QAEHPAVEdbSegP@@@Z
	?GetTrackWidth@EdbEDATrackSet@@QAEHPAVEdbSegP@@@Z
	?GetTrackLength@EdbEDATrackSet@@QAENPAVEdbSegP@@H@Z
	?GetLayerColor@EdbEDATrackSet@@QAEHPAVEdbSegP@@@Z
	?GetLayerWidth@EdbEDATrackSet@@QAEHPAVEdbSegP@@@Z
	?GetLayerLength@EdbEDATrackSet@@QAENPAVEdbSegP@@@Z
	?SetTextAttribute@EdbEDATrackSet@@QAEXHHH@Z
	?GetTextColor@EdbEDATrackSet@@QAEHXZ
	?GetTextSize@EdbEDATrackSet@@QAEHXZ
	?GetTextFont@EdbEDATrackSet@@QAEHXZ
	?SetDraw@EdbEDATrackSet@@QAEX_N@Z
	?SetDrawMT@EdbEDATrackSet@@QAEX_N@Z
	?GetDrawMT@EdbEDATrackSet@@QAE_NXZ
	?SetDrawTrackID@EdbEDATrackSet@@QAEX_N@Z
	?SetDrawTrackAngle@EdbEDATrackSet@@QAEX_N@Z
	?GetDrawTrackID@EdbEDATrackSet@@QAE_NXZ
	?GetDrawTrackAngle@EdbEDATrackSet@@QAE_NXZ
	?Draw@EdbEDATrackSet@@QAEXH@Z
	?DrawSingleTrack@EdbEDATrackSet@@QAEXPAVEdbTrackP@@@Z
	?DrawSingleSegment@EdbEDATrackSet@@QAEXPAVEdbSegP@@PADPAVTEveCompound@@HH@Z
	?DrawSingleComment@EdbEDATrackSet@@QAEXPAVEdbEDATrackComment@@@Z
	?GetAreaSet@EdbEDATrackSet@@QAEPAVEdbEDAAreaSet@@XZ
	??0EdbEDATrackSetTab@@QAE@XZ
	?Selected@EdbEDATrackSetTab@@QAEXPBD@Z
	?SetAttributeGUIs@EdbEDATrackSetTab@@QAEXPAVEdbEDATrackSet@@@Z
	?Enable@EdbEDATrackSetTab@@QAEX_N@Z
	?Update@EdbEDATrackSetTab@@QAEXXZ
	?ReadPredictionScan@EdbEDATrackSetTab@@QAEXXZ
	?ReadTextTracks@EdbEDATrackSetTab@@QAEXXZ
	?ReadFile@EdbEDATrackSetTab@@QAEXXZ
	?ClearTracks@EdbEDATrackSetTab@@QAEXXZ
	?MakeFontWindow@EdbEDATrackSetTab@@QAEXXZ
	?CloseFontWindow@EdbEDATrackSetTab@@QAEXXZ
	?SetFont@EdbEDATrackSetTab@@QAEXXZ
	?ChangeScanID@EdbEDATrackSetTab@@QAEXXZ
	?GetID@EdbEDABrickData@@QAE?AVEdbID@@XZ
	?GetScanSet@EdbEDABrickData@@QAEPAVEdbScanSet@@XZ
	?GetBrick@EdbEDABrickData@@QAEHXZ
	?GetFirstPlate@EdbEDABrickData@@QAEHXZ
	?GetLastPlate@EdbEDABrickData@@QAEHXZ
	?GetDataSet@EdbEDABrickData@@QAEPAVEdbDataSet@@XZ
	?GetIPL@EdbEDABrickData@@QAEHH@Z
	?GetPID@EdbEDABrickData@@QAEHH@Z
	?GetZ@EdbEDABrickData@@QAENH@Z
	?GetZPID@EdbEDABrickData@@QAENH@Z
	?GetSelectedVertex@EdbEDASelection@@QAEPAVEdbVertex@@XZ
	?ScanProc@EdbEDA@@QAEPAVEdbScanProc@@XZ
	?NTrackSets@EdbEDA@@QAEHXZ
	?GetTrackSet@EdbEDA@@QAEPAVEdbEDATrackSet@@H@Z
	?GetTrackSet@EdbEDA@@QAEPAVEdbEDATrackSet@@PAD@Z
	?GetVertexSet@EdbEDA@@QAEPAVEdbEDAVertexSet@@XZ
	?Redraw@EdbEDA@@QAEXXZ
	?SetLayerLength@EdbEDA@@QAEXN@Z
	?GetScaleZ@EdbEDA@@QAENXZ
	?Japanese@EdbEDA@@QAE_NXZ
	??0?$_Vector_const_iterator@V?$_Vector_val@U?$_Simple_types@H@std@@@std@@@std@@QAE@PAHPBU_Container_base0@1@@Z
	??D?$_Vector_const_iterator@V?$_Vector_val@U?$_Simple_types@H@std@@@std@@@std@@QBEABHXZ
	??0?$_Vector_iterator@V?$_Vector_val@U?$_Simple_types@H@std@@@std@@@std@@QAE@PAHPBU_Container_base0@1@@Z
	??D?$_Vector_iterator@V?$_Vector_val@U?$_Simple_types@H@std@@@std@@@std@@QBEAAHXZ
	??$construct@PADAAPAD@?$_Wrap_alloc@V?$allocator@D@std@@@std@@QAEXPAPADAAPAD@Z
	??$destroy@PAD@?$_Wrap_alloc@V?$allocator@D@std@@@std@@QAEXPAPAD@Z
	??$addressof@D@std@@YAPADAAD@Z
	??$_Allocate@D@std@@YAPADIPAD@Z
	??$forward@AAPAD@std@@YAAAPADAAPAD@Z
	??$construct@PADAAPAD@?$allocator_traits@V?$allocator@D@std@@@std@@SAXAAV?$allocator@D@1@PAPADAAPAD@Z
	??$destroy@PAD@?$allocator_traits@V?$allocator@D@std@@@std@@SAXAAV?$allocator@D@1@PAPAD@Z
	??$construct@PADAAPAD@?$allocator@D@std@@QAEXPAPADAAPAD@Z
	??$destroy@PAD@?$allocator@D@std@@QAEXPAPAD@Z
	?Transform@EdbTrack2D@@W3AEXPBVEdbAffine2D@@@Z
	?Test@EdbTrack2D@@W3BEXXZ
	?Print@EdbTrack2D@@W3BEXPBD@Z
	?IsA@EdbTrack2D@@W3BEPAVTClass@@XZ
	?ShowMembers@EdbTrack2D@@W3AEXAAVTMemberInspector@@@Z
	?Streamer@EdbTrack2D@@W3AEXAAVTBuffer@@@Z
	?IsA@EdbSegP@@WM@BEPAVTClass@@XZ
	?ShowMembers@EdbSegP@@WM@AEXAAVTMemberInspector@@@Z
	?Streamer@EdbSegP@@WM@AEXAAVTBuffer@@@Z
	?Print@EdbSegP@@WM@BEXPBD@Z
	?Print@EdbSegP@@WBA@BEXPBD@Z
	?IsA@EdbSegP@@WBA@BEPAVTClass@@XZ
	?ShowMembers@EdbSegP@@WBA@AEXAAVTMemberInspector@@@Z
	?Streamer@EdbSegP@@WBA@AEXAAVTBuffer@@@Z
	?_Generic_object@?$_Error_objects@H@std@@2V_Generic_error_category@2@A 	 DATA
	?_Iostream_object@?$_Error_objects@H@std@@2V_Iostream_error_category@2@A 	 DATA
	?_System_object@?$_Error_objects@H@std@@2V_System_error_category@2@A 	 DATA
	?id@?$num_put@DV?$back_insert_iterator@V?$basic_string@DU?$char_traits@D@std@@V?$allocator@D@2@@std@@@std@@@std@@2V0locale@2@A 	 DATA
	?id@?$num_put@_WV?$back_insert_iterator@V?$basic_string@_WU?$char_traits@_W@std@@V?$allocator@_W@2@@std@@@std@@@std@@2V0locale@2@A 	 DATA
	??_R0?AVTObject@@@8 	 DATA
	??_R0?AVerror_category@std@@@8 	 DATA
	??_R0?AV_Generic_error_category@std@@@8 	 DATA
	??_R0?AV_Iostream_error_category@std@@@8 	 DATA
	??_R0?AV_System_error_category@std@@@8 	 DATA
	??_R0?AVTNamed@@@8 	 DATA
	??_R0?AVTCollection@@@8 	 DATA
	??_R0?AVTList@@@8 	 DATA
	??_R0?AVTSeqCollection@@@8 	 DATA
	??_R0?AVTIter@@@8 	 DATA
	??_R0?AVTDatime@@@8 	 DATA
	??_R0?AVTRefCnt@@@8 	 DATA
	??_R0?AVTGDimension@@@8 	 DATA
	??_R0?AVTGLayoutHints@@@8 	 DATA
	??_R0?AVTGString@@@8 	 DATA
	??_R0?AVTString@@@8 	 DATA
	??_R0?AVTSortedList@@@8 	 DATA
	??_R0?AVEdbAffine2D@@@8 	 DATA
	??_R0?AVEdbPoint@@@8 	 DATA
	??_R0?AVEdbPoint2D@@@8 	 DATA
	??_R0?AVEdbAngle2D@@@8 	 DATA
	??_R0?AVEdbTrack2D@@@8 	 DATA
	??_R0?AVEdbID@@@8 	 DATA
	??_R0?AVEdbSegP@@@8 	 DATA
	??_R0?AVEdbVertexPar@@@8 	 DATA
	??_R0?AVEdbVertexRec@@@8 	 DATA
	??_R0?AVEdbEDATrackComment@@@8 	 DATA
	hypot
	sqrtf
	?sqrt@@YAMM@Z
	??2@YAPAXIPAX@Z
	??3@YAXPAX0@Z
	?length@?$char_traits@D@std@@SAIPBD@Z
	?copy@?$char_traits@D@std@@SAPADPADPBDI@Z
	?move@?$char_traits@D@std@@SAPADPADPBDI@Z
	?assign@?$char_traits@D@std@@SAXAADABD@Z
	?_Adopt@_Iterator_base0@std@@QAEXPBX@Z
	??0?$allocator@D@std@@QAE@XZ
	?deallocate@?$allocator@D@std@@QAEXPADI@Z
	?allocate@?$allocator@D@std@@QAEPADI@Z
	?max_size@?$allocator@D@std@@QBEIXZ
	?max_size@?$allocator_traits@V?$allocator@D@std@@@std@@SAIABV?$allocator@D@2@@Z
	??0?$_Wrap_alloc@V?$allocator@D@std@@@std@@QAE@XZ
	?allocate@?$_Wrap_alloc@V?$allocator@D@std@@@std@@QAEPADI@Z
	?deallocate@?$_Wrap_alloc@V?$allocator@D@std@@@std@@QAEXPADI@Z
	?max_size@?$_Wrap_alloc@V?$allocator@D@std@@@std@@QBEIXZ
	??0?$_String_val@U?$_Simple_types@D@std@@@std@@QAE@XZ
	?_Myptr@?$_String_val@U?$_Simple_types@D@std@@@std@@QAEPADXZ
	?_Myptr@?$_String_val@U?$_Simple_types@D@std@@@std@@QBEPBDXZ
	??0?$_String_alloc@$0A@U?$_String_base_types@DV?$allocator@D@std@@@std@@@std@@QAE@ABV?$allocator@D@1@@Z
	?_Getal@?$_String_alloc@$0A@U?$_String_base_types@DV?$allocator@D@std@@@std@@@std@@QBE?AU?$_Wrap_alloc@V?$allocator@D@std@@@2@XZ
	??0?$basic_string@DU?$char_traits@D@std@@V?$allocator@D@2@@std@@QAE@PBD@Z
	??1?$basic_string@DU?$char_traits@D@std@@V?$allocator@D@2@@std@@QAE@XZ
	?assign@?$basic_string@DU?$char_traits@D@std@@V?$allocator@D@2@@std@@QAEAAV12@ABV12@II@Z
	?assign@?$basic_string@DU?$char_traits@D@std@@V?$allocator@D@2@@std@@QAEAAV12@PBDI@Z
	?assign@?$basic_string@DU?$char_traits@D@std@@V?$allocator@D@2@@std@@QAEAAV12@PBD@Z
	?erase@?$basic_string@DU?$char_traits@D@std@@V?$allocator@D@2@@std@@QAEAAV12@I@Z
	?erase@?$basic_string@DU?$char_traits@D@std@@V?$allocator@D@2@@std@@QAEAAV12@II@Z
	?size@?$basic_string@DU?$char_traits@D@std@@V?$allocator@D@2@@std@@QBEIXZ
	?max_size@?$basic_string@DU?$char_traits@D@std@@V?$allocator@D@2@@std@@QBEIXZ
	?_Copy@?$basic_string@DU?$char_traits@D@std@@V?$allocator@D@2@@std@@QAEXII@Z
	?_Eos@?$basic_string@DU?$char_traits@D@std@@V?$allocator@D@2@@std@@QAEXI@Z
	?_Grow@?$basic_string@DU?$char_traits@D@std@@V?$allocator@D@2@@std@@QAE_NI_N@Z
	?_Inside@?$basic_string@DU?$char_traits@D@std@@V?$allocator@D@2@@std@@QAE_NPBD@Z
	?_Tidy@?$basic_string@DU?$char_traits@D@std@@V?$allocator@D@2@@std@@QAEX_NI@Z
	?_Xlen@?$basic_string@DU?$char_traits@D@std@@V?$allocator@D@2@@std@@QBEXXZ
	?_Xran@?$basic_string@DU?$char_traits@D@std@@V?$allocator@D@2@@std@@QBEXXZ
	?generic_category@std@@YAABVerror_category@1@XZ
	?system_category@std@@YAABVerror_category@1@XZ
	??0error_category@std@@QAE@XZ
	??1error_category@std@@UAE@XZ
	?default_error_condition@error_category@std@@UBE?AVerror_condition@2@H@Z
	?equivalent@error_category@std@@UBE_NHABVerror_condition@2@@Z
	?equivalent@error_category@std@@UBE_NABVerror_code@2@H@Z
	??8error_category@std@@QBE_NABV01@@Z
	?value@error_code@std@@QBEHXZ
	?category@error_code@std@@QBEABVerror_category@2@XZ
	??0error_condition@std@@QAE@HABVerror_category@1@@Z
	?value@error_condition@std@@QBEHXZ
	?category@error_condition@std@@QBEABVerror_category@2@XZ
	??8error_condition@std@@QBE_NABV01@@Z
	??0_Generic_error_category@std@@QAE@XZ
	?name@_Generic_error_category@std@@UBEPBDXZ
	?message@_Generic_error_category@std@@UBE?AV?$basic_string@DU?$char_traits@D@std@@V?$allocator@D@2@@2@H@Z
	??1_Generic_error_category@std@@UAE@XZ
	??0_Iostream_error_category@std@@QAE@XZ
	?name@_Iostream_error_category@std@@UBEPBDXZ
	?message@_Iostream_error_category@std@@UBE?AV?$basic_string@DU?$char_traits@D@std@@V?$allocator@D@2@@2@H@Z
	??1_Iostream_error_category@std@@UAE@XZ
	??0_System_error_category@std@@QAE@XZ
	?name@_System_error_category@std@@UBEPBDXZ
	?message@_System_error_category@std@@UBE?AV?$basic_string@DU?$char_traits@D@std@@V?$allocator@D@2@@2@H@Z
	?default_error_condition@_System_error_category@std@@UBE?AVerror_condition@2@H@Z
	??1_System_error_category@std@@UAE@XZ
	?Clear@TObject@@UAEXPBD@Z
	?GetOption@TObject@@UBEPBDXZ
	?IsSortable@TObject@@UBE_NXZ
	??2TObject@@SAPAXI@Z
	??0TDatime@@QAE@I_N@Z
	??1TDatime@@UAE@XZ
	?IsA@TDatime@@UBEPAVTClass@@XZ
	?GetEntriesFast@TObjArray@@QBEHXZ
	??0_Ignore@std@@QAE@XZ
	?_Nextnode@?$_List_val@U?$_List_simple_types@PAVTEveElement@@@std@@@std@@SAAAPAU?$_List_node@PAVTEveElement@@PAX@2@PAU32@@Z
	?_Prevnode@?$_List_val@U?$_List_simple_types@PAVTEveElement@@@std@@@std@@SAAAPAU?$_List_node@PAVTEveElement@@PAX@2@PAU32@@Z
	?_Myval@?$_List_val@U?$_List_simple_types@PAVTEveElement@@@std@@@std@@SAAAPAVTEveElement@@PAU?$_List_node@PAVTEveElement@@PAX@2@@Z
	?begin@?$list@PAVTEveElement@@V?$allocator@PAVTEveElement@@@std@@@std@@QAE?AV?$_List_iterator@V?$_List_val@U?$_List_simple_types@PAVTEveElement@@@std@@@std@@@2@XZ
	?end@?$list@PAVTEveElement@@V?$allocator@PAVTEveElement@@@std@@@std@@QAE?AV?$_List_iterator@V?$_List_val@U?$_List_simple_types@PAVTEveElement@@@std@@@std@@@2@XZ
	?BeginChildren@TEveElement@@QAE?AV?$_List_iterator@V?$_List_val@U?$_List_simple_types@PAVTEveElement@@@std@@@std@@@std@@XZ
	?EndChildren@TEveElement@@QAE?AV?$_List_iterator@V?$_List_val@U?$_List_simple_types@PAVTEveElement@@@std@@@std@@@std@@XZ
	?NumChildren@TEveElement@@QBEHXZ
	?SetUserData@TEveElement@@QAEXPAX@Z
	??0?$_List_unchecked_const_iterator@V?$_List_val@U?$_List_simple_types@PAVTEveElement@@@std@@@std@@U_Iterator_base0@2@@std@@QAE@PAU?$_List_node@PAVTEveElement@@PAX@1@PBV?$_List_val@U?$_List_simple_types@PAVTEveElement@@@std@@@1@@Z
	??0?$_List_const_iterator@V?$_List_val@U?$_List_simple_types@PAVTEveElement@@@std@@@std@@@std@@QAE@PAU?$_List_node@PAVTEveElement@@PAX@1@PBV?$_List_val@U?$_List_simple_types@PAVTEveElement@@@std@@@1@@Z
	??D?$_List_const_iterator@V?$_List_val@U?$_List_simple_types@PAVTEveElement@@@std@@@std@@@std@@QBEABQAVTEveElement@@XZ
	??E?$_List_const_iterator@V?$_List_val@U?$_List_simple_types@PAVTEveElement@@@std@@@std@@@std@@QAEAAV01@XZ
	??F?$_List_const_iterator@V?$_List_val@U?$_List_simple_types@PAVTEveElement@@@std@@@std@@@std@@QAEAAV01@XZ
	??8?$_List_const_iterator@V?$_List_val@U?$_List_simple_types@PAVTEveElement@@@std@@@std@@@std@@QBE_NABV01@@Z
	??0?$_List_iterator@V?$_List_val@U?$_List_simple_types@PAVTEveElement@@@std@@@std@@@std@@QAE@PAU?$_List_node@PAVTEveElement@@PAX@1@PBV?$_List_val@U?$_List_simple_types@PAVTEveElement@@@std@@@1@@Z
	??D?$_List_iterator@V?$_List_val@U?$_List_simple_types@PAVTEveElement@@@std@@@std@@@std@@QBEAAPAVTEveElement@@XZ
	??E?$_List_iterator@V?$_List_val@U?$_List_simple_types@PAVTEveElement@@@std@@@std@@@std@@QAEAAV01@XZ
	??E?$_List_iterator@V?$_List_val@U?$_List_simple_types@PAVTEveElement@@@std@@@std@@@std@@QAE?AV01@H@Z
	??F?$_List_iterator@V?$_List_val@U?$_List_simple_types@PAVTEveElement@@@std@@@std@@@std@@QAEAAV01@XZ
	??F?$_List_iterator@V?$_List_val@U?$_List_simple_types@PAVTEveElement@@@std@@@std@@@std@@QAE?AV01@H@Z
	?GetCurrentEvent@TEveManager@@QBEPAVTEveEventManager@@XZ
	?Redraw3D@TEveManager@@QAEX_N0@Z
	?SetText@TEveText@@QAEXPBD@Z
	??0?$TEveVectorT@M@@QAE@XZ
	??X?$TEveVectorT@M@@QAEAAV0@M@Z
	?Set@?$TEveVectorT@M@@QAEXMMM@Z
	?ID@EdbSegP@@QBEHXZ
	?PID@EdbSegP@@QBEHXZ
	?Flag@EdbSegP@@QBEHXZ
	?W@EdbSegP@@QBEMXZ
	?P@EdbSegP@@QBEMXZ
	?Plate@EdbSegP@@QBEHXZ
	?GetSegment@EdbSegmentsBox@@QBEPAVEdbSegP@@H@Z
	?N@EdbTrackP@@QBEHXZ
	?GetSegment@EdbTrackP@@QBEPAVEdbSegP@@H@Z
	?Plate@EdbPattern@@QBEHXZ
	?Npatterns@EdbPatternsVolume@@QBEHXZ
	?N@EdbVertex@@QBEHXZ
	?ID@EdbVertex@@QBEHXZ
	?X@EdbVertex@@QBEMXZ
	?Y@EdbVertex@@QBEMXZ
	?Z@EdbVertex@@QBEMXZ
	?At@TIndexCell@@QBEPAV1@H@Z
	?Value@TIndexCell@@QBEJXZ
	?ID@EdbLayer@@QBEHXZ
	?X@EdbLayer@@QBEMXZ
	?Y@EdbLayer@@QBEMXZ
	?Z@EdbLayer@@QBEMXZ
	?DX@EdbLayer@@QBEMXZ
	?DY@EdbLayer@@QBEMXZ
	?Xmin@EdbLayer@@QBEMXZ
	?Xmax@EdbLayer@@QBEMXZ
	?Ymin@EdbLayer@@QBEMXZ
	?Ymax@EdbLayer@@QBEMXZ
	?Plate@EdbDataPiece@@QBEHXZ
	?GetLayer@EdbDataPiece@@QAEPAVEdbLayer@@H@Z
	?N@EdbDataSet@@QBEHXZ
	?GetPiece@EdbDataSet@@QAEPAVEdbDataPiece@@H@Z
	?GetLayer@EdbPlateP@@QAEPAVEdbLayer@@H@Z
	?Npl@EdbBrickP@@QBEHXZ
	?GetPlate@EdbBrickP@@QAEPAVEdbPlateP@@H@Z
	?Brick@EdbScanSet@@QAEAAVEdbBrickP@@XZ
	?GetPlate@EdbScanSet@@QAEPAVEdbPlateP@@H@Z
	??0EdbEDAArea@@QAE@XZ
	??0EdbEDAArea@@QAE@HNNNNN@Z
	?Plate@EdbEDAArea@@QAEHXZ
	?Xmin@EdbEDAArea@@QAENXZ
	?Xmax@EdbEDAArea@@QAENXZ
	?Ymin@EdbEDAArea@@QAENXZ
	?Ymax@EdbEDAArea@@QAENXZ
	?Z@EdbEDAArea@@QAENXZ
	?SetPlate@EdbEDAArea@@QAEXH@Z
	?SetXmin@EdbEDAArea@@QAEXN@Z
	?SetXmax@EdbEDAArea@@QAEXN@Z
	?SetYmin@EdbEDAArea@@QAEXN@Z
	?SetYmax@EdbEDAArea@@QAEXN@Z
	?SetZ@EdbEDAArea@@QAEXN@Z
	?GetDraw@EdbEDAArea@@QAE_NXZ
	?IsA@EdbEDAArea@@UBEPAVTClass@@XZ
	??1EdbEDAArea@@UAE@XZ
	?SetAreas@EdbEDAAreaSet@@QAEXPAVEdbPVRec@@@Z
	?SetAreas@EdbEDAAreaSet@@QAEXPAVEdbScanSet@@@Z
	?SetAreas@EdbEDAAreaSet@@QAEXPAVTObjArray@@@Z
	?AddArea@EdbEDAAreaSet@@QAEXPAVEdbEDAArea@@@Z
	?Draw@EdbEDAAreaSet@@QAEXH@Z
	?UnDraw@EdbEDAAreaSet@@QAEXH@Z
	?N@EdbEDAAreaSet@@QAEHXZ
	?GetArea@EdbEDAAreaSet@@QAEPAVEdbEDAArea@@H@Z
	?GetAreaIPL@EdbEDAAreaSet@@QAEPAVEdbEDAArea@@H@Z
	?DrawSingleVertex@EdbEDAVertexSet@@QAEXPAVEdbVertex@@@Z
	?Draw@EdbEDAVertexSet@@QAEXH@Z
	?UnDraw@EdbEDAVertexSet@@QAEXXZ
	?Draw@EdbEDAExtentionSet@@QAEXHH@Z
	?UnDraw@EdbEDAExtentionSet@@QAEXH@Z
	?DrawResolution@EdbEDAExtentionSet@@QAEXH@Z
	?GetTrack@EdbEDATrackSet@@QAEPAVEdbTrackP@@PAVEdbSegP@@@Z
	?GetScanSet@EdbEDABrickData@@QAEPAVEdbScanSet@@XZ
	?GetDataSet@EdbEDABrickData@@QAEPAVEdbDataSet@@XZ
	?GetIPL@EdbEDABrickData@@QAEHH@Z
	?GetZ@EdbEDABrickData@@QAENH@Z
	?GetZPID@EdbEDABrickData@@QAENH@Z
	?GetSelected@EdbEDASelection@@QAEPAVTObjArray@@XZ
	?GetSelectedTracks@EdbEDASelection@@QAEPAVTObjArray@@XZ
	?GetSelectedVertex@EdbEDASelection@@QAEPAVEdbVertex@@XZ
	?GetTrack@EdbEDA@@QAEPAVEdbTrackP@@PAVEdbSegP@@@Z
	?NTrackSets@EdbEDA@@QAEHXZ
	?GetTrackSet@EdbEDA@@QAEPAVEdbEDATrackSet@@H@Z
	?GetScaleZ@EdbEDA@@QAENXZ
	?Japanese@EdbEDA@@QAE_NXZ
	??$construct@PADAAPAD@?$_Wrap_alloc@V?$allocator@D@std@@@std@@QAEXPAPADAAPAD@Z
	??$destroy@PAD@?$_Wrap_alloc@V?$allocator@D@std@@@std@@QAEXPAPAD@Z
	??$addressof@D@std@@YAPADAAD@Z
	??$_Allocate@D@std@@YAPADIPAD@Z
	??$forward@AAPAD@std@@YAAAPADAAPAD@Z
	??$construct@PADAAPAD@?$allocator_traits@V?$allocator@D@std@@@std@@SAXAAV?$allocator@D@1@PAPADAAPAD@Z
	??$destroy@PAD@?$allocator_traits@V?$allocator@D@std@@@std@@SAXAAV?$allocator@D@1@PAPAD@Z
	??$construct@PADAAPAD@?$allocator@D@std@@QAEXPAPADAAPAD@Z
	??$destroy@PAD@?$allocator@D@std@@QAEXPAPAD@Z
	?_Generic_object@?$_Error_objects@H@std@@2V_Generic_error_category@2@A 	 DATA
	?_Iostream_object@?$_Error_objects@H@std@@2V_Iostream_error_category@2@A 	 DATA
	?_System_object@?$_Error_objects@H@std@@2V_System_error_category@2@A 	 DATA
	?id@?$num_put@DV?$back_insert_iterator@V?$basic_string@DU?$char_traits@D@std@@V?$allocator@D@2@@std@@@std@@@std@@2V0locale@2@A 	 DATA
	?id@?$num_put@_WV?$back_insert_iterator@V?$basic_string@_WU?$char_traits@_W@std@@V?$allocator@_W@2@@std@@@std@@@std@@2V0locale@2@A 	 DATA
	??_R0?AVTObject@@@8 	 DATA
	??_R0?AVerror_category@std@@@8 	 DATA
	??_R0?AV_Generic_error_category@std@@@8 	 DATA
	??_R0?AV_Iostream_error_category@std@@@8 	 DATA
	??_R0?AV_System_error_category@std@@@8 	 DATA
	??_R0?AVTDatime@@@8 	 DATA
	??_R0?AVEdbEDAArea@@@8 	 DATA
	hypot
	fabsf
	?fabs@@YAMM@Z
	??2@YAPAXIPAX@Z
	??3@YAXPAX0@Z
	?length@?$char_traits@D@std@@SAIPBD@Z
	?copy@?$char_traits@D@std@@SAPADPADPBDI@Z
	?move@?$char_traits@D@std@@SAPADPADPBDI@Z
	?assign@?$char_traits@D@std@@SAXAADABD@Z
	?_Adopt@_Iterator_base0@std@@QAEXPBX@Z
	??0?$allocator@D@std@@QAE@XZ
	?deallocate@?$allocator@D@std@@QAEXPADI@Z
	?allocate@?$allocator@D@std@@QAEPADI@Z
	?max_size@?$allocator@D@std@@QBEIXZ
	?max_size@?$allocator_traits@V?$allocator@D@std@@@std@@SAIABV?$allocator@D@2@@Z
	??0?$_Wrap_alloc@V?$allocator@D@std@@@std@@QAE@XZ
	?allocate@?$_Wrap_alloc@V?$allocator@D@std@@@std@@QAEPADI@Z
	?deallocate@?$_Wrap_alloc@V?$allocator@D@std@@@std@@QAEXPADI@Z
	?max_size@?$_Wrap_alloc@V?$allocator@D@std@@@std@@QBEIXZ
	??0?$_String_val@U?$_Simple_types@D@std@@@std@@QAE@XZ
	?_Myptr@?$_String_val@U?$_Simple_types@D@std@@@std@@QAEPADXZ
	?_Myptr@?$_String_val@U?$_Simple_types@D@std@@@std@@QBEPBDXZ
	??0?$_String_alloc@$0A@U?$_String_base_types@DV?$allocator@D@std@@@std@@@std@@QAE@ABV?$allocator@D@1@@Z
	?_Getal@?$_String_alloc@$0A@U?$_String_base_types@DV?$allocator@D@std@@@std@@@std@@QBE?AU?$_Wrap_alloc@V?$allocator@D@std@@@2@XZ
	??0?$basic_string@DU?$char_traits@D@std@@V?$allocator@D@2@@std@@QAE@PBD@Z
	??1?$basic_string@DU?$char_traits@D@std@@V?$allocator@D@2@@std@@QAE@XZ
	?assign@?$basic_string@DU?$char_traits@D@std@@V?$allocator@D@2@@std@@QAEAAV12@ABV12@II@Z
	?assign@?$basic_string@DU?$char_traits@D@std@@V?$allocator@D@2@@std@@QAEAAV12@PBDI@Z
	?assign@?$basic_string@DU?$char_traits@D@std@@V?$allocator@D@2@@std@@QAEAAV12@PBD@Z
	?erase@?$basic_string@DU?$char_traits@D@std@@V?$allocator@D@2@@std@@QAEAAV12@I@Z
	?erase@?$basic_string@DU?$char_traits@D@std@@V?$allocator@D@2@@std@@QAEAAV12@II@Z
	?size@?$basic_string@DU?$char_traits@D@std@@V?$allocator@D@2@@std@@QBEIXZ
	?max_size@?$basic_string@DU?$char_traits@D@std@@V?$allocator@D@2@@std@@QBEIXZ
	?_Copy@?$basic_string@DU?$char_traits@D@std@@V?$allocator@D@2@@std@@QAEXII@Z
	?_Eos@?$basic_string@DU?$char_traits@D@std@@V?$allocator@D@2@@std@@QAEXI@Z
	?_Grow@?$basic_string@DU?$char_traits@D@std@@V?$allocator@D@2@@std@@QAE_NI_N@Z
	?_Inside@?$basic_string@DU?$char_traits@D@std@@V?$allocator@D@2@@std@@QAE_NPBD@Z
	?_Tidy@?$basic_string@DU?$char_traits@D@std@@V?$allocator@D@2@@std@@QAEX_NI@Z
	?_Xlen@?$basic_string@DU?$char_traits@D@std@@V?$allocator@D@2@@std@@QBEXXZ
	?_Xran@?$basic_string@DU?$char_traits@D@std@@V?$allocator@D@2@@std@@QBEXXZ
	?generic_category@std@@YAABVerror_category@1@XZ
	?system_category@std@@YAABVerror_category@1@XZ
	??0error_category@std@@QAE@XZ
	??1error_category@std@@UAE@XZ
	?default_error_condition@error_category@std@@UBE?AVerror_condition@2@H@Z
	?equivalent@error_category@std@@UBE_NHABVerror_condition@2@@Z
	?equivalent@error_category@std@@UBE_NABVerror_code@2@H@Z
	??8error_category@std@@QBE_NABV01@@Z
	?value@error_code@std@@QBEHXZ
	?category@error_code@std@@QBEABVerror_category@2@XZ
	??0error_condition@std@@QAE@HABVerror_category@1@@Z
	?value@error_condition@std@@QBEHXZ
	?category@error_condition@std@@QBEABVerror_category@2@XZ
	??8error_condition@std@@QBE_NABV01@@Z
	??0_Generic_error_category@std@@QAE@XZ
	?name@_Generic_error_category@std@@UBEPBDXZ
	?message@_Generic_error_category@std@@UBE?AV?$basic_string@DU?$char_traits@D@std@@V?$allocator@D@2@@2@H@Z
	??1_Generic_error_category@std@@UAE@XZ
	??0_Iostream_error_category@std@@QAE@XZ
	?name@_Iostream_error_category@std@@UBEPBDXZ
	?message@_Iostream_error_category@std@@UBE?AV?$basic_string@DU?$char_traits@D@std@@V?$allocator@D@2@@2@H@Z
	??1_Iostream_error_category@std@@UAE@XZ
	??0_System_error_category@std@@QAE@XZ
	?name@_System_error_category@std@@UBEPBDXZ
	?message@_System_error_category@std@@UBE?AV?$basic_string@DU?$char_traits@D@std@@V?$allocator@D@2@@2@H@Z
	?default_error_condition@_System_error_category@std@@UBE?AVerror_condition@2@H@Z
	??1_System_error_category@std@@UAE@XZ
	?Clear@TObject@@UAEXPBD@Z
	?GetOption@TObject@@UBEPBDXZ
	?IsSortable@TObject@@UBE_NXZ
	??2TObject@@SAPAXI@Z
	?Abs@TMath@@YAHH@Z
	??0TDatime@@QAE@I_N@Z
	??1TDatime@@UAE@XZ
	?IsA@TDatime@@UBEPAVTClass@@XZ
	?GetSenderClassName@TQObject@@MBEPBDXZ
	?Connected@TQObject@@UAEXPBD@Z
	?Disconnected@TQObject@@UAEXPBD@Z
	?Destroyed@TQObject@@UAEXXZ
	?ChangedBy@TQObject@@UAEXPBD@Z
	?Message@TQObject@@UAEXPBD@Z
	?GetEntriesFast@TObjArray@@QBEHXZ
	??0_Ignore@std@@QAE@XZ
	?PickCameraCenter@TGLViewer@@QAEXXZ
	?Hash@TGObject@@UBEKXZ
	?MapWindow@TGWindow@@UAEXXZ
	?MapRaised@TGWindow@@UAEXXZ
	?UnmapWindow@TGWindow@@UAEXXZ
	?DestroyWindow@TGWindow@@UAEXXZ
	?DestroySubwindows@TGWindow@@UAEXXZ
	?RaiseWindow@TGWindow@@UAEXXZ
	?LowerWindow@TGWindow@@UAEXXZ
	?IconifyWindow@TGWindow@@UAEXXZ
	?RequestFocus@TGWindow@@UAEXXZ
	?SetBackgroundPixmap@TGWindow@@UAEXK@Z
	?HandleExpose@TGWindow@@UAE_NPAUEvent_t@@@Z
	?HandleTimer@TGWindow@@UAE_NPAVTTimer@@@Z
	?HandleIdleEvent@TGWindow@@UAE_NPAVTGIdleHandler@@@Z
	?GetEditDisabled@TGWindow@@UBEIXZ
	?SetName@TGWindow@@UAEXPBD@Z
	??0TGDimension@@QAE@II@Z
	??0TGDimension@@QAE@ABV0@@Z
	??1TGDimension@@UAE@XZ
	?IsA@TGDimension@@UBEPAVTClass@@XZ
	??0TRefCnt@@QAE@H@Z
	??1TRefCnt@@UAE@XZ
	?SetRefCount@TRefCnt@@QAEXI@Z
	??0TGLayoutHints@@QAE@KHHHH@Z
	?SetLayoutHints@TGLayoutHints@@UAEXK@Z
	?SetPadTop@TGLayoutHints@@UAEXH@Z
	?SetPadBottom@TGLayoutHints@@UAEXH@Z
	?SetPadLeft@TGLayoutHints@@UAEXH@Z
	?SetPadRight@TGLayoutHints@@UAEXH@Z
	?ls@TGLayoutHints@@UBEXPBD@Z
	?IsA@TGLayoutHints@@UBEPAVTClass@@XZ
	?GetSender@TGFrame@@MAEPAXXZ
	?ReallyDelete@TGFrame@@UAEXXZ
	?HandleSelectionRequest@TGFrame@@UAE_NPAUEvent_t@@@Z
	?HandleSelectionClear@TGFrame@@UAE_NPAUEvent_t@@@Z
	?HandleColormapChange@TGFrame@@UAE_NPAUEvent_t@@@Z
	?ProcessedConfigure@TGFrame@@UAEXPAUEvent_t@@@Z
	?ProcessedEvent@TGFrame@@UAEXPAUEvent_t@@@Z
	?GetBackground@TGFrame@@UBEKXZ
	?SetForegroundColor@TGFrame@@UAEXK@Z
	?GetOptions@TGFrame@@UBEIXZ
	?ReparentWindow@TGFrame@@UAEXPBVTGWindow@@HH@Z
	?MapWindow@TGFrame@@UAEXXZ
	?MapRaised@TGFrame@@UAEXXZ
	?UnmapWindow@TGFrame@@UAEXXZ
	?DrawCopy@TGFrame@@UAEXKHH@Z
	?Activate@TGFrame@@UAEX_N@Z
	?IsActive@TGFrame@@UBE_NXZ
	?SetX@TGFrame@@UAEXH@Z
	?SetY@TGFrame@@UAEXH@Z
	?SetWidth@TGFrame@@UAEXI@Z
	?SetHeight@TGFrame@@UAEXI@Z
	?SetMinWidth@TGFrame@@UAEXI@Z
	?SetMinHeight@TGFrame@@UAEXI@Z
	?SetMaxWidth@TGFrame@@UAEXI@Z
	?SetMaxHeight@TGFrame@@UAEXI@Z
	?SetSize@TGFrame@@UAEXABVTGDimension@@@Z
	?Delete@TGFrame@@UAEXPBD@Z
	?DrawClone@TGFrame@@UBEPAVTObject@@PBD@Z
	?DrawClass@TGFrame@@UBEXXZ
	?Dump@TGFrame@@UBEXXZ
	?Inspect@TGFrame@@UBEXXZ
	?SetDrawOption@TGFrame@@UAEXPBD@Z
	?GetDNDData@TGFrame@@UAEPAVTDNDData@@K@Z
	?HandleDNDDrop@TGFrame@@UAE_NPAVTDNDData@@@Z
	?HandleDNDPosition@TGFrame@@UAEKHHKHH@Z
	?HandleDNDEnter@TGFrame@@UAEKPAK@Z
	?HandleDNDLeave@TGFrame@@UAE_NXZ
	?HandleDNDFinished@TGFrame@@UAE_NXZ
	?GetList@TGCompositeFrame@@UBEPAVTList@@XZ
	?GetDefaultWidth@TGCompositeFrame@@UBEIXZ
	?GetDefaultHeight@TGCompositeFrame@@UBEIXZ
	?GetDefaultSize@TGCompositeFrame@@UBE?AVTGDimension@@XZ
	?HandleButton@TGCompositeFrame@@UAE_NPAUEvent_t@@@Z
	?HandleDoubleClick@TGCompositeFrame@@UAE_NPAUEvent_t@@@Z
	?HandleCrossing@TGCompositeFrame@@UAE_NPAUEvent_t@@@Z
	?HandleMotion@TGCompositeFrame@@UAE_NPAUEvent_t@@@Z
	?HandleKey@TGCompositeFrame@@UAE_NPAUEvent_t@@@Z
	?HandleFocusChange@TGCompositeFrame@@UAE_NPAUEvent_t@@@Z
	?HandleSelection@TGCompositeFrame@@UAE_NPAUEvent_t@@@Z
	?ProcessMessage@TGCompositeFrame@@UAE_NJJJ@Z
	?GetLayoutManager@TGCompositeFrame@@UBEPAVTGLayoutManager@@XZ
	?IsComposite@TGCompositeFrame@@UBE_NXZ
	?IsLayoutBroken@TGCompositeFrame@@UBE_NXZ
	?MustCleanup@TGCompositeFrame@@UBEHXZ
	?SetMapSubwindows@TGCompositeFrame@@UAEX_N@Z
	?IsMapSubwindows@TGCompositeFrame@@UBE_NXZ
	??0TGVerticalFrame@@QAE@PBVTGWindow@@IIIK@Z
	?IsA@TGVerticalFrame@@UBEPAVTClass@@XZ
	??1TGVerticalFrame@@UAE@XZ
	?_Nextnode@?$_List_val@U?$_List_simple_types@PAVTEveElement@@@std@@@std@@SAAAPAU?$_List_node@PAVTEveElement@@PAX@2@PAU32@@Z
	?_Myval@?$_List_val@U?$_List_simple_types@PAVTEveElement@@@std@@@std@@SAAAPAVTEveElement@@PAU?$_List_node@PAVTEveElement@@PAX@2@@Z
	?begin@?$list@PAVTEveElement@@V?$allocator@PAVTEveElement@@@std@@@std@@QAE?AV?$_List_iterator@V?$_List_val@U?$_List_simple_types@PAVTEveElement@@@std@@@std@@@2@XZ
	?end@?$list@PAVTEveElement@@V?$allocator@PAVTEveElement@@@std@@@std@@QAE?AV?$_List_iterator@V?$_List_val@U?$_List_simple_types@PAVTEveElement@@@std@@@std@@@2@XZ
	?BeginChildren@TEveElement@@QAE?AV?$_List_iterator@V?$_List_val@U?$_List_simple_types@PAVTEveElement@@@std@@@std@@@std@@XZ
	?EndChildren@TEveElement@@QAE?AV?$_List_iterator@V?$_List_val@U?$_List_simple_types@PAVTEveElement@@@std@@@std@@@std@@XZ
	?GetUserData@TEveElement@@QBEPAXXZ
	??0?$_List_unchecked_const_iterator@V?$_List_val@U?$_List_simple_types@PAVTEveElement@@@std@@@std@@U_Iterator_base0@2@@std@@QAE@PAU?$_List_node@PAVTEveElement@@PAX@1@PBV?$_List_val@U?$_List_simple_types@PAVTEveElement@@@std@@@1@@Z
	??0?$_List_const_iterator@V?$_List_val@U?$_List_simple_types@PAVTEveElement@@@std@@@std@@@std@@QAE@PAU?$_List_node@PAVTEveElement@@PAX@1@PBV?$_List_val@U?$_List_simple_types@PAVTEveElement@@@std@@@1@@Z
	??D?$_List_const_iterator@V?$_List_val@U?$_List_simple_types@PAVTEveElement@@@std@@@std@@@std@@QBEABQAVTEveElement@@XZ
	??E?$_List_const_iterator@V?$_List_val@U?$_List_simple_types@PAVTEveElement@@@std@@@std@@@std@@QAEAAV01@XZ
	??8?$_List_const_iterator@V?$_List_val@U?$_List_simple_types@PAVTEveElement@@@std@@@std@@@std@@QBE_NABV01@@Z
	??9?$_List_const_iterator@V?$_List_val@U?$_List_simple_types@PAVTEveElement@@@std@@@std@@@std@@QBE_NABV01@@Z
	??0?$_List_iterator@V?$_List_val@U?$_List_simple_types@PAVTEveElement@@@std@@@std@@@std@@QAE@PAU?$_List_node@PAVTEveElement@@PAX@1@PBV?$_List_val@U?$_List_simple_types@PAVTEveElement@@@std@@@1@@Z
	??D?$_List_iterator@V?$_List_val@U?$_List_simple_types@PAVTEveElement@@@std@@@std@@@std@@QBEAAPAVTEveElement@@XZ
	??E?$_List_iterator@V?$_List_val@U?$_List_simple_types@PAVTEveElement@@@std@@@std@@@std@@QAEAAV01@XZ
	??E?$_List_iterator@V?$_List_val@U?$_List_simple_types@PAVTEveElement@@@std@@@std@@@std@@QAE?AV01@H@Z
	?GetSelection@TEveManager@@QBEPAVTEveSelection@@XZ
	?GetBrowser@TEveManager@@QBEPAVTEveBrowser@@XZ
	?GetCurrentEvent@TEveManager@@QBEPAVTEveEventManager@@XZ
	?GetTabBottom@TRootBrowser@@QBEPAVTGTab@@XZ
	?WidgetId@TGWidget@@QBEHXZ
	?SetPickToSelect@TEveSelection@@QAEXH@Z
	??0TGFileInfo@@QAE@XZ
	?SetPlate@EdbSegP@@QAEXH@Z
	?ID@EdbSegP@@QBEHXZ
	?PID@EdbSegP@@QBEHXZ
	?Track@EdbSegP@@QBEHXZ
	?W@EdbSegP@@QBEMXZ
	?Chi2@EdbSegP@@QBEMXZ
	?Plate@EdbSegP@@QBEHXZ
	?GetSegment@EdbSegmentsBox@@QBEPAVEdbSegP@@H@Z
	?SetCounters@EdbTrackP@@QAEXXZ
	?SetN0@EdbTrackP@@QAEXXZ
	?SetNpl@EdbTrackP@@QAEXXZ
	?N@EdbTrackP@@QBEHXZ
	?GetSegmentFirst@EdbTrackP@@QBEPAVEdbSegP@@XZ
	?GetSegment@EdbTrackP@@QBEPAVEdbSegP@@H@Z
	?Plate@EdbPattern@@QBEHXZ
	?Npatterns@EdbPatternsVolume@@QBEHXZ
	?SetZpos@EdbVTA@@QAEXH@Z
	?SetFlag@EdbVTA@@QAEXH@Z
	?SetImp@EdbVTA@@QAEXM@Z
	?ID@EdbVertex@@QBEHXZ
	?X@EdbVertex@@QBEMXZ
	?Y@EdbVertex@@QBEMXZ
	?Z@EdbVertex@@QBEMXZ
	?SetID@EdbVertex@@QAEXH@Z
	?At@TIndexCell@@QBEPAV1@H@Z
	?Value@TIndexCell@@QBEJXZ
	?ID@EdbLayer@@QBEHXZ
	?Z@EdbLayer@@QBEMXZ
	?Plate@EdbDataPiece@@QBEHXZ
	?GetLayer@EdbDataPiece@@QAEPAVEdbLayer@@H@Z
	?N@EdbDataSet@@QBEHXZ
	?GetPiece@EdbDataSet@@QAEPAVEdbDataPiece@@H@Z
	?Npl@EdbBrickP@@QBEHXZ
	?GetPlate@EdbBrickP@@QAEPAVEdbPlateP@@H@Z
	?Brick@EdbScanSet@@QAEAAVEdbBrickP@@XZ
	?GetPlate@EdbScanSet@@QAEPAVEdbPlateP@@H@Z
	?SetDrawG@EdbEDAAreaSet@@QAEX_N@Z
	?SetVertexAttribute@EdbEDAVertexSet@@QAEXHHH@Z
	?SetColorMode@EdbEDAVertexSet@@QAEXH@Z
	?AddVertex@EdbEDAVertexSet@@QAEXPAVEdbVertex@@@Z
	?SetVertex@EdbEDAVertexSet@@QAEXPAVEdbVertex@@@Z
	?RestorePrevious@EdbEDAVertexSet@@QAEXXZ
	?StorePrevious@EdbEDAVertexSet@@QAEXXZ
	?RemoveVertex@EdbEDAVertexSet@@QAEXPAVEdbVertex@@@Z
	?ClearVertices@EdbEDAVertexSet@@QAEXXZ
	?Clear@EdbEDAVertexSet@@QAEXXZ
	?N@EdbEDAVertexSet@@QAEHXZ
	?Enable@EdbEDAExtentionSet@@QAEXXZ
	?Disable@EdbEDAExtentionSet@@QAEXXZ
	?SetZ@EdbEDAExtentionSet@@QAEXN@Z
	?GetZ@EdbEDAExtentionSet@@QAENXZ
	??0EdbEDATrackComment@@QAE@PAVEdbTrackP@@PAD@Z
	?IsA@EdbEDATrackComment@@UBEPAVTClass@@XZ
	??1EdbEDATrackComment@@UAE@XZ
	?SetNsegCut@EdbEDATrackSelection@@QAEXH@Z
	?SetUpstreamPlate@EdbEDATrackSelection@@QAEXH@Z
	?SetImpactSearch@EdbEDATrackSelection@@QAEX_NPAVEdbVertex@@@Z
	?SetNeighborSearch@EdbEDATrackSelection@@QAEX_NPAVTObjArray@@NN@Z
	?SetSideOut@EdbEDATrackSelection@@QAEX_N@Z
	?SetSideOutPlate@EdbEDATrackSelection@@QAEXH@Z
	?SetAngularCut@EdbEDATrackSelection@@QAEX_N@Z
	?SetDX@EdbEDATrackSelection@@QAEXN@Z
	?SetDT@EdbEDATrackSelection@@QAEXNN@Z
	?SetAngle@EdbEDATrackSelection@@QAEXNN@Z
	?SetClearPrevious@EdbEDATrackSelection@@QAEX_N@Z
	?SetPHCut@EdbEDATrackSelection@@QAEXN@Z
	?SetPHDTRMS@EdbEDATrackSelection@@QAEXN@Z
	?GetImpactSearch@EdbEDATrackSelection@@QAE_NXZ
	?GetUpstreamPlate@EdbEDATrackSelection@@QAEHXZ
	?GetNsegCut@EdbEDATrackSelection@@QAEHXZ
	?GetPHCut@EdbEDATrackSelection@@QAENXZ
	?GetPHDTRMS@EdbEDATrackSelection@@QAENXZ
	?GetSideOutPlate@EdbEDATrackSelection@@QAEHXZ
	?AddTrack@EdbEDATrackSet@@QAEXPAVEdbTrackP@@@Z
	?SetTrack@EdbEDATrackSet@@QAEXPAVEdbTrackP@@@Z
	?SetTracks@EdbEDATrackSet@@QAEXPAVTObjArray@@@Z
	?RemoveTrackBase@EdbEDATrackSet@@QAEXPAVEdbTrackP@@@Z
	?RemoveTrack@EdbEDATrackSet@@QAEXPAVEdbTrackP@@@Z
	?RemoveTracks@EdbEDATrackSet@@QAEXPAVTObjArray@@@Z
	?ClearTracks@EdbEDATrackSet@@QAEXXZ
	?RestorePrevious@EdbEDATrackSet@@QAEXXZ
	?StorePrevious@EdbEDATrackSet@@QAEXXZ
	?SearchTrack@EdbEDATrackSet@@QAEPAVEdbTrackP@@H@Z
	?AddSegments@EdbEDATrackSet@@QAEXPAVTObjArray@@@Z
	?GetTrack@EdbEDATrackSet@@QAEPAVEdbTrackP@@PAVEdbSegP@@@Z
	?N@EdbEDATrackSet@@QAEHXZ
	?NBase@EdbEDATrackSet@@QAEHXZ
	?GetTrack@EdbEDATrackSet@@QAEPAVEdbTrackP@@H@Z
	?GetTrackBase@EdbEDATrackSet@@QAEPAVEdbTrackP@@H@Z
	?IsMember@EdbEDATrackSet@@QAE_NPAVEdbTrackP@@@Z
	?FindUpstreamPlate@EdbEDATrackSet@@QAEHXZ
	?AddComment@EdbEDATrackSet@@QAEXPAVEdbTrackP@@PAD@Z
	?ClearComments@EdbEDATrackSet@@QAEXXZ
	?DoSelection@EdbEDATrackSet@@QAEXXZ
	?SetDraw@EdbEDATrackSet@@QAEX_N@Z
	?GetDraw@EdbEDATrackSet@@QAE_NXZ
	?SetDrawTrackIDG@EdbEDATrackSet@@QAEX_N@Z
	?SetDrawTrackAngleG@EdbEDATrackSet@@QAEX_N@Z
	?GetAreaSet@EdbEDATrackSet@@QAEPAVEdbEDAAreaSet@@XZ
	?Select@EdbEDATrackSetTab@@QAEXH@Z
	?MakeGUIMain@EdbEDAMainTab@@QAEXXZ
	?MakeGUICuts@EdbEDAMainTab@@QAEXPAVTGGroupFrame@@@Z
	?MakeGUIIDSearch@EdbEDAMainTab@@QAEXXZ
	?Redo@EdbEDAMainTab@@QAEXXZ
	?ExecTrackSearch@EdbEDAMainTab@@QAEXXZ
	?ExecSegmentSearch@EdbEDAMainTab@@QAEXXZ
	?ExecCuts@EdbEDAMainTab@@QAEXH@Z
	?ApplyParams@EdbEDAMainTab@@QAEXXZ
	?SearchCouplesIP@EdbEDAMainTab@@QAEXHNNNNPAVTObjArray@@@Z
	?SearchCouplesIP@EdbEDAMainTab@@QAEXHPAVEdbVertex@@NPAVTObjArray@@@Z
	?SearchCouplesIP@EdbEDAMainTab@@QAEXPAVTObjArray@@@Z
	?SearchCouplesDmin@EdbEDAMainTab@@QAEXPAVTObjArray@@H@Z
	?SearchCouplesDmin@EdbEDAMainTab@@QAEXPAVTObjArray@@@Z
	?ClearTracks@EdbEDAMainTab@@QAEXXZ
	?ClearVertices@EdbEDAMainTab@@QAEXXZ
	?SetPickSegment@EdbEDAMainTab@@QAEXXZ
	?SetPickTrack@EdbEDAMainTab@@QAEXXZ
	?DrawOnlySelected@EdbEDAMainTab@@QAEXXZ
	?RemoveSelected@EdbEDAMainTab@@QAEXXZ
	?SelectAll@EdbEDAMainTab@@QAEXXZ
	?SetExtention@EdbEDAMainTab@@QAEXXZ
	?SetDrawText@EdbEDAMainTab@@QAEXXZ
	?SetDrawTrackSets@EdbEDAMainTab@@QAEX_N@Z
	?SetDrawCheckBox@EdbEDAMainTab@@QAEXXZ
	?SetExtentionZSlider@EdbEDAMainTab@@QAEXXZ
	?SetExtentionZNumber@EdbEDAMainTab@@QAEXXZ
	?DrawExtentionResolution@EdbEDAMainTab@@QAEXXZ
	?GetPHCut@EdbEDAMainTab@@QAENXZ
	?CalcMinimumDistance@EdbEDAMainTab@@QAEXXZ
	?CalcVertex@EdbEDAMainTab@@QAEXH@Z
	?CalcVertexPlus@EdbEDAMainTab@@QAEXXZ
	?CalcPSelected@EdbEDAMainTab@@QAEXXZ
	?CalcIP@EdbEDAMainTab@@QAEXXZ
	?SetDrawAreas@EdbEDAMainTab@@QAEXXZ
	?PickCenter@EdbEDAMainTab@@QAEXXZ
	?SetAnimation@EdbEDAMainTab@@QAEXXZ
	?SetColorMode@EdbEDAMainTab@@QAEXXZ
	?ReadListFile@EdbEDAMainTab@@QAEXPAD_N@Z
	?WriteListFile@EdbEDAMainTab@@QAEPADPAD@Z
	?ReadFilteredText@EdbEDAMainTab@@QAEXXZ
	?WriteFilteredText@EdbEDAMainTab@@QAEXXZ
	?SetProjection@EdbEDAMainTab@@QAEXXZ
	?WriteFeedback@EdbEDAMainTab@@QAEXXZ
	?ReadFeedback@EdbEDAMainTab@@QAEXXZ
	?WriteMxxFile@EdbEDAMainTab@@QAEXXZ
	?SetOutputFileModeButton@EdbEDAMainTab@@QAEXXZ
	?MicroTrackSearch@EdbEDAMainTab@@QAEXXZ
	?GetNPL@EdbEDABrickData@@QAEHXZ
	?GetIPL@EdbEDABrickData@@QAEHH@Z
	?GetZ@EdbEDABrickData@@QAENH@Z
	?GetZPID@EdbEDABrickData@@QAENH@Z
	?GetSelected@EdbEDASelection@@QAEPAVTObjArray@@XZ
	?GetSelectedTracks@EdbEDASelection@@QAEPAVTObjArray@@XZ
	?NSelectedTracks@EdbEDASelection@@QAEHXZ
	?NSelected@EdbEDASelection@@QAEHXZ
	?GetSelectedTrack@EdbEDASelection@@QAEPAVEdbTrackP@@H@Z
	?GetSelectedTrack@EdbEDASelection@@QAEPAVEdbTrackP@@PAVEdbSegP@@@Z
	?GetSelectedVertex@EdbEDASelection@@QAEPAVEdbVertex@@XZ
	?SetSelectedVertex@EdbEDASelection@@QAEXPAVEdbVertex@@@Z
	?NDrawObjects@EdbEDA@@QAEHXZ
	?GetDrawObject@EdbEDA@@QAEPAVEdbEDAObject@@H@Z
	?GetCurrentTracks@EdbEDA@@QAEPAVTObjArray@@XZ
	?GetTrack@EdbEDA@@QAEPAVEdbTrackP@@PAVEdbSegP@@@Z
	?NTrackSets@EdbEDA@@QAEHXZ
	?GetTrackSet@EdbEDA@@QAEPAVEdbEDATrackSet@@H@Z
	?GetTrackSet@EdbEDA@@QAEPAVEdbEDATrackSet@@PAD@Z
	?GetTrackSet@EdbEDA@@QAEPAVEdbEDATrackSet@@PAVEdbTrackP@@@Z
	?RemoveSelected@EdbEDA@@QAEXXZ
	?GetVertexSet@EdbEDA@@QAEPAVEdbEDAVertexSet@@XZ
	?AddVertex@EdbEDA@@QAEXPAVEdbVertex@@@Z
	?ClearVertices@EdbEDA@@QAEXXZ
	?SetDrawTrackID@EdbEDA@@QAEX_N@Z
	?SetDrawTrackAngle@EdbEDA@@QAEX_N@Z
	?SetDrawAreaSet@EdbEDA@@QAEX_N@Z
	?Redraw@EdbEDA@@QAEXXZ
	?StorePrevious@EdbEDA@@QAEXXZ
	?RestorePrevious@EdbEDA@@QAEXXZ
	?GetExtentionSet@EdbEDA@@QAEPAVEdbEDAExtentionSet@@XZ
	?SetColorMode@EdbEDA@@QAEXH@Z
	?GetTrackSetTab@EdbEDA@@QAEPAVEdbEDATrackSetTab@@XZ
	?Japanese@EdbEDA@@QAE_NXZ
	??$construct@PADAAPAD@?$_Wrap_alloc@V?$allocator@D@std@@@std@@QAEXPAPADAAPAD@Z
	??$destroy@PAD@?$_Wrap_alloc@V?$allocator@D@std@@@std@@QAEXPAPAD@Z
	??$addressof@D@std@@YAPADAAD@Z
	??$_Allocate@D@std@@YAPADIPAD@Z
	??$forward@AAPAD@std@@YAAAPADAAPAD@Z
	??$construct@PADAAPAD@?$allocator_traits@V?$allocator@D@std@@@std@@SAXAAV?$allocator@D@1@PAPADAAPAD@Z
	??$destroy@PAD@?$allocator_traits@V?$allocator@D@std@@@std@@SAXAAV?$allocator@D@1@PAPAD@Z
	??$construct@PADAAPAD@?$allocator@D@std@@QAEXPAPADAAPAD@Z
	??$destroy@PAD@?$allocator@D@std@@QAEXPAPAD@Z
	?IsA@TGVerticalFrame@@WDA@BEPAVTClass@@XZ
	?ShowMembers@TGVerticalFrame@@WDA@AEXAAVTMemberInspector@@@Z
	?Streamer@TGVerticalFrame@@WDA@AEXAAVTBuffer@@@Z
	?_Generic_object@?$_Error_objects@H@std@@2V_Generic_error_category@2@A 	 DATA
	?_Iostream_object@?$_Error_objects@H@std@@2V_Iostream_error_category@2@A 	 DATA
	?_System_object@?$_Error_objects@H@std@@2V_System_error_category@2@A 	 DATA
	?id@?$num_put@DV?$back_insert_iterator@V?$basic_string@DU?$char_traits@D@std@@V?$allocator@D@2@@std@@@std@@@std@@2V0locale@2@A 	 DATA
	?id@?$num_put@_WV?$back_insert_iterator@V?$basic_string@_WU?$char_traits@_W@std@@V?$allocator@_W@2@@std@@@std@@@std@@2V0locale@2@A 	 DATA
	??_R0?AVTObject@@@8 	 DATA
	??_R0?AVerror_category@std@@@8 	 DATA
	??_R0?AV_Generic_error_category@std@@@8 	 DATA
	??_R0?AV_Iostream_error_category@std@@@8 	 DATA
	??_R0?AV_System_error_category@std@@@8 	 DATA
	??_R0?AVTQObject@@@8 	 DATA
	??_R0?AVTDatime@@@8 	 DATA
	??_R0?AVTGWindow@@@8 	 DATA
	??_R0?AVTGObject@@@8 	 DATA
	??_R0?AVTRefCnt@@@8 	 DATA
	??_R0?AVTGDimension@@@8 	 DATA
	??_R0?AVTGLayoutHints@@@8 	 DATA
	??_R0?AVTGVerticalFrame@@@8 	 DATA
	??_R0?AVTGCompositeFrame@@@8 	 DATA
	??_R0?AVTGFrame@@@8 	 DATA
	??_R0?AVEdbEDATrackComment@@@8 	 DATA
	hypot
	??2@YAPAXIPAX@Z
	??3@YAXPAX0@Z
	?length@?$char_traits@D@std@@SAIPBD@Z
	?copy@?$char_traits@D@std@@SAPADPADPBDI@Z
	?move@?$char_traits@D@std@@SAPADPADPBDI@Z
	?assign@?$char_traits@D@std@@SAXAADABD@Z
	??0?$allocator@D@std@@QAE@XZ
	?deallocate@?$allocator@D@std@@QAEXPADI@Z
	?allocate@?$allocator@D@std@@QAEPADI@Z
	?max_size@?$allocator@D@std@@QBEIXZ
	?max_size@?$allocator_traits@V?$allocator@D@std@@@std@@SAIABV?$allocator@D@2@@Z
	??0?$_Wrap_alloc@V?$allocator@D@std@@@std@@QAE@XZ
	?allocate@?$_Wrap_alloc@V?$allocator@D@std@@@std@@QAEPADI@Z
	?deallocate@?$_Wrap_alloc@V?$allocator@D@std@@@std@@QAEXPADI@Z
	?max_size@?$_Wrap_alloc@V?$allocator@D@std@@@std@@QBEIXZ
	??0?$_String_val@U?$_Simple_types@D@std@@@std@@QAE@XZ
	?_Myptr@?$_String_val@U?$_Simple_types@D@std@@@std@@QAEPADXZ
	?_Myptr@?$_String_val@U?$_Simple_types@D@std@@@std@@QBEPBDXZ
	??0?$_String_alloc@$0A@U?$_String_base_types@DV?$allocator@D@std@@@std@@@std@@QAE@ABV?$allocator@D@1@@Z
	?_Getal@?$_String_alloc@$0A@U?$_String_base_types@DV?$allocator@D@std@@@std@@@std@@QBE?AU?$_Wrap_alloc@V?$allocator@D@std@@@2@XZ
	??0?$basic_string@DU?$char_traits@D@std@@V?$allocator@D@2@@std@@QAE@PBD@Z
	??1?$basic_string@DU?$char_traits@D@std@@V?$allocator@D@2@@std@@QAE@XZ
	?assign@?$basic_string@DU?$char_traits@D@std@@V?$allocator@D@2@@std@@QAEAAV12@ABV12@II@Z
	?assign@?$basic_string@DU?$char_traits@D@std@@V?$allocator@D@2@@std@@QAEAAV12@PBDI@Z
	?assign@?$basic_string@DU?$char_traits@D@std@@V?$allocator@D@2@@std@@QAEAAV12@PBD@Z
	?erase@?$basic_string@DU?$char_traits@D@std@@V?$allocator@D@2@@std@@QAEAAV12@I@Z
	?erase@?$basic_string@DU?$char_traits@D@std@@V?$allocator@D@2@@std@@QAEAAV12@II@Z
	?size@?$basic_string@DU?$char_traits@D@std@@V?$allocator@D@2@@std@@QBEIXZ
	?max_size@?$basic_string@DU?$char_traits@D@std@@V?$allocator@D@2@@std@@QBEIXZ
	?_Copy@?$basic_string@DU?$char_traits@D@std@@V?$allocator@D@2@@std@@QAEXII@Z
	?_Eos@?$basic_string@DU?$char_traits@D@std@@V?$allocator@D@2@@std@@QAEXI@Z
	?_Grow@?$basic_string@DU?$char_traits@D@std@@V?$allocator@D@2@@std@@QAE_NI_N@Z
	?_Inside@?$basic_string@DU?$char_traits@D@std@@V?$allocator@D@2@@std@@QAE_NPBD@Z
	?_Tidy@?$basic_string@DU?$char_traits@D@std@@V?$allocator@D@2@@std@@QAEX_NI@Z
	?_Xlen@?$basic_string@DU?$char_traits@D@std@@V?$allocator@D@2@@std@@QBEXXZ
	?_Xran@?$basic_string@DU?$char_traits@D@std@@V?$allocator@D@2@@std@@QBEXXZ
	?generic_category@std@@YAABVerror_category@1@XZ
	?system_category@std@@YAABVerror_category@1@XZ
	??0error_category@std@@QAE@XZ
	??1error_category@std@@UAE@XZ
	?default_error_condition@error_category@std@@UBE?AVerror_condition@2@H@Z
	?equivalent@error_category@std@@UBE_NHABVerror_condition@2@@Z
	?equivalent@error_category@std@@UBE_NABVerror_code@2@H@Z
	??8error_category@std@@QBE_NABV01@@Z
	?value@error_code@std@@QBEHXZ
	?category@error_code@std@@QBEABVerror_category@2@XZ
	??0error_condition@std@@QAE@HABVerror_category@1@@Z
	?value@error_condition@std@@QBEHXZ
	?category@error_condition@std@@QBEABVerror_category@2@XZ
	??8error_condition@std@@QBE_NABV01@@Z
	??0_Generic_error_category@std@@QAE@XZ
	?name@_Generic_error_category@std@@UBEPBDXZ
	?message@_Generic_error_category@std@@UBE?AV?$basic_string@DU?$char_traits@D@std@@V?$allocator@D@2@@2@H@Z
	??1_Generic_error_category@std@@UAE@XZ
	??0_Iostream_error_category@std@@QAE@XZ
	?name@_Iostream_error_category@std@@UBEPBDXZ
	?message@_Iostream_error_category@std@@UBE?AV?$basic_string@DU?$char_traits@D@std@@V?$allocator@D@2@@2@H@Z
	??1_Iostream_error_category@std@@UAE@XZ
	??0_System_error_category@std@@QAE@XZ
	?name@_System_error_category@std@@UBEPBDXZ
	?message@_System_error_category@std@@UBE?AV?$basic_string@DU?$char_traits@D@std@@V?$allocator@D@2@@2@H@Z
	?default_error_condition@_System_error_category@std@@UBE?AVerror_condition@2@H@Z
	??1_System_error_category@std@@UAE@XZ
	?Clear@TObject@@UAEXPBD@Z
	?GetOption@TObject@@UBEPBDXZ
	?IsSortable@TObject@@UBE_NXZ
	??2TObject@@SAPAXI@Z
	?Abs@TMath@@YAHH@Z
	?IsLong@TString@@ABE_NXZ
	?GetLongPointer@TString@@ABEPBDXZ
	?GetShortPointer@TString@@ABEPBDXZ
	?GetPointer@TString@@ABEPBDXZ
	??BTString@@QBEPBDXZ
	?Contains@TString@@QBE_NPBDW4ECaseCompare@1@@Z
	?Data@TString@@QBEPBDXZ
	??0TCollection@@IAE@XZ
	??1TCollection@@UAE@XZ
	?GetEntries@TCollection@@UBEHXZ
	?GetSize@TCollection@@UBEHXZ
	?Hash@TCollection@@UBEKXZ
	?IsEmpty@TCollection@@UBE_NXZ
	?IsFolder@TCollection@@UBE_NXZ
	?IsSortable@TCollection@@UBE_NXZ
	?MakeReverseIterator@TCollection@@UBEPAVTIterator@@XZ
	?IsA@TCollection@@UBEPAVTClass@@XZ
	??0TSeqCollection@@IAE@XZ
	?Changed@TSeqCollection@@MAEXXZ
	??1TSeqCollection@@UAE@XZ
	?Add@TSeqCollection@@UAEXPAVTObject@@@Z
	?RemoveFirst@TSeqCollection@@UAEXXZ
	?RemoveLast@TSeqCollection@@UAEXXZ
	?RemoveAt@TSeqCollection@@UAEPAVTObject@@H@Z
	?RemoveAfter@TSeqCollection@@UAEXPAVTObject@@@Z
	?RemoveBefore@TSeqCollection@@UAEXPAVTObject@@@Z
	?IsSorted@TSeqCollection@@UBE_NXZ
	?IsA@TSeqCollection@@UBEPAVTClass@@XZ
	??0TList@@QAE@XZ
	?Add@TList@@UAEXPAVTObject@@@Z
	?Add@TList@@UAEXPAVTObject@@PBD@Z
	?FirstLink@TList@@UBEPAVTObjLink@@XZ
	?LastLink@TList@@UBEPAVTObjLink@@XZ
	?IsA@TList@@UBEPAVTClass@@XZ
	??0TDatime@@QAE@I_N@Z
	??1TDatime@@UAE@XZ
	?IsA@TDatime@@UBEPAVTClass@@XZ
	?GetSenderClassName@TQObject@@MBEPBDXZ
	?Connected@TQObject@@UAEXPBD@Z
	?Disconnected@TQObject@@UAEXPBD@Z
	?Destroyed@TQObject@@UAEXXZ
	?ChangedBy@TQObject@@UAEXPBD@Z
	?Message@TQObject@@UAEXPBD@Z
	?GetEntriesFast@TObjArray@@QBEHXZ
	??0_Ignore@std@@QAE@XZ
	?Hash@TGObject@@UBEKXZ
	?MapWindow@TGWindow@@UAEXXZ
	?MapRaised@TGWindow@@UAEXXZ
	?UnmapWindow@TGWindow@@UAEXXZ
	?DestroyWindow@TGWindow@@UAEXXZ
	?DestroySubwindows@TGWindow@@UAEXXZ
	?RaiseWindow@TGWindow@@UAEXXZ
	?LowerWindow@TGWindow@@UAEXXZ
	?IconifyWindow@TGWindow@@UAEXXZ
	?RequestFocus@TGWindow@@UAEXXZ
	?SetBackgroundPixmap@TGWindow@@UAEXK@Z
	?HandleExpose@TGWindow@@UAE_NPAUEvent_t@@@Z
	?HandleTimer@TGWindow@@UAE_NPAVTTimer@@@Z
	?HandleIdleEvent@TGWindow@@UAE_NPAVTGIdleHandler@@@Z
	?GetEditDisabled@TGWindow@@UBEIXZ
	?SetName@TGWindow@@UAEXPBD@Z
	??0TGDimension@@QAE@II@Z
	??0TGDimension@@QAE@ABV0@@Z
	??1TGDimension@@UAE@XZ
	?IsA@TGDimension@@UBEPAVTClass@@XZ
	??0TRefCnt@@QAE@H@Z
	??1TRefCnt@@UAE@XZ
	?SetRefCount@TRefCnt@@QAEXI@Z
	??0TGLayoutHints@@QAE@KHHHH@Z
	?SetLayoutHints@TGLayoutHints@@UAEXK@Z
	?SetPadTop@TGLayoutHints@@UAEXH@Z
	?SetPadBottom@TGLayoutHints@@UAEXH@Z
	?SetPadLeft@TGLayoutHints@@UAEXH@Z
	?SetPadRight@TGLayoutHints@@UAEXH@Z
	?ls@TGLayoutHints@@UBEXPBD@Z
	?IsA@TGLayoutHints@@UBEPAVTClass@@XZ
	?GetSender@TGFrame@@MAEPAXXZ
	?ReallyDelete@TGFrame@@UAEXXZ
	?HandleSelectionRequest@TGFrame@@UAE_NPAUEvent_t@@@Z
	?HandleSelectionClear@TGFrame@@UAE_NPAUEvent_t@@@Z
	?HandleColormapChange@TGFrame@@UAE_NPAUEvent_t@@@Z
	?ProcessedConfigure@TGFrame@@UAEXPAUEvent_t@@@Z
	?ProcessedEvent@TGFrame@@UAEXPAUEvent_t@@@Z
	?GetBackground@TGFrame@@UBEKXZ
	?SetForegroundColor@TGFrame@@UAEXK@Z
	?GetOptions@TGFrame@@UBEIXZ
	?ReparentWindow@TGFrame@@UAEXPBVTGWindow@@HH@Z
	?MapWindow@TGFrame@@UAEXXZ
	?MapRaised@TGFrame@@UAEXXZ
	?UnmapWindow@TGFrame@@UAEXXZ
	?DrawCopy@TGFrame@@UAEXKHH@Z
	?Activate@TGFrame@@UAEX_N@Z
	?IsActive@TGFrame@@UBE_NXZ
	?GetWidth@TGFrame@@QBEIXZ
	?GetHeight@TGFrame@@QBEIXZ
	?GetX@TGFrame@@QBEHXZ
	?GetY@TGFrame@@QBEHXZ
	?SetX@TGFrame@@UAEXH@Z
	?SetY@TGFrame@@UAEXH@Z
	?SetWidth@TGFrame@@UAEXI@Z
	?SetHeight@TGFrame@@UAEXI@Z
	?SetMinWidth@TGFrame@@UAEXI@Z
	?SetMinHeight@TGFrame@@UAEXI@Z
	?SetMaxWidth@TGFrame@@UAEXI@Z
	?SetMaxHeight@TGFrame@@UAEXI@Z
	?SetSize@TGFrame@@UAEXABVTGDimension@@@Z
	?Delete@TGFrame@@UAEXPBD@Z
	?DrawClone@TGFrame@@UBEPAVTObject@@PBD@Z
	?DrawClass@TGFrame@@UBEXXZ
	?Dump@TGFrame@@UBEXXZ
	?Inspect@TGFrame@@UBEXXZ
	?SetDrawOption@TGFrame@@UAEXPBD@Z
	?GetDNDData@TGFrame@@UAEPAVTDNDData@@K@Z
	?HandleDNDDrop@TGFrame@@UAE_NPAVTDNDData@@@Z
	?HandleDNDPosition@TGFrame@@UAEKHHKHH@Z
	?HandleDNDEnter@TGFrame@@UAEKPAK@Z
	?HandleDNDLeave@TGFrame@@UAE_NXZ
	?HandleDNDFinished@TGFrame@@UAE_NXZ
	?GetList@TGCompositeFrame@@UBEPAVTList@@XZ
	?GetDefaultWidth@TGCompositeFrame@@UBEIXZ
	?GetDefaultHeight@TGCompositeFrame@@UBEIXZ
	?GetDefaultSize@TGCompositeFrame@@UBE?AVTGDimension@@XZ
	?HandleButton@TGCompositeFrame@@UAE_NPAUEvent_t@@@Z
	?HandleDoubleClick@TGCompositeFrame@@UAE_NPAUEvent_t@@@Z
	?HandleCrossing@TGCompositeFrame@@UAE_NPAUEvent_t@@@Z
	?HandleMotion@TGCompositeFrame@@UAE_NPAUEvent_t@@@Z
	?HandleKey@TGCompositeFrame@@UAE_NPAUEvent_t@@@Z
	?HandleFocusChange@TGCompositeFrame@@UAE_NPAUEvent_t@@@Z
	?HandleSelection@TGCompositeFrame@@UAE_NPAUEvent_t@@@Z
	?ProcessMessage@TGCompositeFrame@@UAE_NJJJ@Z
	?GetLayoutManager@TGCompositeFrame@@UBEPAVTGLayoutManager@@XZ
	?IsComposite@TGCompositeFrame@@UBE_NXZ
	?IsLayoutBroken@TGCompositeFrame@@UBE_NXZ
	?MustCleanup@TGCompositeFrame@@UBEHXZ
	?SetMapSubwindows@TGCompositeFrame@@UAEX_N@Z
	?IsMapSubwindows@TGCompositeFrame@@UBE_NXZ
	??0TGVerticalFrame@@QAE@PBVTGWindow@@IIIK@Z
	?IsA@TGVerticalFrame@@UBEPAVTClass@@XZ
	??1TGVerticalFrame@@UAE@XZ
	?GetIconName@TGMainFrame@@UBEPBDXZ
	??1TGTransientFrame@@UAE@XZ
	?GetBrowser@TEveManager@@QBEPAVTEveBrowser@@XZ
	?GetString@TGTextBuffer@@QBEPBDXZ
	?GetText@TGTextEntry@@QBEPBDXZ
	??0TGFileInfo@@QAE@XZ
	??0TSortedList@@QAE@_N@Z
	?IsSorted@TSortedList@@UBE_NXZ
	?AddFirst@TSortedList@@UAEXPAVTObject@@@Z
	?AddFirst@TSortedList@@UAEXPAVTObject@@PBD@Z
	?AddLast@TSortedList@@UAEXPAVTObject@@@Z
	?AddLast@TSortedList@@UAEXPAVTObject@@PBD@Z
	?AddAt@TSortedList@@UAEXPAVTObject@@H@Z
	?AddAfter@TSortedList@@UAEXPBVTObject@@PAV2@@Z
	?AddAfter@TSortedList@@UAEXPAVTObjLink@@PAVTObject@@@Z
	?AddBefore@TSortedList@@UAEXPBVTObject@@PAV2@@Z
	?AddBefore@TSortedList@@UAEXPAVTObjLink@@PAVTObject@@@Z
	?Sort@TSortedList@@UAEX_N@Z
	?IsA@TSortedList@@UBEPAVTClass@@XZ
	??1TSortedList@@UAE@XZ
	??1EdbPoint@@UAE@XZ
	?Transform@EdbPoint@@UAEXPBVEdbAffine2D@@@Z
	?Transform@EdbPoint@@UAEXPBVEdbAffine3D@@@Z
	?Test@EdbPoint@@UBEXXZ
	?IsA@EdbPoint@@UBEPAVTClass@@XZ
	??0EdbPoint@@QAE@XZ
	??4EdbPoint@@QAEAAV0@ABV0@@Z
	??1EdbAngle2D@@UAE@XZ
	?Test@EdbAngle2D@@UBEXXZ
	?IsA@EdbAngle2D@@UBEPAVTClass@@XZ
	??0EdbAngle2D@@QAE@XZ
	??4EdbAngle2D@@QAEAAV0@ABV0@@Z
	??1EdbPoint2D@@UAE@XZ
	?Z@EdbPoint2D@@UBEMXZ
	?SetZ@EdbPoint2D@@UAEXM@Z
	?Test@EdbPoint2D@@UBEXXZ
	?TestPoint2D@EdbPoint2D@@UBEXXZ
	?IsA@EdbPoint2D@@UBEPAVTClass@@XZ
	??0EdbPoint2D@@QAE@XZ
	??4EdbPoint2D@@QAEAAV0@ABV0@@Z
	??1EdbTrack2D@@UAE@XZ
	?Test@EdbTrack2D@@UBEXXZ
	?IsA@EdbTrack2D@@UBEPAVTClass@@XZ
	??0EdbTrack2D@@QAE@XZ
	??4EdbTrack2D@@QAEAAV0@ABV0@@Z
	??0EdbID@@QAE@HHHH@Z
	??1EdbID@@UAE@XZ
	?Set@EdbID@@QAEXHHHH@Z
	?IsA@EdbID@@UBEPAVTClass@@XZ
	??4EdbID@@QAEAAV0@ABV0@@Z
	??0EdbSegP@@QAE@ABV0@@Z
	??1EdbSegP@@UAE@XZ
	?Set@EdbSegP@@QAEXHMMMMMH@Z
	?SetZ@EdbSegP@@UAEXM@Z
	?SetID@EdbSegP@@QAEXH@Z
	?SetPID@EdbSegP@@QAEXH@Z
	?SetTrack@EdbSegP@@QAEXH@Z
	?SetPlate@EdbSegP@@QAEXH@Z
	?MCEvt@EdbSegP@@QBEHXZ
	?ID@EdbSegP@@QBEHXZ
	?PID@EdbSegP@@QBEHXZ
	?Flag@EdbSegP@@QBEHXZ
	?W@EdbSegP@@QBEMXZ
	?Z@EdbSegP@@UBEMXZ
	?Plate@EdbSegP@@QBEHXZ
	?X@EdbSegP@@UBEMXZ
	?Y@EdbSegP@@UBEMXZ
	?TX@EdbSegP@@UBEMXZ
	?TY@EdbSegP@@UBEMXZ
	?SetX@EdbSegP@@UAEXM@Z
	?SetY@EdbSegP@@UAEXM@Z
	?SetTX@EdbSegP@@UAEXM@Z
	?SetTY@EdbSegP@@UAEXM@Z
	?IsSortable@EdbSegP@@UBE_NXZ
	?IsA@EdbSegP@@UBEPAVTClass@@XZ
	??4EdbSegP@@QAEAAV0@ABV0@@Z
	?GetSegment@EdbSegmentsBox@@QBEPAVEdbSegP@@H@Z
	?SetCounters@EdbTrackP@@QAEXXZ
	?SetN0@EdbTrackP@@QAEXXZ
	?SetNpl@EdbTrackP@@QAEXXZ
	?N@EdbTrackP@@QBEHXZ
	?GetSegmentFirst@EdbTrackP@@QBEPAVEdbSegP@@XZ
	?GetSegmentLast@EdbTrackP@@QBEPAVEdbSegP@@XZ
	?GetSegment@EdbTrackP@@QBEPAVEdbSegP@@H@Z
	?GetSegmentF@EdbTrackP@@QBEPAVEdbSegP@@H@Z
	?AddSegment@EdbTrackP@@QAEXPAVEdbSegP@@@Z
	?RemoveSegment@EdbTrackP@@QAEXPAVEdbSegP@@@Z
	?AddSegmentF@EdbTrackP@@QAEXPAVEdbSegP@@@Z
	?SetSegmentsTrack@EdbTrackP@@QAEHH@Z
	?SetSegmentsTrack@EdbTrackP@@QAEHXZ
	??4EdbTrackP@@QAEAAV0@ABV0@@Z
	?Plate@EdbPattern@@QBEHXZ
	?Npatterns@EdbPatternsVolume@@QBEHXZ
	?GetTrack@EdbVTA@@QBEPAVEdbTrackP@@XZ
	?N@EdbVertex@@QBEHXZ
	?X@EdbVertex@@QBEMXZ
	?Y@EdbVertex@@QBEMXZ
	?Z@EdbVertex@@QBEMXZ
	?GetVTa@EdbVertex@@QAEPAVEdbVTA@@H@Z
	?GetTrack@EdbVertex@@QAEPAVEdbTrackP@@H@Z
	?SetPVRec@EdbVertexRec@@QAEXPAVEdbPVRec@@@Z
	?Nvtx@EdbVertexRec@@QBEHXZ
	??0EdbAffine2D@@QAE@XZ
	??1EdbAffine2D@@UAE@XZ
	?IsA@EdbAffine2D@@UBEPAVTClass@@XZ
	??0EdbAffine2D@@QAE@ABV0@@Z
	??4EdbAffine2D@@QAEAAV0@ABV0@@Z
	?At@TIndexCell@@QBEPAV1@H@Z
	?Value@TIndexCell@@QBEJXZ
	?ID@EdbLayer@@QBEHXZ
	?Z@EdbLayer@@QBEMXZ
	?SetScanCond@EdbPVRec@@QAEXPAVEdbScanCond@@@Z
	?GetScanCond@EdbPVRec@@QAEPBVEdbScanCond@@XZ
	?Plate@EdbDataPiece@@QBEHXZ
	?GetLayer@EdbDataPiece@@QAEPAVEdbLayer@@H@Z
	?N@EdbDataSet@@QBEHXZ
	?GetPiece@EdbDataSet@@QAEPAVEdbDataPiece@@H@Z
	?GetPlate@EdbBrickP@@QAEPAVEdbPlateP@@H@Z
	?Brick@EdbScanSet@@QAEAAVEdbBrickP@@XZ
	?GetPlate@EdbScanSet@@QAEPAVEdbPlateP@@H@Z
	?Clear@EdbEDAAreaSet@@QAEXXZ
	?AddVertex@EdbEDAVertexSet@@QAEXPAVEdbVertex@@@Z
	?AddVertices@EdbEDAVertexSet@@QAEXPAVTObjArray@@@Z
	?StorePrevious@EdbEDAVertexSet@@QAEXXZ
	?ClearVertices@EdbEDAVertexSet@@QAEXXZ
	?Clear@EdbEDAVertexSet@@QAEXXZ
	?GetVertices@EdbEDAVertexSet@@QAEPAVTObjArray@@XZ
	?SetImpactSearch@EdbEDATrackSelection@@QAEX_NPAVEdbVertex@@@Z
	?SetNeighborSearch@EdbEDATrackSelection@@QAEX_NPAVTObjArray@@NN@Z
	?SetAngularCut@EdbEDATrackSelection@@QAEX_N@Z
	?AddTrack@EdbEDATrackSet@@QAEXPAVEdbTrackP@@@Z
	?SetTrack@EdbEDATrackSet@@QAEXPAVEdbTrackP@@@Z
	?GetTracks@EdbEDATrackSet@@QAEPAVTObjArray@@XZ
	?GetPVRec@EdbEDATrackSet@@QAEPAVEdbPVRec@@XZ
	?SetPVRec@EdbEDATrackSet@@QAEXPAVEdbPVRec@@@Z
	?RemoveTrackBase@EdbEDATrackSet@@QAEXPAVEdbTrackP@@@Z
	?RemoveTrack@EdbEDATrackSet@@QAEXPAVEdbTrackP@@@Z
	?ClearTracks@EdbEDATrackSet@@QAEXXZ
	?ClearTracksBase@EdbEDATrackSet@@QAEXXZ
	?Clear@EdbEDATrackSet@@QAEXXZ
	?StorePrevious@EdbEDATrackSet@@QAEXXZ
	?AddSegments@EdbEDATrackSet@@QAEXPAVTObjArray@@@Z
	?GetTrack@EdbEDATrackSet@@QAEPAVEdbTrackP@@PAVEdbSegP@@@Z
	?N@EdbEDATrackSet@@QAEHXZ
	?IsMember@EdbEDATrackSet@@QAE_NPAVEdbTrackP@@@Z
	?DoSelection@EdbEDATrackSet@@QAEXXZ
	?SetTracksVertex@EdbEDATrackSet@@QAEXPAVEdbVertex@@_N@Z
	?SetTracksVertices@EdbEDATrackSet@@QAEXPAVTObjArray@@_N@Z
	?SetDraw@EdbEDATrackSet@@QAEX_N@Z
	?ReviceFileList@EdbEDAListTab@@QAEXXZ
	?ReadSelectedList@EdbEDAListTab@@QAEXXZ
	?MakeGUI@EdbEDAListTab@@QAEXXZ
	?WriteListFile@EdbEDAListTab@@QAEXXZ
	?MakeGUI@EdbEDAVertexTab@@QAEXXZ
	?DoVertexing@EdbEDAVertexTab@@QAEXPAVEdbEDATrackSet@@@Z
	?DoVertexingButton@EdbEDAVertexTab@@QAEXXZ
	?SetVertices@EdbEDAVertexTab@@QAEXXZ
	?Redraw@EdbEDAVertexTab@@QAEXXZ
	?ApplyParams@EdbEDAVertexTab@@QAEXXZ
	?Clear@EdbEDAVertexTab@@QAEXXZ
	?MakeGUI@EdbEDAMCTab@@QAEXXZ
	?ShowMCEvt@EdbEDAMCTab@@QAEXXZ
	?ShowMCEvtPP@EdbEDAMCTab@@QAEXXZ
	?ShowMCEvtMM@EdbEDAMCTab@@QAEXXZ
	?Draw@EdbEDAMCTab@@QAEXH@Z
	?WritePred@EdbEDAPredTab@@QAEXXZ
	?MakeManChkPred@EdbEDAPredTab@@QAEXXZ
	?MakePredScanPred@EdbEDAPredTab@@QAEXXZ
	?MakeManChkPredGivenAngleFromVertex@EdbEDAPredTab@@QAEXHNN@Z
	?RemoveFile@EdbEDAPredTab@@QAEXXZ
	?SetManChkFile@EdbEDAPredTab@@QAEXJ@Z
	?MakeGUI@EdbEDAPredTab@@QAEXXZ
	??0EdbEDAOperationTab@@QAE@XZ
	?ConnectTracks@EdbEDAOperationTab@@QAEXPAVEdbTrackP@@0@Z
	?ConnectTracksButton@EdbEDAOperationTab@@QAEXXZ
	?RemoveSegment@EdbEDAOperationTab@@QAEXXZ
	?DisconnectTracks@EdbEDAOperationTab@@QAEXXZ
	?Redo@EdbEDAOperationTab@@QAEXXZ
	?DumpTracksButton@EdbEDAOperationTab@@QAEXXZ
	?DumpTrack@EdbEDAOperationTab@@QAEXPAVEdbTrackP@@PAU_iobuf@@HH@Z
	?AttachToVertex@EdbEDAOperationTab@@QAEXPAVEdbVertex@@PAVTObjArray@@@Z
	?AttachToVertexButton@EdbEDAOperationTab@@QAEXXZ
	?MoveToTrackSetButton@EdbEDAOperationTab@@QAEXXZ
	??0EdbEDATrackSetList@@QAE@PAVTObjArray@@PAHPAD@Z
	??1EdbEDATrackSetList@@UAE@XZ
	?SetSelected@EdbEDATrackSetList@@QAEXXZ
	?IsA@EdbEDATrackSetList@@UBEPAVTClass@@XZ
	?GetTX@EdbEDAMainTab@@QAENXZ
	?GetTY@EdbEDAMainTab@@QAENXZ
	?GetDT@EdbEDAMainTab@@QAENXZ
	?GetBrick@EdbEDABrickData@@QAEHXZ
	?GetIPL@EdbEDABrickData@@QAEHH@Z
	?GetZ@EdbEDABrickData@@QAENH@Z
	?GetZPID@EdbEDABrickData@@QAENH@Z
	?ClearSelected@EdbEDASelection@@QAEXXZ
	?GetSelected@EdbEDASelection@@QAEPAVTObjArray@@XZ
	?GetSelectedTracks@EdbEDASelection@@QAEPAVTObjArray@@XZ
	?NSelectedTracks@EdbEDASelection@@QAEHXZ
	?GetSelectedTrack@EdbEDASelection@@QAEPAVEdbTrackP@@H@Z
	?GetSelectedVertex@EdbEDASelection@@QAEPAVEdbVertex@@XZ
	?ClearSelectedVertex@EdbEDASelection@@QAEXXZ
	?GetTrack@EdbEDA@@QAEPAVEdbTrackP@@PAVEdbSegP@@@Z
	?NTrackSets@EdbEDA@@QAEHXZ
	?GetTrackSet@EdbEDA@@QAEPAVEdbEDATrackSet@@H@Z
	?GetTrackSet@EdbEDA@@QAEPAVEdbEDATrackSet@@PAD@Z
	?GetTrackSet@EdbEDA@@QAEPAVEdbEDATrackSet@@PAVEdbTrackP@@@Z
	?GetTrackSets@EdbEDA@@QAEPAVTObjArray@@XZ
	?RemoveTrackBase@EdbEDA@@QAEXPAVEdbTrackP@@@Z
	?GetVertexSet@EdbEDA@@QAEPAVEdbEDAVertexSet@@XZ
	?AddVertex@EdbEDA@@QAEXPAVEdbVertex@@@Z
	?GetVertices@EdbEDA@@QAEPAVTObjArray@@XZ
	?ClearVertices@EdbEDA@@QAEXXZ
	?Redraw@EdbEDA@@QAEXXZ
	?StorePrevious@EdbEDA@@QAEXXZ
	?GetMainTab@EdbEDA@@QAEPAVEdbEDAMainTab@@XZ
	??$construct@PADAAPAD@?$_Wrap_alloc@V?$allocator@D@std@@@std@@QAEXPAPADAAPAD@Z
	??$destroy@PAD@?$_Wrap_alloc@V?$allocator@D@std@@@std@@QAEXPAPAD@Z
	??$addressof@D@std@@YAPADAAD@Z
	??$_Allocate@D@std@@YAPADIPAD@Z
	??$forward@AAPAD@std@@YAAAPADAAPAD@Z
	??$construct@PADAAPAD@?$allocator_traits@V?$allocator@D@std@@@std@@SAXAAV?$allocator@D@1@PAPADAAPAD@Z
	??$destroy@PAD@?$allocator_traits@V?$allocator@D@std@@@std@@SAXAAV?$allocator@D@1@PAPAD@Z
	??$construct@PADAAPAD@?$allocator@D@std@@QAEXPAPADAAPAD@Z
	??$destroy@PAD@?$allocator@D@std@@QAEXPAPAD@Z
	?IsA@TGVerticalFrame@@WDA@BEPAVTClass@@XZ
	?ShowMembers@TGVerticalFrame@@WDA@AEXAAVTMemberInspector@@@Z
	?Streamer@TGVerticalFrame@@WDA@AEXAAVTBuffer@@@Z
	?Transform@EdbTrack2D@@W3AEXPBVEdbAffine2D@@@Z
	?Test@EdbTrack2D@@W3BEXXZ
	?Print@EdbTrack2D@@W3BEXPBD@Z
	?IsA@EdbTrack2D@@W3BEPAVTClass@@XZ
	?ShowMembers@EdbTrack2D@@W3AEXAAVTMemberInspector@@@Z
	?Streamer@EdbTrack2D@@W3AEXAAVTBuffer@@@Z
	?IsA@EdbSegP@@WM@BEPAVTClass@@XZ
	?ShowMembers@EdbSegP@@WM@AEXAAVTMemberInspector@@@Z
	?Streamer@EdbSegP@@WM@AEXAAVTBuffer@@@Z
	?Print@EdbSegP@@WM@BEXPBD@Z
	?Print@EdbSegP@@WBA@BEXPBD@Z
	?IsA@EdbSegP@@WBA@BEPAVTClass@@XZ
	?ShowMembers@EdbSegP@@WBA@AEXAAVTMemberInspector@@@Z
	?Streamer@EdbSegP@@WBA@AEXAAVTBuffer@@@Z
	?IsA@EdbEDATrackSetList@@WDA@BEPAVTClass@@XZ
	?ShowMembers@EdbEDATrackSetList@@WDA@AEXAAVTMemberInspector@@@Z
	?Streamer@EdbEDATrackSetList@@WDA@AEXAAVTBuffer@@@Z
	?_Generic_object@?$_Error_objects@H@std@@2V_Generic_error_category@2@A 	 DATA
	?_Iostream_object@?$_Error_objects@H@std@@2V_Iostream_error_category@2@A 	 DATA
	?_System_object@?$_Error_objects@H@std@@2V_System_error_category@2@A 	 DATA
	?id@?$num_put@DV?$back_insert_iterator@V?$basic_string@DU?$char_traits@D@std@@V?$allocator@D@2@@std@@@std@@@std@@2V0locale@2@A 	 DATA
	?id@?$num_put@_WV?$back_insert_iterator@V?$basic_string@_WU?$char_traits@_W@std@@V?$allocator@_W@2@@std@@@std@@@std@@2V0locale@2@A 	 DATA
	??_R0?AVTObject@@@8 	 DATA
	??_R0?AVerror_category@std@@@8 	 DATA
	??_R0?AV_Generic_error_category@std@@@8 	 DATA
	??_R0?AV_Iostream_error_category@std@@@8 	 DATA
	??_R0?AV_System_error_category@std@@@8 	 DATA
	??_R0?AVTCollection@@@8 	 DATA
	??_R0?AVTList@@@8 	 DATA
	??_R0?AVTSeqCollection@@@8 	 DATA
	??_R0?AVTQObject@@@8 	 DATA
	??_R0?AVTDatime@@@8 	 DATA
	??_R0?AVTGWindow@@@8 	 DATA
	??_R0?AVTGObject@@@8 	 DATA
	??_R0?AVTRefCnt@@@8 	 DATA
	??_R0?AVTGDimension@@@8 	 DATA
	??_R0?AVTGLayoutHints@@@8 	 DATA
	??_R0?AVTGVerticalFrame@@@8 	 DATA
	??_R0?AVTGCompositeFrame@@@8 	 DATA
	??_R0?AVTGFrame@@@8 	 DATA
	??_R0?AVTGMainFrame@@@8 	 DATA
	??_R0?AVTSortedList@@@8 	 DATA
	??_R0?AVEdbAffine2D@@@8 	 DATA
	??_R0?AVEdbPoint@@@8 	 DATA
	??_R0?AVEdbPoint2D@@@8 	 DATA
	??_R0?AVEdbAngle2D@@@8 	 DATA
	??_R0?AVEdbTrack2D@@@8 	 DATA
	??_R0?AVEdbID@@@8 	 DATA
	??_R0?AVEdbSegP@@@8 	 DATA
	??_R0?AVTGTransientFrame@@@8 	 DATA
	??_R0?AVEdbEDATrackSetList@@@8 	 DATA
	hypot
	fabsf
	sqrtf
	?fabs@@YAMM@Z
	?sqrt@@YAMM@Z
	??2@YAPAXIPAX@Z
	??3@YAXPAX0@Z
	?length@?$char_traits@D@std@@SAIPBD@Z
	?copy@?$char_traits@D@std@@SAPADPADPBDI@Z
	?move@?$char_traits@D@std@@SAPADPADPBDI@Z
	?assign@?$char_traits@D@std@@SAXAADABD@Z
	??0?$allocator@D@std@@QAE@XZ
	?deallocate@?$allocator@D@std@@QAEXPADI@Z
	?allocate@?$allocator@D@std@@QAEPADI@Z
	?max_size@?$allocator@D@std@@QBEIXZ
	?max_size@?$allocator_traits@V?$allocator@D@std@@@std@@SAIABV?$allocator@D@2@@Z
	??0?$_Wrap_alloc@V?$allocator@D@std@@@std@@QAE@XZ
	?allocate@?$_Wrap_alloc@V?$allocator@D@std@@@std@@QAEPADI@Z
	?deallocate@?$_Wrap_alloc@V?$allocator@D@std@@@std@@QAEXPADI@Z
	?max_size@?$_Wrap_alloc@V?$allocator@D@std@@@std@@QBEIXZ
	??0?$_String_val@U?$_Simple_types@D@std@@@std@@QAE@XZ
	?_Myptr@?$_String_val@U?$_Simple_types@D@std@@@std@@QAEPADXZ
	?_Myptr@?$_String_val@U?$_Simple_types@D@std@@@std@@QBEPBDXZ
	??0?$_String_alloc@$0A@U?$_String_base_types@DV?$allocator@D@std@@@std@@@std@@QAE@ABV?$allocator@D@1@@Z
	?_Getal@?$_String_alloc@$0A@U?$_String_base_types@DV?$allocator@D@std@@@std@@@std@@QBE?AU?$_Wrap_alloc@V?$allocator@D@std@@@2@XZ
	??0?$basic_string@DU?$char_traits@D@std@@V?$allocator@D@2@@std@@QAE@PBD@Z
	??1?$basic_string@DU?$char_traits@D@std@@V?$allocator@D@2@@std@@QAE@XZ
	?assign@?$basic_string@DU?$char_traits@D@std@@V?$allocator@D@2@@std@@QAEAAV12@ABV12@II@Z
	?assign@?$basic_string@DU?$char_traits@D@std@@V?$allocator@D@2@@std@@QAEAAV12@PBDI@Z
	?assign@?$basic_string@DU?$char_traits@D@std@@V?$allocator@D@2@@std@@QAEAAV12@PBD@Z
	?erase@?$basic_string@DU?$char_traits@D@std@@V?$allocator@D@2@@std@@QAEAAV12@I@Z
	?erase@?$basic_string@DU?$char_traits@D@std@@V?$allocator@D@2@@std@@QAEAAV12@II@Z
	?size@?$basic_string@DU?$char_traits@D@std@@V?$allocator@D@2@@std@@QBEIXZ
	?max_size@?$basic_string@DU?$char_traits@D@std@@V?$allocator@D@2@@std@@QBEIXZ
	?_Copy@?$basic_string@DU?$char_traits@D@std@@V?$allocator@D@2@@std@@QAEXII@Z
	?_Eos@?$basic_string@DU?$char_traits@D@std@@V?$allocator@D@2@@std@@QAEXI@Z
	?_Grow@?$basic_string@DU?$char_traits@D@std@@V?$allocator@D@2@@std@@QAE_NI_N@Z
	?_Inside@?$basic_string@DU?$char_traits@D@std@@V?$allocator@D@2@@std@@QAE_NPBD@Z
	?_Tidy@?$basic_string@DU?$char_traits@D@std@@V?$allocator@D@2@@std@@QAEX_NI@Z
	?_Xlen@?$basic_string@DU?$char_traits@D@std@@V?$allocator@D@2@@std@@QBEXXZ
	?_Xran@?$basic_string@DU?$char_traits@D@std@@V?$allocator@D@2@@std@@QBEXXZ
	?generic_category@std@@YAABVerror_category@1@XZ
	?system_category@std@@YAABVerror_category@1@XZ
	??0error_category@std@@QAE@XZ
	??1error_category@std@@UAE@XZ
	?default_error_condition@error_category@std@@UBE?AVerror_condition@2@H@Z
	?equivalent@error_category@std@@UBE_NHABVerror_condition@2@@Z
	?equivalent@error_category@std@@UBE_NABVerror_code@2@H@Z
	??8error_category@std@@QBE_NABV01@@Z
	?value@error_code@std@@QBEHXZ
	?category@error_code@std@@QBEABVerror_category@2@XZ
	??0error_condition@std@@QAE@HABVerror_category@1@@Z
	?value@error_condition@std@@QBEHXZ
	?category@error_condition@std@@QBEABVerror_category@2@XZ
	??8error_condition@std@@QBE_NABV01@@Z
	??0_Generic_error_category@std@@QAE@XZ
	?name@_Generic_error_category@std@@UBEPBDXZ
	?message@_Generic_error_category@std@@UBE?AV?$basic_string@DU?$char_traits@D@std@@V?$allocator@D@2@@2@H@Z
	??1_Generic_error_category@std@@UAE@XZ
	??0_Iostream_error_category@std@@QAE@XZ
	?name@_Iostream_error_category@std@@UBEPBDXZ
	?message@_Iostream_error_category@std@@UBE?AV?$basic_string@DU?$char_traits@D@std@@V?$allocator@D@2@@2@H@Z
	??1_Iostream_error_category@std@@UAE@XZ
	??0_System_error_category@std@@QAE@XZ
	?name@_System_error_category@std@@UBEPBDXZ
	?message@_System_error_category@std@@UBE?AV?$basic_string@DU?$char_traits@D@std@@V?$allocator@D@2@@2@H@Z
	?default_error_condition@_System_error_category@std@@UBE?AVerror_condition@2@H@Z
	??1_System_error_category@std@@UAE@XZ
	?Clear@TObject@@UAEXPBD@Z
	?GetOption@TObject@@UBEPBDXZ
	?IsSortable@TObject@@UBE_NXZ
	??2TObject@@SAPAXI@Z
	?Abs@TMath@@YAHH@Z
	?IsLong@TString@@ABE_NXZ
	?GetShortSize@TString@@ABEHXZ
	?GetLongSize@TString@@ABEHXZ
	?GetLongPointer@TString@@ABEPBDXZ
	?GetShortPointer@TString@@ABEPBDXZ
	?GetPointer@TString@@ABEPBDXZ
	??BTString@@QBEPBDXZ
	??YTString@@QAEAAV0@PBD@Z
	?Append@TString@@QAEAAV1@PBDH@Z
	?Length@TString@@QBEHXZ
	??0TDatime@@QAE@I_N@Z
	??1TDatime@@UAE@XZ
	?IsA@TDatime@@UBEPAVTClass@@XZ
	?GetSenderClassName@TQObject@@MBEPBDXZ
	?Connected@TQObject@@UAEXPBD@Z
	?Disconnected@TQObject@@UAEXPBD@Z
	?Destroyed@TQObject@@UAEXXZ
	?ChangedBy@TQObject@@UAEXPBD@Z
	?Message@TQObject@@UAEXPBD@Z
	?GetEntriesFast@TObjArray@@QBEHXZ
	?Add@TObjArray@@UAEXPAVTObject@@@Z
	?GetArray@TArrayD@@QAEPANXZ
	??0_Ignore@std@@QAE@XZ
	?GetHistogram@TTree@@QAEPAVTH1@@XZ
	?GetXmin@TAxis@@QBENXZ
	?GetXmax@TAxis@@QBENXZ
	?Hash@TGObject@@UBEKXZ
	?MapWindow@TGWindow@@UAEXXZ
	?MapRaised@TGWindow@@UAEXXZ
	?UnmapWindow@TGWindow@@UAEXXZ
	?DestroyWindow@TGWindow@@UAEXXZ
	?DestroySubwindows@TGWindow@@UAEXXZ
	?RaiseWindow@TGWindow@@UAEXXZ
	?LowerWindow@TGWindow@@UAEXXZ
	?IconifyWindow@TGWindow@@UAEXXZ
	?RequestFocus@TGWindow@@UAEXXZ
	?SetBackgroundPixmap@TGWindow@@UAEXK@Z
	?HandleExpose@TGWindow@@UAE_NPAUEvent_t@@@Z
	?HandleTimer@TGWindow@@UAE_NPAVTTimer@@@Z
	?HandleIdleEvent@TGWindow@@UAE_NPAVTGIdleHandler@@@Z
	?GetEditDisabled@TGWindow@@UBEIXZ
	?SetName@TGWindow@@UAEXPBD@Z
	??0TGDimension@@QAE@II@Z
	??0TGDimension@@QAE@ABV0@@Z
	??1TGDimension@@UAE@XZ
	?IsA@TGDimension@@UBEPAVTClass@@XZ
	??0TRefCnt@@QAE@H@Z
	??1TRefCnt@@UAE@XZ
	?SetRefCount@TRefCnt@@QAEXI@Z
	??0TGLayoutHints@@QAE@KHHHH@Z
	?SetLayoutHints@TGLayoutHints@@UAEXK@Z
	?SetPadTop@TGLayoutHints@@UAEXH@Z
	?SetPadBottom@TGLayoutHints@@UAEXH@Z
	?SetPadLeft@TGLayoutHints@@UAEXH@Z
	?SetPadRight@TGLayoutHints@@UAEXH@Z
	?ls@TGLayoutHints@@UBEXPBD@Z
	?IsA@TGLayoutHints@@UBEPAVTClass@@XZ
	?GetSender@TGFrame@@MAEPAXXZ
	?ReallyDelete@TGFrame@@UAEXXZ
	?HandleSelectionRequest@TGFrame@@UAE_NPAUEvent_t@@@Z
	?HandleSelectionClear@TGFrame@@UAE_NPAUEvent_t@@@Z
	?HandleColormapChange@TGFrame@@UAE_NPAUEvent_t@@@Z
	?ProcessedConfigure@TGFrame@@UAEXPAUEvent_t@@@Z
	?ProcessedEvent@TGFrame@@UAEXPAUEvent_t@@@Z
	?GetBackground@TGFrame@@UBEKXZ
	?SetForegroundColor@TGFrame@@UAEXK@Z
	?GetOptions@TGFrame@@UBEIXZ
	?ReparentWindow@TGFrame@@UAEXPBVTGWindow@@HH@Z
	?MapWindow@TGFrame@@UAEXXZ
	?MapRaised@TGFrame@@UAEXXZ
	?UnmapWindow@TGFrame@@UAEXXZ
	?DrawCopy@TGFrame@@UAEXKHH@Z
	?Activate@TGFrame@@UAEX_N@Z
	?IsActive@TGFrame@@UBE_NXZ
	?SetX@TGFrame@@UAEXH@Z
	?SetY@TGFrame@@UAEXH@Z
	?SetWidth@TGFrame@@UAEXI@Z
	?SetHeight@TGFrame@@UAEXI@Z
	?SetMinWidth@TGFrame@@UAEXI@Z
	?SetMinHeight@TGFrame@@UAEXI@Z
	?SetMaxWidth@TGFrame@@UAEXI@Z
	?SetMaxHeight@TGFrame@@UAEXI@Z
	?SetSize@TGFrame@@UAEXABVTGDimension@@@Z
	?Delete@TGFrame@@UAEXPBD@Z
	?DrawClone@TGFrame@@UBEPAVTObject@@PBD@Z
	?DrawClass@TGFrame@@UBEXXZ
	?Dump@TGFrame@@UBEXXZ
	?Inspect@TGFrame@@UBEXXZ
	?SetDrawOption@TGFrame@@UAEXPBD@Z
	?GetDNDData@TGFrame@@UAEPAVTDNDData@@K@Z
	?HandleDNDDrop@TGFrame@@UAE_NPAVTDNDData@@@Z
	?HandleDNDPosition@TGFrame@@UAEKHHKHH@Z
	?HandleDNDEnter@TGFrame@@UAEKPAK@Z
	?HandleDNDLeave@TGFrame@@UAE_NXZ
	?HandleDNDFinished@TGFrame@@UAE_NXZ
	?GetList@TGCompositeFrame@@UBEPAVTList@@XZ
	?GetDefaultWidth@TGCompositeFrame@@UBEIXZ
	?GetDefaultHeight@TGCompositeFrame@@UBEIXZ
	?GetDefaultSize@TGCompositeFrame@@UBE?AVTGDimension@@XZ
	?HandleButton@TGCompositeFrame@@UAE_NPAUEvent_t@@@Z
	?HandleDoubleClick@TGCompositeFrame@@UAE_NPAUEvent_t@@@Z
	?HandleCrossing@TGCompositeFrame@@UAE_NPAUEvent_t@@@Z
	?HandleMotion@TGCompositeFrame@@UAE_NPAUEvent_t@@@Z
	?HandleKey@TGCompositeFrame@@UAE_NPAUEvent_t@@@Z
	?HandleFocusChange@TGCompositeFrame@@UAE_NPAUEvent_t@@@Z
	?HandleSelection@TGCompositeFrame@@UAE_NPAUEvent_t@@@Z
	?ProcessMessage@TGCompositeFrame@@UAE_NJJJ@Z
	?GetLayoutManager@TGCompositeFrame@@UBEPAVTGLayoutManager@@XZ
	?IsComposite@TGCompositeFrame@@UBE_NXZ
	?IsLayoutBroken@TGCompositeFrame@@UBE_NXZ
	?MustCleanup@TGCompositeFrame@@UBEHXZ
	?SetMapSubwindows@TGCompositeFrame@@UAEX_N@Z
	?IsMapSubwindows@TGCompositeFrame@@UBE_NXZ
	??0TGHorizontalFrame@@QAE@PBVTGWindow@@IIIK@Z
	?IsA@TGHorizontalFrame@@UBEPAVTClass@@XZ
	??1TGHorizontalFrame@@UAE@XZ
	?GetBrowser@TEveManager@@QBEPAVTEveBrowser@@XZ
	?Sqrt@TMath@@YANN@Z
	?GetNumberEntry@TGNumberEntry@@QBEPAVTGNumberEntryField@@XZ
	??1EdbPoint@@UAE@XZ
	?Transform@EdbPoint@@UAEXPBVEdbAffine2D@@@Z
	?Transform@EdbPoint@@UAEXPBVEdbAffine3D@@@Z
	?Test@EdbPoint@@UBEXXZ
	?IsA@EdbPoint@@UBEPAVTClass@@XZ
	??0EdbPoint@@QAE@XZ
	??1EdbAngle2D@@UAE@XZ
	?Test@EdbAngle2D@@UBEXXZ
	?IsA@EdbAngle2D@@UBEPAVTClass@@XZ
	??0EdbAngle2D@@QAE@XZ
	??1EdbPoint2D@@UAE@XZ
	?Z@EdbPoint2D@@UBEMXZ
	?SetZ@EdbPoint2D@@UAEXM@Z
	?Test@EdbPoint2D@@UBEXXZ
	?TestPoint2D@EdbPoint2D@@UBEXXZ
	?IsA@EdbPoint2D@@UBEPAVTClass@@XZ
	??0EdbPoint2D@@QAE@XZ
	??1EdbTrack2D@@UAE@XZ
	?Test@EdbTrack2D@@UBEXXZ
	?IsA@EdbTrack2D@@UBEPAVTClass@@XZ
	??0EdbTrack2D@@QAE@XZ
	??0EdbID@@QAE@HHHH@Z
	??1EdbID@@UAE@XZ
	?Set@EdbID@@QAEXHHHH@Z
	?IsA@EdbID@@UBEPAVTClass@@XZ
	??0EdbSegP@@QAE@XZ
	??0EdbSegP@@QAE@ABV0@@Z
	??1EdbSegP@@UAE@XZ
	?Set@EdbSegP@@QAEXHMMMMMH@Z
	?SetZ@EdbSegP@@UAEXM@Z
	?SetPID@EdbSegP@@QAEXH@Z
	?ID@EdbSegP@@QBEHXZ
	?PID@EdbSegP@@QBEHXZ
	?Flag@EdbSegP@@QBEHXZ
	?W@EdbSegP@@QBEMXZ
	?Z@EdbSegP@@UBEMXZ
	?Plate@EdbSegP@@QBEHXZ
	?Side@EdbSegP@@QBEHXZ
	?X@EdbSegP@@UBEMXZ
	?Y@EdbSegP@@UBEMXZ
	?TX@EdbSegP@@UBEMXZ
	?TY@EdbSegP@@UBEMXZ
	?SetX@EdbSegP@@UAEXM@Z
	?SetY@EdbSegP@@UAEXM@Z
	?SetTX@EdbSegP@@UAEXM@Z
	?SetTY@EdbSegP@@UAEXM@Z
	?IsSortable@EdbSegP@@UBE_NXZ
	?IsA@EdbSegP@@UBEPAVTClass@@XZ
	?GetSegment@EdbSegmentsBox@@QBEPAVEdbSegP@@H@Z
	?SetCounters@EdbTrackP@@QAEXXZ
	?SetN0@EdbTrackP@@QAEXXZ
	?SetNpl@EdbTrackP@@QAEXXZ
	?Npl@EdbTrackP@@QBEHXZ
	?N@EdbTrackP@@QBEHXZ
	?GetSegmentFirst@EdbTrackP@@QBEPAVEdbSegP@@XZ
	?GetSegmentLast@EdbTrackP@@QBEPAVEdbSegP@@XZ
	?GetSegment@EdbTrackP@@QBEPAVEdbSegP@@H@Z
	?Npatterns@EdbPatternsVolume@@QBEHXZ
	?Hash@EdbVertex@@UBEKXZ
	?IsSortable@EdbVertex@@UBE_NXZ
	?X@EdbVertex@@QBEMXZ
	?Y@EdbVertex@@QBEMXZ
	?Z@EdbVertex@@QBEMXZ
	?SetXYZ@EdbVertex@@QAEXMMM@Z
	?Ntracks@EdbPVRec@@QBEHXZ
	?GetTrack@EdbPVRec@@QBEPAVEdbTrackP@@H@Z
	??0EdbEDAArea@@QAE@HNNNNN@Z
	?Plate@EdbEDAArea@@QAEHXZ
	?Xmin@EdbEDAArea@@QAENXZ
	?Xmax@EdbEDAArea@@QAENXZ
	?Ymin@EdbEDAArea@@QAENXZ
	?Ymax@EdbEDAArea@@QAENXZ
	?Z@EdbEDAArea@@QAENXZ
	?IsA@EdbEDAArea@@UBEPAVTClass@@XZ
	??1EdbEDAArea@@UAE@XZ
	??0EdbEDAAreaSet@@QAE@XZ
	?Init@EdbEDAAreaSet@@QAEXXZ
	?AddArea@EdbEDAAreaSet@@QAEXHNNNNN@Z
	?N@EdbEDAAreaSet@@QAEHXZ
	?GetArea@EdbEDAAreaSet@@QAEPAVEdbEDAArea@@H@Z
	?GetAreaIPL@EdbEDAAreaSet@@QAEPAVEdbEDAArea@@H@Z
	?IsA@EdbEDAAreaSet@@UBEPAVTClass@@XZ
	??1EdbEDAAreaSet@@UAE@XZ
	?AddVertex@EdbEDAVertexSet@@QAEXPAVEdbVertex@@@Z
	?GetPVRec@EdbEDATrackSet@@QAEPAVEdbPVRec@@XZ
	?FindTrackLast@EdbEDATrackSet@@QAEPAVEdbTrackP@@PAVEdbSegP@@NN@Z
	?NBase@EdbEDATrackSet@@QAEHXZ
	?GetTrackBase@EdbEDATrackSet@@QAEPAVEdbTrackP@@H@Z
	?GetNsegCut@EdbEDAMainTab@@QAEHXZ
	?GetPHCut@EdbEDAMainTab@@QAENXZ
	?GetPHDTRMS@EdbEDAMainTab@@QAENXZ
	?CreateCanvas@EdbEDAPlotTab@@SAPAVTCanvas@@PAD@Z
	?MakeGUI@EdbEDAPlotTab@@QAEXXZ
	?CheckEff@EdbEDAPlotTab@@QAEXPAVEdbPVRec@@PAVTObjArray@@@Z
	?CheckAlignment@EdbEDAPlotTab@@QAEXPAVEdbPVRec@@@Z
	?CheckOverview@EdbEDAPlotTab@@QAEXPAVEdbPVRec@@@Z
	?CheckPHDAngle@EdbEDAPlotTab@@QAEXPAVEdbPVRec@@@Z
	?CheckTracks@EdbEDAPlotTab@@QAEXXZ
	?CheckSingleTrack@EdbEDAPlotTab@@QAEXPAVEdbTrackP@@@Z
	?CheckKinkTracks@EdbEDAPlotTab@@QAEXXZ
	?CheckKink@EdbEDAPlotTab@@QAEPAVTObjArray@@PAVEdbTrackP@@@Z
	?SetMomAlg@EdbEDAPlotTab@@QAEXXZ
	?MomPlot@EdbEDAPlotTab@@QAEXXZ
	?DTT@EdbEDASmallKink@@QAENXZ
	?DTL@EdbEDASmallKink@@QAENXZ
	?DXT@EdbEDASmallKink@@QAENXZ
	?DXL@EdbEDASmallKink@@QAENXZ
	?PT@EdbEDASmallKink@@QAENXZ
	??0EdbEDASmallKink@@QAE@PAVEdbVertex@@PAVEdbTrackP@@PAVEdbSegP@@2NNNNHNNNNNN@Z
	?IsA@EdbEDASmallKink@@UBEPAVTClass@@XZ
	??1EdbEDASmallKink@@UAE@XZ
	?GetSelectedTracks@EdbEDASelection@@QAEPAVTObjArray@@XZ
	?GetTrackSet@EdbEDA@@QAEPAVEdbEDATrackSet@@PAD@Z
	?AddVertex@EdbEDA@@QAEXPAVEdbVertex@@@Z
	?GetMainTab@EdbEDA@@QAEPAVEdbEDAMainTab@@XZ
	?CheckScanback@EdbEDA@@QAEPAVEdbTrackP@@PAV2@@Z
	??$Mean@N@TMath@@YAN_JPBN1@Z
	??$RMS@N@TMath@@YAN_JPBN1@Z
	??$MaxElement@N@TMath@@YAN_JPBN@Z
	??$construct@PADAAPAD@?$_Wrap_alloc@V?$allocator@D@std@@@std@@QAEXPAPADAAPAD@Z
	??$destroy@PAD@?$_Wrap_alloc@V?$allocator@D@std@@@std@@QAEXPAPAD@Z
	??$addressof@D@std@@YAPADAAD@Z
	??$_Allocate@D@std@@YAPADIPAD@Z
	??$Mean@PBNPBN@TMath@@YANPBN00@Z
	??$Mean@PBN@TMath@@YANPBN0@Z
	??$RMS@PBNPBN@TMath@@YANPBN00@Z
	??$RMS@PBN@TMath@@YANPBN0@Z
	??$max_element@PBN@std@@YAPBNPBN0@Z
	??$forward@AAPAD@std@@YAAAPADAAPAD@Z
	??$construct@PADAAPAD@?$allocator_traits@V?$allocator@D@std@@@std@@SAXAAV?$allocator@D@1@PAPADAAPAD@Z
	??$destroy@PAD@?$allocator_traits@V?$allocator@D@std@@@std@@SAXAAV?$allocator@D@1@PAPAD@Z
	??$max_element@PBNU?$less@X@std@@@std@@YAPBNPBN0U?$less@X@0@@Z
	??$construct@PADAAPAD@?$allocator@D@std@@QAEXPAPADAAPAD@Z
	??$destroy@PAD@?$allocator@D@std@@QAEXPAPAD@Z
	??$_Unchecked@PBN@std@@YAPBNPBN@Z
	??$_Max_element@PBNU?$less@X@std@@@std@@YAPBNPBN0U?$less@X@0@@Z
	??$_Rechecked@PBNPBN@std@@YAAAPBNAAPBNPBN@Z
	??$?RABNABN@?$less@X@std@@QBE_NABN0@Z
	?IsA@TGHorizontalFrame@@WDA@BEPAVTClass@@XZ
	?ShowMembers@TGHorizontalFrame@@WDA@AEXAAVTMemberInspector@@@Z
	?Streamer@TGHorizontalFrame@@WDA@AEXAAVTBuffer@@@Z
	?Transform@EdbTrack2D@@W3AEXPBVEdbAffine2D@@@Z
	?Test@EdbTrack2D@@W3BEXXZ
	?Print@EdbTrack2D@@W3BEXPBD@Z
	?IsA@EdbTrack2D@@W3BEPAVTClass@@XZ
	?ShowMembers@EdbTrack2D@@W3AEXAAVTMemberInspector@@@Z
	?Streamer@EdbTrack2D@@W3AEXAAVTBuffer@@@Z
	?IsA@EdbSegP@@WM@BEPAVTClass@@XZ
	?ShowMembers@EdbSegP@@WM@AEXAAVTMemberInspector@@@Z
	?Streamer@EdbSegP@@WM@AEXAAVTBuffer@@@Z
	?Print@EdbSegP@@WM@BEXPBD@Z
	?Print@EdbSegP@@WBA@BEXPBD@Z
	?IsA@EdbSegP@@WBA@BEPAVTClass@@XZ
	?ShowMembers@EdbSegP@@WBA@AEXAAVTMemberInspector@@@Z
	?Streamer@EdbSegP@@WBA@AEXAAVTBuffer@@@Z
	?_Generic_object@?$_Error_objects@H@std@@2V_Generic_error_category@2@A 	 DATA
	?_Iostream_object@?$_Error_objects@H@std@@2V_Iostream_error_category@2@A 	 DATA
	?_System_object@?$_Error_objects@H@std@@2V_System_error_category@2@A 	 DATA
	?id@?$num_put@DV?$back_insert_iterator@V?$basic_string@DU?$char_traits@D@std@@V?$allocator@D@2@@std@@@std@@@std@@2V0locale@2@A 	 DATA
	?id@?$num_put@_WV?$back_insert_iterator@V?$basic_string@_WU?$char_traits@_W@std@@V?$allocator@_W@2@@std@@@std@@@std@@2V0locale@2@A 	 DATA
	??_R0?AVTObject@@@8 	 DATA
	??_R0?AVerror_category@std@@@8 	 DATA
	??_R0?AV_Generic_error_category@std@@@8 	 DATA
	??_R0?AV_Iostream_error_category@std@@@8 	 DATA
	??_R0?AV_System_error_category@std@@@8 	 DATA
	??_R0?AVTQObject@@@8 	 DATA
	??_R0?AVTDatime@@@8 	 DATA
	??_R0?AVTGWindow@@@8 	 DATA
	??_R0?AVTGObject@@@8 	 DATA
	??_R0?AVTRefCnt@@@8 	 DATA
	??_R0?AVTGDimension@@@8 	 DATA
	??_R0?AVTGLayoutHints@@@8 	 DATA
	??_R0?AVTGCompositeFrame@@@8 	 DATA
	??_R0?AVTGFrame@@@8 	 DATA
	??_R0?AVTGHorizontalFrame@@@8 	 DATA
	??_R0?AVEdbPoint@@@8 	 DATA
	??_R0?AVEdbPoint2D@@@8 	 DATA
	??_R0?AVEdbAngle2D@@@8 	 DATA
	??_R0?AVEdbTrack2D@@@8 	 DATA
	??_R0?AVEdbID@@@8 	 DATA
	??_R0?AVEdbSegP@@@8 	 DATA
	??_R0?AVEdbEDAArea@@@8 	 DATA
	??_R0?AVEdbEDAAreaSet@@@8 	 DATA
	??_R0?AVEdbVertex@@@8 	 DATA
	??_R0?AVEdbEDASmallKink@@@8 	 DATA
	hypot
	fabsf
	sqrtf
	?fabs@@YAMM@Z
	?sqrt@@YAMM@Z
	??2@YAPAXIPAX@Z
	??3@YAXPAX0@Z
	?length@?$char_traits@D@std@@SAIPBD@Z
	?copy@?$char_traits@D@std@@SAPADPADPBDI@Z
	?move@?$char_traits@D@std@@SAPADPADPBDI@Z
	?assign@?$char_traits@D@std@@SAXAADABD@Z
	?_Adopt@_Iterator_base0@std@@QAEXPBX@Z
	??0?$allocator@D@std@@QAE@XZ
	?deallocate@?$allocator@D@std@@QAEXPADI@Z
	?allocate@?$allocator@D@std@@QAEPADI@Z
	?max_size@?$allocator@D@std@@QBEIXZ
	?max_size@?$allocator_traits@V?$allocator@D@std@@@std@@SAIABV?$allocator@D@2@@Z
	??0?$_Wrap_alloc@V?$allocator@D@std@@@std@@QAE@XZ
	?allocate@?$_Wrap_alloc@V?$allocator@D@std@@@std@@QAEPADI@Z
	?deallocate@?$_Wrap_alloc@V?$allocator@D@std@@@std@@QAEXPADI@Z
	?max_size@?$_Wrap_alloc@V?$allocator@D@std@@@std@@QBEIXZ
	??0?$_String_val@U?$_Simple_types@D@std@@@std@@QAE@XZ
	?_Myptr@?$_String_val@U?$_Simple_types@D@std@@@std@@QAEPADXZ
	?_Myptr@?$_String_val@U?$_Simple_types@D@std@@@std@@QBEPBDXZ
	??0?$_String_alloc@$0A@U?$_String_base_types@DV?$allocator@D@std@@@std@@@std@@QAE@ABV?$allocator@D@1@@Z
	?_Getal@?$_String_alloc@$0A@U?$_String_base_types@DV?$allocator@D@std@@@std@@@std@@QBE?AU?$_Wrap_alloc@V?$allocator@D@std@@@2@XZ
	??0?$basic_string@DU?$char_traits@D@std@@V?$allocator@D@2@@std@@QAE@PBD@Z
	??1?$basic_string@DU?$char_traits@D@std@@V?$allocator@D@2@@std@@QAE@XZ
	?assign@?$basic_string@DU?$char_traits@D@std@@V?$allocator@D@2@@std@@QAEAAV12@ABV12@II@Z
	?assign@?$basic_string@DU?$char_traits@D@std@@V?$allocator@D@2@@std@@QAEAAV12@PBDI@Z
	?assign@?$basic_string@DU?$char_traits@D@std@@V?$allocator@D@2@@std@@QAEAAV12@PBD@Z
	?erase@?$basic_string@DU?$char_traits@D@std@@V?$allocator@D@2@@std@@QAEAAV12@I@Z
	?erase@?$basic_string@DU?$char_traits@D@std@@V?$allocator@D@2@@std@@QAEAAV12@II@Z
	?size@?$basic_string@DU?$char_traits@D@std@@V?$allocator@D@2@@std@@QBEIXZ
	?max_size@?$basic_string@DU?$char_traits@D@std@@V?$allocator@D@2@@std@@QBEIXZ
	?_Copy@?$basic_string@DU?$char_traits@D@std@@V?$allocator@D@2@@std@@QAEXII@Z
	?_Eos@?$basic_string@DU?$char_traits@D@std@@V?$allocator@D@2@@std@@QAEXI@Z
	?_Grow@?$basic_string@DU?$char_traits@D@std@@V?$allocator@D@2@@std@@QAE_NI_N@Z
	?_Inside@?$basic_string@DU?$char_traits@D@std@@V?$allocator@D@2@@std@@QAE_NPBD@Z
	?_Tidy@?$basic_string@DU?$char_traits@D@std@@V?$allocator@D@2@@std@@QAEX_NI@Z
	?_Xlen@?$basic_string@DU?$char_traits@D@std@@V?$allocator@D@2@@std@@QBEXXZ
	?_Xran@?$basic_string@DU?$char_traits@D@std@@V?$allocator@D@2@@std@@QBEXXZ
	?generic_category@std@@YAABVerror_category@1@XZ
	?system_category@std@@YAABVerror_category@1@XZ
	??0error_category@std@@QAE@XZ
	??1error_category@std@@UAE@XZ
	?default_error_condition@error_category@std@@UBE?AVerror_condition@2@H@Z
	?equivalent@error_category@std@@UBE_NHABVerror_condition@2@@Z
	?equivalent@error_category@std@@UBE_NABVerror_code@2@H@Z
	??8error_category@std@@QBE_NABV01@@Z
	?value@error_code@std@@QBEHXZ
	?category@error_code@std@@QBEABVerror_category@2@XZ
	??0error_condition@std@@QAE@HABVerror_category@1@@Z
	?value@error_condition@std@@QBEHXZ
	?category@error_condition@std@@QBEABVerror_category@2@XZ
	??8error_condition@std@@QBE_NABV01@@Z
	??0_Generic_error_category@std@@QAE@XZ
	?name@_Generic_error_category@std@@UBEPBDXZ
	?message@_Generic_error_category@std@@UBE?AV?$basic_string@DU?$char_traits@D@std@@V?$allocator@D@2@@2@H@Z
	??1_Generic_error_category@std@@UAE@XZ
	??0_Iostream_error_category@std@@QAE@XZ
	?name@_Iostream_error_category@std@@UBEPBDXZ
	?message@_Iostream_error_category@std@@UBE?AV?$basic_string@DU?$char_traits@D@std@@V?$allocator@D@2@@2@H@Z
	??1_Iostream_error_category@std@@UAE@XZ
	??0_System_error_category@std@@QAE@XZ
	?name@_System_error_category@std@@UBEPBDXZ
	?message@_System_error_category@std@@UBE?AV?$basic_string@DU?$char_traits@D@std@@V?$allocator@D@2@@2@H@Z
	?default_error_condition@_System_error_category@std@@UBE?AVerror_condition@2@H@Z
	??1_System_error_category@std@@UAE@XZ
	?Clear@TObject@@UAEXPBD@Z
	?GetOption@TObject@@UBEPBDXZ
	?IsSortable@TObject@@UBE_NXZ
	??2TObject@@SAPAXI@Z
	?Abs@TMath@@YAHH@Z
	?IsLong@TString@@ABE_NXZ
	?GetLongPointer@TString@@ABEPBDXZ
	?GetShortPointer@TString@@ABEPBDXZ
	?GetPointer@TString@@ABEPBDXZ
	??BTString@@QBEPBDXZ
	?Data@TString@@QBEPBDXZ
	??0TNamed@@QAE@XZ
	??1TNamed@@UAE@XZ
	?GetName@TNamed@@UBEPBDXZ
	?GetTitle@TNamed@@UBEPBDXZ
	?Hash@TNamed@@UBEKXZ
	?IsSortable@TNamed@@UBE_NXZ
	?IsA@TNamed@@UBEPAVTClass@@XZ
	??0TCollection@@IAE@XZ
	??1TCollection@@UAE@XZ
	?GetEntries@TCollection@@UBEHXZ
	?GetSize@TCollection@@UBEHXZ
	?Hash@TCollection@@UBEKXZ
	?IsEmpty@TCollection@@UBE_NXZ
	?IsFolder@TCollection@@UBE_NXZ
	?IsSortable@TCollection@@UBE_NXZ
	?MakeReverseIterator@TCollection@@UBEPAVTIterator@@XZ
	?IsA@TCollection@@UBEPAVTClass@@XZ
	??0TSeqCollection@@IAE@XZ
	?Changed@TSeqCollection@@MAEXXZ
	??1TSeqCollection@@UAE@XZ
	?Add@TSeqCollection@@UAEXPAVTObject@@@Z
	?RemoveFirst@TSeqCollection@@UAEXXZ
	?RemoveLast@TSeqCollection@@UAEXXZ
	?RemoveAt@TSeqCollection@@UAEPAVTObject@@H@Z
	?RemoveAfter@TSeqCollection@@UAEXPAVTObject@@@Z
	?RemoveBefore@TSeqCollection@@UAEXPAVTObject@@@Z
	?IsSorted@TSeqCollection@@UBE_NXZ
	?IsA@TSeqCollection@@UBEPAVTClass@@XZ
	??0TList@@QAE@XZ
	?Add@TList@@UAEXPAVTObject@@@Z
	?Add@TList@@UAEXPAVTObject@@PBD@Z
	?FirstLink@TList@@UBEPAVTObjLink@@XZ
	?LastLink@TList@@UBEPAVTObjLink@@XZ
	?IsA@TList@@UBEPAVTClass@@XZ
	??0TDatime@@QAE@I_N@Z
	??1TDatime@@UAE@XZ
	?IsA@TDatime@@UBEPAVTClass@@XZ
	?BoundsOk@TObjArray@@IBE_NPBDH@Z
	?GetEntriesFast@TObjArray@@QBEHXZ
	?Add@TObjArray@@UAEXPAVTObject@@@Z
	?At@TObjArray@@UBEPAVTObject@@H@Z
	??0_Ignore@std@@QAE@XZ
	?GetXmin@TAxis@@QBENXZ
	?GetXmax@TAxis@@QBENXZ
	??1TGDimension@@UAE@XZ
	?IsA@TGDimension@@UBEPAVTClass@@XZ
	??0TRefCnt@@QAE@H@Z
	??1TRefCnt@@UAE@XZ
	?SetRefCount@TRefCnt@@QAEXI@Z
	??0TGLayoutHints@@QAE@KHHHH@Z
	?SetLayoutHints@TGLayoutHints@@UAEXK@Z
	?SetPadTop@TGLayoutHints@@UAEXH@Z
	?SetPadBottom@TGLayoutHints@@UAEXH@Z
	?SetPadLeft@TGLayoutHints@@UAEXH@Z
	?SetPadRight@TGLayoutHints@@UAEXH@Z
	?ls@TGLayoutHints@@UBEXPBD@Z
	?IsA@TGLayoutHints@@UBEPAVTClass@@XZ
	?_Nextnode@?$_List_val@U?$_List_simple_types@PAVTEveElement@@@std@@@std@@SAAAPAU?$_List_node@PAVTEveElement@@PAX@2@PAU32@@Z
	?_Myval@?$_List_val@U?$_List_simple_types@PAVTEveElement@@@std@@@std@@SAAAPAVTEveElement@@PAU?$_List_node@PAVTEveElement@@PAX@2@@Z
	?begin@?$list@PAVTEveElement@@V?$allocator@PAVTEveElement@@@std@@@std@@QAE?AV?$_List_iterator@V?$_List_val@U?$_List_simple_types@PAVTEveElement@@@std@@@std@@@2@XZ
	?end@?$list@PAVTEveElement@@V?$allocator@PAVTEveElement@@@std@@@std@@QAE?AV?$_List_iterator@V?$_List_val@U?$_List_simple_types@PAVTEveElement@@@std@@@std@@@2@XZ
	?BeginChildren@TEveElement@@QAE?AV?$_List_iterator@V?$_List_val@U?$_List_simple_types@PAVTEveElement@@@std@@@std@@@std@@XZ
	?EndChildren@TEveElement@@QAE?AV?$_List_iterator@V?$_List_val@U?$_List_simple_types@PAVTEveElement@@@std@@@std@@@std@@XZ
	?GetUserData@TEveElement@@QBEPAXXZ
	??0?$_List_unchecked_const_iterator@V?$_List_val@U?$_List_simple_types@PAVTEveElement@@@std@@@std@@U_Iterator_base0@2@@std@@QAE@PAU?$_List_node@PAVTEveElement@@PAX@1@PBV?$_List_val@U?$_List_simple_types@PAVTEveElement@@@std@@@1@@Z
	??0?$_List_const_iterator@V?$_List_val@U?$_List_simple_types@PAVTEveElement@@@std@@@std@@@std@@QAE@PAU?$_List_node@PAVTEveElement@@PAX@1@PBV?$_List_val@U?$_List_simple_types@PAVTEveElement@@@std@@@1@@Z
	??D?$_List_const_iterator@V?$_List_val@U?$_List_simple_types@PAVTEveElement@@@std@@@std@@@std@@QBEABQAVTEveElement@@XZ
	??E?$_List_const_iterator@V?$_List_val@U?$_List_simple_types@PAVTEveElement@@@std@@@std@@@std@@QAEAAV01@XZ
	??8?$_List_const_iterator@V?$_List_val@U?$_List_simple_types@PAVTEveElement@@@std@@@std@@@std@@QBE_NABV01@@Z
	??9?$_List_const_iterator@V?$_List_val@U?$_List_simple_types@PAVTEveElement@@@std@@@std@@@std@@QBE_NABV01@@Z
	??0?$_List_iterator@V?$_List_val@U?$_List_simple_types@PAVTEveElement@@@std@@@std@@@std@@QAE@PAU?$_List_node@PAVTEveElement@@PAX@1@PBV?$_List_val@U?$_List_simple_types@PAVTEveElement@@@std@@@1@@Z
	??D?$_List_iterator@V?$_List_val@U?$_List_simple_types@PAVTEveElement@@@std@@@std@@@std@@QBEAAPAVTEveElement@@XZ
	??E?$_List_iterator@V?$_List_val@U?$_List_simple_types@PAVTEveElement@@@std@@@std@@@std@@QAEAAV01@XZ
	??E?$_List_iterator@V?$_List_val@U?$_List_simple_types@PAVTEveElement@@@std@@@std@@@std@@QAE?AV01@H@Z
	?GetHighlight@TEveManager@@QBEPAVTEveSelection@@XZ
	?GetBrowser@TEveManager@@QBEPAVTEveBrowser@@XZ
	?GetViewers@TEveManager@@QBEPAVTEveViewerList@@XZ
	?GetEventScene@TEveManager@@QBEPAVTEveScene@@XZ
	?GetCurrentEvent@TEveManager@@QBEPAVTEveEventManager@@XZ
	?Redraw3D@TEveManager@@QAEX_N0@Z
	?GetTabRight@TRootBrowser@@QBEPAVTGTab@@XZ
	?WidgetId@TGWidget@@QBEHXZ
	?SetHorizontal@TEveWindowPack@@QAEXXZ
	?GetCurrentTab@TGTab@@QBEPAVTGTabElement@@XZ
	?GetCanvasWindowId@TRootEmbeddedCanvas@@QBEHXZ
	??0TGTextBuffer@@QAE@H@Z
	??1TGTextBuffer@@UAE@XZ
	?IsA@TGTextBuffer@@UBEPAVTClass@@XZ
	??0TSortedList@@QAE@_N@Z
	?IsSorted@TSortedList@@UBE_NXZ
	?AddFirst@TSortedList@@UAEXPAVTObject@@@Z
	?AddFirst@TSortedList@@UAEXPAVTObject@@PBD@Z
	?AddLast@TSortedList@@UAEXPAVTObject@@@Z
	?AddLast@TSortedList@@UAEXPAVTObject@@PBD@Z
	?AddAt@TSortedList@@UAEXPAVTObject@@H@Z
	?AddAfter@TSortedList@@UAEXPBVTObject@@PAV2@@Z
	?AddAfter@TSortedList@@UAEXPAVTObjLink@@PAVTObject@@@Z
	?AddBefore@TSortedList@@UAEXPBVTObject@@PAV2@@Z
	?AddBefore@TSortedList@@UAEXPAVTObjLink@@PAVTObject@@@Z
	?Sort@TSortedList@@UAEX_N@Z
	?IsA@TSortedList@@UBEPAVTClass@@XZ
	??1TSortedList@@UAE@XZ
	??1EdbPoint@@UAE@XZ
	?Transform@EdbPoint@@UAEXPBVEdbAffine2D@@@Z
	?Transform@EdbPoint@@UAEXPBVEdbAffine3D@@@Z
	?Test@EdbPoint@@UBEXXZ
	?IsA@EdbPoint@@UBEPAVTClass@@XZ
	??0EdbPoint@@QAE@XZ
	??1EdbAngle2D@@UAE@XZ
	?Test@EdbAngle2D@@UBEXXZ
	?IsA@EdbAngle2D@@UBEPAVTClass@@XZ
	??0EdbAngle2D@@QAE@XZ
	??1EdbPoint2D@@UAE@XZ
	?Z@EdbPoint2D@@UBEMXZ
	?SetZ@EdbPoint2D@@UAEXM@Z
	?Test@EdbPoint2D@@UBEXXZ
	?TestPoint2D@EdbPoint2D@@UBEXXZ
	?IsA@EdbPoint2D@@UBEPAVTClass@@XZ
	??0EdbPoint2D@@QAE@XZ
	??1EdbTrack2D@@UAE@XZ
	?Test@EdbTrack2D@@UBEXXZ
	?IsA@EdbTrack2D@@UBEPAVTClass@@XZ
	??0EdbTrack2D@@QAE@XZ
	??0EdbID@@QAE@HHHH@Z
	??1EdbID@@UAE@XZ
	?Set@EdbID@@QAEXHHHH@Z
	?IsA@EdbID@@UBEPAVTClass@@XZ
	??0EdbSegP@@QAE@XZ
	??0EdbSegP@@QAE@ABV0@@Z
	??1EdbSegP@@UAE@XZ
	?SetZ@EdbSegP@@UAEXM@Z
	?SetPlate@EdbSegP@@QAEXH@Z
	?ID@EdbSegP@@QBEHXZ
	?PID@EdbSegP@@QBEHXZ
	?Flag@EdbSegP@@QBEHXZ
	?W@EdbSegP@@QBEMXZ
	?Z@EdbSegP@@UBEMXZ
	?Chi2@EdbSegP@@QBEMXZ
	?Plate@EdbSegP@@QBEHXZ
	?Side@EdbSegP@@QBEHXZ
	?X@EdbSegP@@UBEMXZ
	?Y@EdbSegP@@UBEMXZ
	?TX@EdbSegP@@UBEMXZ
	?TY@EdbSegP@@UBEMXZ
	?SetX@EdbSegP@@UAEXM@Z
	?SetY@EdbSegP@@UAEXM@Z
	?SetTX@EdbSegP@@UAEXM@Z
	?SetTY@EdbSegP@@UAEXM@Z
	?IsSortable@EdbSegP@@UBE_NXZ
	?IsA@EdbSegP@@UBEPAVTClass@@XZ
	?GetSegment@EdbSegmentsBox@@QBEPAVEdbSegP@@H@Z
	??0EdbTrackP@@QAE@AAV0@@Z
	?SetCounters@EdbTrackP@@QAEXXZ
	?SetN0@EdbTrackP@@QAEXXZ
	?SetNpl@EdbTrackP@@QAEXXZ
	?N@EdbTrackP@@QBEHXZ
	?GetSegmentFirst@EdbTrackP@@QBEPAVEdbSegP@@XZ
	?GetSegmentLast@EdbTrackP@@QBEPAVEdbSegP@@XZ
	?GetSegment@EdbTrackP@@QBEPAVEdbSegP@@H@Z
	?AddSegment@EdbTrackP@@QAEXPAVEdbSegP@@@Z
	?Clear@EdbTrackP@@QAEXXZ
	?IsA@EdbTrackP@@UBEPAVTClass@@XZ
	?ID@EdbPattern@@QBEHXZ
	?Plate@EdbPattern@@QBEHXZ
	?Npatterns@EdbPatternsVolume@@QBEHXZ
	?GetTrack@EdbVTA@@QBEPAVEdbTrackP@@XZ
	?SetZpos@EdbVTA@@QAEXH@Z
	?SetFlag@EdbVTA@@QAEXH@Z
	?SetImp@EdbVTA@@QAEXM@Z
	?N@EdbVertex@@QBEHXZ
	?ID@EdbVertex@@QBEHXZ
	?Hash@EdbVertex@@UBEKXZ
	?IsSortable@EdbVertex@@UBE_NXZ
	?X@EdbVertex@@QBEMXZ
	?Y@EdbVertex@@QBEMXZ
	?Z@EdbVertex@@QBEMXZ
	?GetVTa@EdbVertex@@QAEPAVEdbVTA@@H@Z
	?GetTrack@EdbVertex@@QAEPAVEdbTrackP@@H@Z
	?V@EdbVertex@@QBEPAVVertex@VERTEX@@XZ
	?SetID@EdbVertex@@QAEXH@Z
	?SetXYZ@EdbVertex@@QAEXMMM@Z
	?At@TIndexCell@@QBEPAV1@H@Z
	?Value@TIndexCell@@QBEJXZ
	?ID@EdbLayer@@QBEHXZ
	?Z@EdbLayer@@QBEMXZ
	?Ntracks@EdbPVRec@@QBEHXZ
	?GetTrack@EdbPVRec@@QBEPAVEdbTrackP@@H@Z
	?Nvtx@EdbPVRec@@QBEHXZ
	?GetVertex@EdbPVRec@@QAEPAVEdbVertex@@AAH@Z
	?Plate@EdbDataPiece@@QBEHXZ
	?GetLayer@EdbDataPiece@@QAEPAVEdbLayer@@H@Z
	?N@EdbDataSet@@QBEHXZ
	?GetPiece@EdbDataSet@@QAEPAVEdbDataPiece@@H@Z
	?GetPlate@EdbBrickP@@QAEPAVEdbPlateP@@H@Z
	?Brick@EdbScanSet@@QAEAAVEdbBrickP@@XZ
	?GetPlate@EdbScanSet@@QAEPAVEdbPlateP@@H@Z
	?Clear@EdbEDAAreaSet@@QAEXXZ
	?AddVertex@EdbEDAVertexSet@@QAEXPAVEdbVertex@@@Z
	?AddVertices@EdbEDAVertexSet@@QAEXPAVTObjArray@@@Z
	?SetVertex@EdbEDAVertexSet@@QAEXPAVEdbVertex@@@Z
	?StorePrevious@EdbEDAVertexSet@@QAEXXZ
	?ClearVertices@EdbEDAVertexSet@@QAEXXZ
	?N@EdbEDAVertexSet@@QAEHXZ
	?GetVertex@EdbEDAVertexSet@@QAEPAVEdbVertex@@H@Z
	?AddTrack@EdbEDATrackSet@@QAEXPAVEdbTrackP@@@Z
	?SetTrack@EdbEDATrackSet@@QAEXPAVEdbTrackP@@@Z
	?SetTracks@EdbEDATrackSet@@QAEXPAVTObjArray@@@Z
	?GetTracks@EdbEDATrackSet@@QAEPAVTObjArray@@XZ
	?GetPVRec@EdbEDATrackSet@@QAEPAVEdbPVRec@@XZ
	?ClearTracks@EdbEDATrackSet@@QAEXXZ
	?ClearTracksBase@EdbEDATrackSet@@QAEXXZ
	?Clear@EdbEDATrackSet@@QAEXXZ
	?StorePrevious@EdbEDATrackSet@@QAEXXZ
	?FindTrackLast@EdbEDATrackSet@@QAEPAVEdbTrackP@@PAVEdbSegP@@NN@Z
	?AddSegments@EdbEDATrackSet@@QAEXPAVTObjArray@@@Z
	?GetTrack@EdbEDATrackSet@@QAEPAVEdbTrackP@@PAVEdbSegP@@@Z
	?IsMember@EdbEDATrackSet@@QAE_NPAVEdbTrackP@@@Z
	?SetTracksVertex@EdbEDATrackSet@@QAEXPAVEdbVertex@@_N@Z
	?SetTracksVertices@EdbEDATrackSet@@QAEXPAVTObjArray@@_N@Z
	??0EdbEDATrackP@@QAE@PAVEdbTrackP@@PAVEdbVertex@@@Z
	?Init@EdbEDATrackP@@QAEXXZ
	?SetFlagsAuto@EdbEDATrackP@@QAEXXZ
	?Comment@EdbEDATrackP@@QAEPBDXZ
	?SetVertexUp@EdbEDATrackP@@QAEXPAVEdbVertex@@@Z
	?SegmentFirst@EdbEDATrackP@@QAEPAVEdbSegP@@XZ
	?SetTrackSearch@EdbEDATrackP@@QAEXH@Z
	?TrackSearch@EdbEDATrackP@@QAEHXZ
	?SetParticle@EdbEDATrackP@@QAEXH@Z
	?Particle@EdbEDATrackP@@QAEHXZ
	?Darkness@EdbEDATrackP@@QAEHXZ
	?SetCSTrack@EdbEDATrackP@@QAEXH@Z
	?CSTrack@EdbEDATrackP@@QAEHXZ
	?Classification@EdbEDATrackP@@QAEHXZ
	?SetIPUp@EdbEDATrackP@@QAEXN@Z
	?IPUp@EdbEDATrackP@@QAENXZ
	?SetP@EdbEDATrackP@@QAEXNNN@Z
	?GetOriginal@EdbEDATrackP@@QAEPAVEdbTrackP@@XZ
	?Print@EdbEDATrackP@@QAEXXZ
	?IsA@EdbEDATrackP@@UBEPAVTClass@@XZ
	??1EdbEDATrackP@@UAE@XZ
	?AddTrack@EdbEDADecayVertex@@AAEXPAVEdbEDATrackP@@@Z
	??0EdbEDADecayVertex@@QAE@PAVEdbVertex@@0PAVEdbEDATrackP@@11111@Z
	??0EdbEDADecayVertex@@QAE@PAVEdbVertex@@0PAVEdbEDATrackP@@PAVTObjArray@@@Z
	??0EdbEDADecayVertex@@QAE@XZ
	??1EdbEDADecayVertex@@UAE@XZ
	?SetParent@EdbEDADecayVertex@@QAEXPAVEdbEDATrackP@@@Z
	?SetDaughter@EdbEDADecayVertex@@QAEXPAVEdbEDATrackP@@@Z
	?SetDaughters@EdbEDADecayVertex@@QAEXPAVTObjArray@@@Z
	?SetPartner@EdbEDADecayVertex@@QAEXPAVEdbEDATrackP@@@Z
	?SetPrimaryVertex@EdbEDADecayVertex@@QAEXPAVEdbVertex@@@Z
	?GetPrimaryVertex@EdbEDADecayVertex@@QAEPAVEdbVertex@@XZ
	?SetType@EdbEDADecayVertex@@QAEXH@Z
	?IsA@EdbEDADecayVertex@@UBEPAVTClass@@XZ
	?S1@EdbEDASmallKink@@QAEPAVEdbSegP@@XZ
	?S2@EdbEDASmallKink@@QAEPAVEdbSegP@@XZ
	?IPL1@EdbEDASmallKink@@QAEHXZ
	?IPL2@EdbEDASmallKink@@QAEHXZ
	??0EdbEDASmallKink@@QAE@PAVEdbVertex@@PAVEdbTrackP@@PAVEdbSegP@@2NNNNHNNNNNN@Z
	?Draw@EdbEDASmallKink@@UAEXPBD@Z
	?IsA@EdbEDASmallKink@@UBEPAVTClass@@XZ
	??1EdbEDASmallKink@@UAE@XZ
	?FindPrimaryVertex@EdbEDADecaySearch@@QAEPAVEdbVertex@@XZ
	?SetVertex@EdbEDADecaySearch@@QAEXPAVEdbVertex@@@Z
	?TSDaughterTracks@EdbEDADecaySearch@@QAEPAVTObjArray@@PAV2@@Z
	?GetTSDauIP1@EdbEDADecaySearch@@QAENN@Z
	?MTSearch2seg@EdbEDADecaySearch@@QAEXPAVTObjArray@@@Z
	?MTSearchAll@EdbEDADecaySearch@@QAEXPAVTObjArray@@@Z
	?TSDaughterTracks2@EdbEDADecaySearch@@QAEXXZ
	?GetTSDauIP2@EdbEDADecaySearch@@QAENN@Z
	?SmallKinkSearch@EdbEDADecaySearch@@QAEXXZ
	?KinkSearch@EdbEDADecaySearch@@QAEXXZ
	?GetIPCut@EdbEDADecaySearch@@QAEMPAVEdbVertex@@PAVEdbSegP@@@Z
	?ShortDecaySearch@EdbEDADecaySearch@@QAEXXZ
	?TSParentTracks@EdbEDADecaySearch@@QAEPAVTObjArray@@PAV2@@Z
	?TSBaseTracks@EdbEDADecaySearch@@QAEPAVTObjArray@@H@Z
	?FindUpstreamVertices@EdbEDADecaySearch@@QAEPAVTObjArray@@XZ
	?DoSearch@EdbEDADecaySearch@@QAEPAVTObjArray@@XZ
	?FindTrack@EdbEDADecaySearch@@QAEPAVEdbEDATrackP@@PAVEdbTrackP@@@Z
	?Ntracks@EdbEDADecaySearch@@QAEHXZ
	?GetTrack@EdbEDADecaySearch@@QAEPAVEdbEDATrackP@@H@Z
	?NDecayVertices@EdbEDADecaySearch@@QAEHXZ
	?GetDecayVertex@EdbEDADecaySearch@@QAEPAVEdbEDADecayVertex@@H@Z
	?SetPVR@EdbEDADecaySearch@@QAEXPAVEdbPVRec@@@Z
	?SetTrackSet@EdbEDADecaySearch@@QAEXPAVEdbEDATrackSet@@@Z
	?CheckInTrackKink@EdbEDADecaySearch@@QAEPAVTObjArray@@PAVEdbTrackP@@@Z
	?PrintTracks@EdbEDADecaySearch@@QAEXXZ
	?MakeFakeVertex@EdbEDADecaySearch@@QAEPAVEdbVertex@@PAVEdbTrackP@@N@Z
	?MakeGUI@EdbEDADecaySearchTab@@QAEXXZ
	?ApplyParams@EdbEDADecaySearchTab@@QAEXXZ
	?CloseParamWindow@EdbEDADecaySearchTab@@QAEXXZ
	?DoSearchButton@EdbEDADecaySearchTab@@QAEXXZ
	?DoMicroTrackSearchButton@EdbEDADecaySearchTab@@QAEXXZ
	?FindUpstreamVertex@EdbEDADecaySearchTab@@QAEXXZ
	?MakeParamWindow@EdbEDADecaySearchTab@@QAEXXZ
	?MakeFakeVertexButton@EdbEDADecaySearchTab@@QAEXXZ
	??0EdbEDAFeedbackEntryT@@QAE@PAVEdbTrackP@@PAVTGTab@@@Z
	??1EdbEDAFeedbackEntryT@@UAE@XZ
	?HilightElement@EdbEDAFeedbackEntryT@@QAEXXZ
	?ReplaceEntry@EdbEDAFeedbackEntryT@@QAEXXZ
	?UpdateGUI@EdbEDAFeedbackEntryT@@QAEXXZ
	?IsA@EdbEDAFeedbackEntryT@@UBEPAVTClass@@XZ
	??0EdbEDAFeedbackEntryV@@QAE@PAVEdbVertex@@PAVTGTab@@@Z
	??1EdbEDAFeedbackEntryV@@UAE@XZ
	?HilightElement@EdbEDAFeedbackEntryV@@QAEXXZ
	?IsA@EdbEDAFeedbackEntryV@@UBEPAVTClass@@XZ
	??0EdbEDAFeedbackEditor@@QAE@XZ
	??1EdbEDAFeedbackEditor@@QAE@XZ
	?AddTracksButton@EdbEDAFeedbackEditor@@QAEXXZ
	?AddVerticesButton@EdbEDAFeedbackEditor@@QAEXXZ
	?HilightElementT@EdbEDAFeedbackEditor@@QAEXH@Z
	?HilightElementV@EdbEDAFeedbackEditor@@QAEXH@Z
	?HandleButtons@EdbEDAFeedbackEditor@@QAEXH@Z
	?RemoveTrackTab@EdbEDAFeedbackEditor@@QAEXH@Z
	?RemoveVertexTab@EdbEDAFeedbackEditor@@QAEXH@Z
	?GetBrick@EdbEDABrickData@@QAEHXZ
	?GetFirstPlate@EdbEDABrickData@@QAEHXZ
	?GetLastPlate@EdbEDABrickData@@QAEHXZ
	?GetIPL@EdbEDABrickData@@QAEHH@Z
	?GetIPLZ@EdbEDABrickData@@QAEHM@Z
	?GetZ@EdbEDABrickData@@QAENH@Z
	?GetZPID@EdbEDABrickData@@QAENH@Z
	?GetSelected@EdbEDASelection@@QAEPAVEdbSegP@@H@Z
	?NSelectedTracks@EdbEDASelection@@QAEHXZ
	?GetSelectedTrack@EdbEDASelection@@QAEPAVEdbTrackP@@H@Z
	?GetSelectedVertex@EdbEDASelection@@QAEPAVEdbVertex@@XZ
	?GetTrack@EdbEDA@@QAEPAVEdbTrackP@@PAVEdbSegP@@@Z
	?GetEveElement@EdbEDA@@QAEPAVTEveElement@@PAVTObject@@@Z
	?NTrackSets@EdbEDA@@QAEHXZ
	?GetTrackSet@EdbEDA@@QAEPAVEdbEDATrackSet@@H@Z
	?GetTrackSet@EdbEDA@@QAEPAVEdbEDATrackSet@@PAD@Z
	?GetTrackSet@EdbEDA@@QAEPAVEdbEDATrackSet@@PAVEdbTrackP@@@Z
	?GetVertexSet@EdbEDA@@QAEPAVEdbEDAVertexSet@@XZ
	?AddVertex@EdbEDA@@QAEXPAVEdbVertex@@@Z
	?Redraw@EdbEDA@@QAEXXZ
	?StorePrevious@EdbEDA@@QAEXXZ
	?GetPlotTab@EdbEDA@@QAEPAVEdbEDAPlotTab@@XZ
	?GetVertexTab@EdbEDA@@QAEPAVEdbEDAVertexTab@@XZ
	?CheckScanback@EdbEDA@@QAEPAVEdbTrackP@@PAV2@@Z
	?GetScaleZ@EdbEDA@@QAENXZ
	??$construct@PADAAPAD@?$_Wrap_alloc@V?$allocator@D@std@@@std@@QAEXPAPADAAPAD@Z
	??$destroy@PAD@?$_Wrap_alloc@V?$allocator@D@std@@@std@@QAEXPAPAD@Z
	??$addressof@D@std@@YAPADAAD@Z
	??$_Allocate@D@std@@YAPADIPAD@Z
	??$forward@AAPAD@std@@YAAAPADAAPAD@Z
	??$construct@PADAAPAD@?$allocator_traits@V?$allocator@D@std@@@std@@SAXAAV?$allocator@D@1@PAPADAAPAD@Z
	??$destroy@PAD@?$allocator_traits@V?$allocator@D@std@@@std@@SAXAAV?$allocator@D@1@PAPAD@Z
	??$construct@PADAAPAD@?$allocator@D@std@@QAEXPAPADAAPAD@Z
	??$destroy@PAD@?$allocator@D@std@@QAEXPAPAD@Z
	?Transform@EdbTrack2D@@W3AEXPBVEdbAffine2D@@@Z
	?Test@EdbTrack2D@@W3BEXXZ
	?Print@EdbTrack2D@@W3BEXPBD@Z
	?IsA@EdbTrack2D@@W3BEPAVTClass@@XZ
	?ShowMembers@EdbTrack2D@@W3AEXAAVTMemberInspector@@@Z
	?Streamer@EdbTrack2D@@W3AEXAAVTBuffer@@@Z
	?IsA@EdbSegP@@WM@BEPAVTClass@@XZ
	?ShowMembers@EdbSegP@@WM@AEXAAVTMemberInspector@@@Z
	?Streamer@EdbSegP@@WM@AEXAAVTBuffer@@@Z
	?Print@EdbSegP@@WM@BEXPBD@Z
	?Print@EdbSegP@@WBA@BEXPBD@Z
	?IsA@EdbSegP@@WBA@BEPAVTClass@@XZ
	?ShowMembers@EdbSegP@@WBA@AEXAAVTMemberInspector@@@Z
	?Streamer@EdbSegP@@WBA@AEXAAVTBuffer@@@Z
	?IsA@EdbTrackP@@WM@BEPAVTClass@@XZ
	?ShowMembers@EdbTrackP@@WM@AEXAAVTMemberInspector@@@Z
	?Streamer@EdbTrackP@@WM@AEXAAVTBuffer@@@Z
	?IsA@EdbTrackP@@WBA@BEPAVTClass@@XZ
	?ShowMembers@EdbTrackP@@WBA@AEXAAVTMemberInspector@@@Z
	?Streamer@EdbTrackP@@WBA@AEXAAVTBuffer@@@Z
	?IsA@EdbEDATrackP@@WM@BEPAVTClass@@XZ
	?ShowMembers@EdbEDATrackP@@WM@AEXAAVTMemberInspector@@@Z
	?Streamer@EdbEDATrackP@@WM@AEXAAVTBuffer@@@Z
	?IsA@EdbEDATrackP@@WBA@BEPAVTClass@@XZ
	?ShowMembers@EdbEDATrackP@@WBA@AEXAAVTMemberInspector@@@Z
	?Streamer@EdbEDATrackP@@WBA@AEXAAVTBuffer@@@Z
	?_Generic_object@?$_Error_objects@H@std@@2V_Generic_error_category@2@A 	 DATA
	?_Iostream_object@?$_Error_objects@H@std@@2V_Iostream_error_category@2@A 	 DATA
	?_System_object@?$_Error_objects@H@std@@2V_System_error_category@2@A 	 DATA
	?id@?$num_put@DV?$back_insert_iterator@V?$basic_string@DU?$char_traits@D@std@@V?$allocator@D@2@@std@@@std@@@std@@2V0locale@2@A 	 DATA
	?id@?$num_put@_WV?$back_insert_iterator@V?$basic_string@_WU?$char_traits@_W@std@@V?$allocator@_W@2@@std@@@std@@@std@@2V0locale@2@A 	 DATA
	??_R0?AVTObject@@@8 	 DATA
	??_R0?AVerror_category@std@@@8 	 DATA
	??_R0?AV_Generic_error_category@std@@@8 	 DATA
	??_R0?AV_Iostream_error_category@std@@@8 	 DATA
	??_R0?AV_System_error_category@std@@@8 	 DATA
	??_R0?AVTNamed@@@8 	 DATA
	??_R0?AVTCollection@@@8 	 DATA
	??_R0?AVTList@@@8 	 DATA
	??_R0?AVTSeqCollection@@@8 	 DATA
	??_R0?AVTDatime@@@8 	 DATA
	??_R0?AVTRefCnt@@@8 	 DATA
	??_R0?AVTGDimension@@@8 	 DATA
	??_R0?AVTGLayoutHints@@@8 	 DATA
	??_R0?AVTGTextBuffer@@@8 	 DATA
	??_R0?AVTSortedList@@@8 	 DATA
	??_R0?AVEdbPoint@@@8 	 DATA
	??_R0?AVEdbPoint2D@@@8 	 DATA
	??_R0?AVEdbAngle2D@@@8 	 DATA
	??_R0?AVEdbTrack2D@@@8 	 DATA
	??_R0?AVEdbID@@@8 	 DATA
	??_R0?AVEdbSegP@@@8 	 DATA
	??_R0?AVEdbTrackP@@@8 	 DATA
	??_R0?AVEdbEDATrackP@@@8 	 DATA
	??_R0?AVEdbEDADecayVertex@@@8 	 DATA
	??_R0?AVEdbVertex@@@8 	 DATA
	??_R0?AVEdbEDASmallKink@@@8 	 DATA
	??_R0?AVEdbEDAFeedbackEntryT@@@8 	 DATA
	??_R0?AVEdbEDAFeedbackEntryV@@@8 	 DATA
	hypot
	fabsf
	?abs@@YAMM@Z
	??2@YAPAXIPAX@Z
	??3@YAXPAX0@Z
	?length@?$char_traits@D@std@@SAIPBD@Z
	?copy@?$char_traits@D@std@@SAPADPADPBDI@Z
	?move@?$char_traits@D@std@@SAPADPADPBDI@Z
	?assign@?$char_traits@D@std@@SAXAADABD@Z
	?eq_int_type@?$char_traits@D@std@@SA_NABH0@Z
	?eof@?$char_traits@D@std@@SAHXZ
	??0?$allocator@D@std@@QAE@XZ
	?deallocate@?$allocator@D@std@@QAEXPADI@Z
	?allocate@?$allocator@D@std@@QAEPADI@Z
	?max_size@?$allocator@D@std@@QBEIXZ
	?max_size@?$allocator_traits@V?$allocator@D@std@@@std@@SAIABV?$allocator@D@2@@Z
	??0?$_Wrap_alloc@V?$allocator@D@std@@@std@@QAE@XZ
	?allocate@?$_Wrap_alloc@V?$allocator@D@std@@@std@@QAEPADI@Z
	?deallocate@?$_Wrap_alloc@V?$allocator@D@std@@@std@@QAEXPADI@Z
	?max_size@?$_Wrap_alloc@V?$allocator@D@std@@@std@@QBEIXZ
	??0?$_String_val@U?$_Simple_types@D@std@@@std@@QAE@XZ
	?_Myptr@?$_String_val@U?$_Simple_types@D@std@@@std@@QAEPADXZ
	?_Myptr@?$_String_val@U?$_Simple_types@D@std@@@std@@QBEPBDXZ
	??0?$_String_alloc@$0A@U?$_String_base_types@DV?$allocator@D@std@@@std@@@std@@QAE@ABV?$allocator@D@1@@Z
	?_Getal@?$_String_alloc@$0A@U?$_String_base_types@DV?$allocator@D@std@@@std@@@std@@QBE?AU?$_Wrap_alloc@V?$allocator@D@std@@@2@XZ
	??0?$basic_string@DU?$char_traits@D@std@@V?$allocator@D@2@@std@@QAE@PBD@Z
	??1?$basic_string@DU?$char_traits@D@std@@V?$allocator@D@2@@std@@QAE@XZ
	?assign@?$basic_string@DU?$char_traits@D@std@@V?$allocator@D@2@@std@@QAEAAV12@ABV12@II@Z
	?assign@?$basic_string@DU?$char_traits@D@std@@V?$allocator@D@2@@std@@QAEAAV12@PBDI@Z
	?assign@?$basic_string@DU?$char_traits@D@std@@V?$allocator@D@2@@std@@QAEAAV12@PBD@Z
	?erase@?$basic_string@DU?$char_traits@D@std@@V?$allocator@D@2@@std@@QAEAAV12@I@Z
	?erase@?$basic_string@DU?$char_traits@D@std@@V?$allocator@D@2@@std@@QAEAAV12@II@Z
	?size@?$basic_string@DU?$char_traits@D@std@@V?$allocator@D@2@@std@@QBEIXZ
	?max_size@?$basic_string@DU?$char_traits@D@std@@V?$allocator@D@2@@std@@QBEIXZ
	?_Copy@?$basic_string@DU?$char_traits@D@std@@V?$allocator@D@2@@std@@QAEXII@Z
	?_Eos@?$basic_string@DU?$char_traits@D@std@@V?$allocator@D@2@@std@@QAEXI@Z
	?_Grow@?$basic_string@DU?$char_traits@D@std@@V?$allocator@D@2@@std@@QAE_NI_N@Z
	?_Inside@?$basic_string@DU?$char_traits@D@std@@V?$allocator@D@2@@std@@QAE_NPBD@Z
	?_Tidy@?$basic_string@DU?$char_traits@D@std@@V?$allocator@D@2@@std@@QAEX_NI@Z
	?_Xlen@?$basic_string@DU?$char_traits@D@std@@V?$allocator@D@2@@std@@QBEXXZ
	?_Xran@?$basic_string@DU?$char_traits@D@std@@V?$allocator@D@2@@std@@QBEXXZ
	?generic_category@std@@YAABVerror_category@1@XZ
	?system_category@std@@YAABVerror_category@1@XZ
	??0error_category@std@@QAE@XZ
	??1error_category@std@@UAE@XZ
	?default_error_condition@error_category@std@@UBE?AVerror_condition@2@H@Z
	?equivalent@error_category@std@@UBE_NHABVerror_condition@2@@Z
	?equivalent@error_category@std@@UBE_NABVerror_code@2@H@Z
	??8error_category@std@@QBE_NABV01@@Z
	?value@error_code@std@@QBEHXZ
	?category@error_code@std@@QBEABVerror_category@2@XZ
	??0error_condition@std@@QAE@HABVerror_category@1@@Z
	?value@error_condition@std@@QBEHXZ
	?category@error_condition@std@@QBEABVerror_category@2@XZ
	??8error_condition@std@@QBE_NABV01@@Z
	??0_Generic_error_category@std@@QAE@XZ
	?name@_Generic_error_category@std@@UBEPBDXZ
	?message@_Generic_error_category@std@@UBE?AV?$basic_string@DU?$char_traits@D@std@@V?$allocator@D@2@@2@H@Z
	??1_Generic_error_category@std@@UAE@XZ
	??0_Iostream_error_category@std@@QAE@XZ
	?name@_Iostream_error_category@std@@UBEPBDXZ
	?message@_Iostream_error_category@std@@UBE?AV?$basic_string@DU?$char_traits@D@std@@V?$allocator@D@2@@2@H@Z
	??1_Iostream_error_category@std@@UAE@XZ
	??0_System_error_category@std@@QAE@XZ
	?name@_System_error_category@std@@UBEPBDXZ
	?message@_System_error_category@std@@UBE?AV?$basic_string@DU?$char_traits@D@std@@V?$allocator@D@2@@2@H@Z
	?default_error_condition@_System_error_category@std@@UBE?AVerror_condition@2@H@Z
	??1_System_error_category@std@@UAE@XZ
	?Clear@TObject@@UAEXPBD@Z
	?GetOption@TObject@@UBEPBDXZ
	?IsSortable@TObject@@UBE_NXZ
	??2TObject@@SAPAXI@Z
	?Abs@TMath@@YAHH@Z
	?Abs@TMath@@YAMM@Z
	?IsLong@TString@@ABE_NXZ
	?GetLongPointer@TString@@ABEPBDXZ
	?GetShortPointer@TString@@ABEPBDXZ
	?GetPointer@TString@@ABEPBDXZ
	?Data@TString@@QBEPBDXZ
	??0TCollection@@IAE@XZ
	??1TCollection@@UAE@XZ
	?GetEntries@TCollection@@UBEHXZ
	?GetSize@TCollection@@UBEHXZ
	?Hash@TCollection@@UBEKXZ
	?IsEmpty@TCollection@@UBE_NXZ
	?IsFolder@TCollection@@UBE_NXZ
	?IsSortable@TCollection@@UBE_NXZ
	?MakeReverseIterator@TCollection@@UBEPAVTIterator@@XZ
	?IsA@TCollection@@UBEPAVTClass@@XZ
	??0TSeqCollection@@IAE@XZ
	?Changed@TSeqCollection@@MAEXXZ
	??1TSeqCollection@@UAE@XZ
	?Add@TSeqCollection@@UAEXPAVTObject@@@Z
	?RemoveFirst@TSeqCollection@@UAEXXZ
	?RemoveLast@TSeqCollection@@UAEXXZ
	?RemoveAt@TSeqCollection@@UAEPAVTObject@@H@Z
	?RemoveAfter@TSeqCollection@@UAEXPAVTObject@@@Z
	?RemoveBefore@TSeqCollection@@UAEXPAVTObject@@@Z
	?IsSorted@TSeqCollection@@UBE_NXZ
	?IsA@TSeqCollection@@UBEPAVTClass@@XZ
	??0TList@@QAE@XZ
	?Add@TList@@UAEXPAVTObject@@@Z
	?Add@TList@@UAEXPAVTObject@@PBD@Z
	?FirstLink@TList@@UBEPAVTObjLink@@XZ
	?LastLink@TList@@UBEPAVTObjLink@@XZ
	?IsA@TList@@UBEPAVTClass@@XZ
	??0TDatime@@QAE@I_N@Z
	??1TDatime@@UAE@XZ
	?IsA@TDatime@@UBEPAVTClass@@XZ
	?BoundsOk@TArray@@IBE_NPBDH@Z
	?At@TArrayI@@QBEHH@Z
	?GetEntriesFast@TObjArray@@QBEHXZ
	??0_Ignore@std@@QAE@XZ
	??1TGDimension@@UAE@XZ
	?IsA@TGDimension@@UBEPAVTClass@@XZ
	??0TRefCnt@@QAE@H@Z
	??1TRefCnt@@UAE@XZ
	?SetRefCount@TRefCnt@@QAEXI@Z
	??0TGLayoutHints@@QAE@KHHHH@Z
	?SetLayoutHints@TGLayoutHints@@UAEXK@Z
	?SetPadTop@TGLayoutHints@@UAEXH@Z
	?SetPadBottom@TGLayoutHints@@UAEXH@Z
	?SetPadLeft@TGLayoutHints@@UAEXH@Z
	?SetPadRight@TGLayoutHints@@UAEXH@Z
	?ls@TGLayoutHints@@UBEXPBD@Z
	?IsA@TGLayoutHints@@UBEPAVTClass@@XZ
	?SetUserData@TEveElement@@QAEXPAX@Z
	?GetBrowser@TEveManager@@QBEPAVTEveBrowser@@XZ
	?Redraw3D@TEveManager@@QAEX_N0@Z
	?Sqrt@TMath@@YANN@Z
	?EntryId@TGLBEntry@@QBEHXZ
	??0TSortedList@@QAE@_N@Z
	?IsSorted@TSortedList@@UBE_NXZ
	?AddFirst@TSortedList@@UAEXPAVTObject@@@Z
	?AddFirst@TSortedList@@UAEXPAVTObject@@PBD@Z
	?AddLast@TSortedList@@UAEXPAVTObject@@@Z
	?AddLast@TSortedList@@UAEXPAVTObject@@PBD@Z
	?AddAt@TSortedList@@UAEXPAVTObject@@H@Z
	?AddAfter@TSortedList@@UAEXPBVTObject@@PAV2@@Z
	?AddAfter@TSortedList@@UAEXPAVTObjLink@@PAVTObject@@@Z
	?AddBefore@TSortedList@@UAEXPBVTObject@@PAV2@@Z
	?AddBefore@TSortedList@@UAEXPAVTObjLink@@PAVTObject@@@Z
	?Sort@TSortedList@@UAEX_N@Z
	?IsA@TSortedList@@UBEPAVTClass@@XZ
	??1TSortedList@@UAE@XZ
	?SetPlate@EdbSegP@@QAEXH@Z
	?ID@EdbSegP@@QBEHXZ
	?PID@EdbSegP@@QBEHXZ
	?W@EdbSegP@@QBEMXZ
	?Chi2@EdbSegP@@QBEMXZ
	?Plate@EdbSegP@@QBEHXZ
	?GetN@EdbSegmentsBox@@QBEHXZ
	?GetSegment@EdbSegmentsBox@@QBEPAVEdbSegP@@H@Z
	?SetCounters@EdbTrackP@@QAEXXZ
	?SetN0@EdbTrackP@@QAEXXZ
	?SetNpl@EdbTrackP@@QAEXXZ
	?Npl@EdbTrackP@@QBEHXZ
	?N@EdbTrackP@@QBEHXZ
	?GetSegmentFirst@EdbTrackP@@QBEPAVEdbSegP@@XZ
	?GetSegment@EdbTrackP@@QBEPAVEdbSegP@@H@Z
	?AddSegment@EdbTrackP@@QAEXPAVEdbSegP@@@Z
	?PID@EdbPattern@@QBEHXZ
	?Npatterns@EdbPatternsVolume@@QBEHXZ
	?Clear@EdbEDAAreaSet@@QAEXXZ
	?Print@EdbEDATrackSet@@QAEXXZ
	?GetTracksBase@EdbEDATrackSet@@QAEPAVTObjArray@@XZ
	?AddTrack@EdbEDATrackSet@@QAEXPAVEdbTrackP@@@Z
	?GetPVRec@EdbEDATrackSet@@QAEPAVEdbPVRec@@XZ
	?ClearTracks@EdbEDATrackSet@@QAEXXZ
	?ClearTracksBase@EdbEDATrackSet@@QAEXXZ
	?Clear@EdbEDATrackSet@@QAEXXZ
	?AddSegments@EdbEDATrackSet@@QAEXPAVTObjArray@@@Z
	?N@EdbEDATrackSet@@QAEHXZ
	?NBase@EdbEDATrackSet@@QAEHXZ
	?IsMember@EdbEDATrackSet@@QAE_NPAVEdbTrackP@@@Z
	?SetExtendMode@EdbEDATrackSet@@QAEXH@Z
	?SetUseAliSub@EdbShowerRec@@QAEX_N@Z
	?SetEdbPVRec@EdbShowerRec@@QAEXPAVEdbPVRec@@@Z
	?SetInBTArray@EdbShowerRec@@QAEXPAVTObjArray@@@Z
	?SetQualityCutValues@EdbShowerRec@@QAEXNN@Z
	?GetEdbPVRec@EdbShowerRec@@QBEPAVEdbPVRec@@XZ
	?GetAliLoaded@EdbShowerRec@@QBE_NXZ
	?GetRecoShowerArray@EdbShowerRec@@QBEPAVTObjArray@@XZ
	?GetInBTArrayN@EdbShowerRec@@QBEHXZ
	?GetRecoShowerArrayN@EdbShowerRec@@QBEHXZ
	?ResetInBTArray@EdbShowerRec@@QAEXXZ
	?ResetRecoShowerArray@EdbShowerRec@@QAEXXZ
	??$?6U?$char_traits@D@std@@@std@@YAAAV?$basic_ostream@DU?$char_traits@D@std@@@0@AAV10@PBD@Z
	??$endl@DU?$char_traits@D@std@@@std@@YAAAV?$basic_ostream@DU?$char_traits@D@std@@@0@AAV10@@Z
	?GetEdbPVRec@EdbPVRQuality@@QAEPAVEdbPVRec@@H@Z
	??0EdbEDAShowerTab@@QAE@XZ
	?MakeGUI@EdbEDAShowerTab@@QAEXXZ
	?MakeParameterWindowQualitySettings@EdbEDAShowerTab@@QAEXXZ
	?LoadShowerRecEdbPVRec@EdbEDAShowerTab@@QAEXXZ
	?CheckPVRec@EdbEDAShowerTab@@QAEXXZ
	?SetPVRecFromFile@EdbEDAShowerTab@@QAEXXZ
	?CheckBTDensity@EdbEDAShowerTab@@QAEXPAVEdbPVRec@@PAVTObjArray@@@Z
	?CheckBTDensityCanv@EdbEDAShowerTab@@QAEXPAVEdbPVRec@@PAVTObjArray@@@Z
	?CheckBTDensityUsingEdbPVRQuality@EdbEDAShowerTab@@QAEXXZ
	?CheckQualitycut@EdbEDAShowerTab@@QAEXXZ
	?CheckCosmicReco@EdbEDAShowerTab@@QAEXXZ
	?CheckAndSetPVRGeneric@EdbEDAShowerTab@@QAEXXZ
	?SetInBTFromSelected@EdbEDAShowerTab@@QAEXXZ
	?CheckInBT@EdbEDAShowerTab@@QAEXXZ
	?Reco@EdbEDAShowerTab@@QAEXXZ
	?Reset@EdbEDAShowerTab@@QAEXXZ
	?FindPairings@EdbEDAShowerTab@@QAEXXZ
	?FindPairingsNewAlgo@EdbEDAShowerTab@@QAEXXZ
	?CheckPairDuplications@EdbEDAShowerTab@@QAE_NHHHHHPAVTArrayI@@000@Z
	?PrintShowerRecInBT@EdbEDAShowerTab@@QAEXXZ
	?ChangeShowerRecParameters@EdbEDAShowerTab@@QAEXXZ
	?ResetShowerRecParameters@EdbEDAShowerTab@@QAEXXZ
	?SetParaSetHighNBT@EdbEDAShowerTab@@QAEXXZ
	?SetParaSetHighPur@EdbEDAShowerTab@@QAEXXZ
	?ReadComboBoxParameter@EdbEDAShowerTab@@QAEXXZ
	?SetNumberEntryShowerRecParameter@EdbEDAShowerTab@@QAEXN@Z
	?ReadComboBoxParameterQualitySetting@EdbEDAShowerTab@@QAEXXZ
	?DrawShower@EdbEDAShowerTab@@QAEXH_N@Z
	?DrawShower@EdbEDAShowerTab@@QAEXXZ
	?DrawShowerAll@EdbEDAShowerTab@@QAEXXZ
	?DrawSingleShower@EdbEDAShowerTab@@QAEXPAVEdbTrackP@@@Z
	?DrawShowerPrevious@EdbEDAShowerTab@@QAEXXZ
	?DrawShowerNext@EdbEDAShowerTab@@QAEXXZ
	?DrawShowers@EdbEDAShowerTab@@QAEXXZ
	?Help@EdbEDAShowerTab@@QAEXXZ
	?GO@EdbEDAShowerTab@@QAEXXZ
	?PrintShower@EdbEDAShowerTab@@QAEXXZ
	?PrintActualShower@EdbEDAShowerTab@@QAEXXZ
	?PlotShower@EdbEDAShowerTab@@QAEXXZ
	?PrintQualityCutSetting@EdbEDAShowerTab@@QAEXXZ
	?CreateCanvas@EdbEDAShowerTab@@QAEPAVTCanvas@@PAD@Z
	?CalcdR_NoPropagation@EdbEDAShowerTab@@QAENPAVEdbSegP@@0@Z
	?CalcdR_WithPropagation@EdbEDAShowerTab@@QAENPAVEdbSegP@@0@Z
	?CalcdTheta@EdbEDAShowerTab@@QAENPAVEdbSegP@@0@Z
	?IsA@EdbEDAShowerTab@@UBEPAVTClass@@XZ
	?GetPVR@EdbEDABrickData@@QAEPAVEdbPVRec@@XZ
	?GetDataType@EdbEDABrickData@@QAEHXZ
	?GetSelected@EdbEDASelection@@QAEPAVTObjArray@@XZ
	?NSelectedTracks@EdbEDASelection@@QAEHXZ
	?GetSelectedTrack@EdbEDASelection@@QAEPAVEdbTrackP@@H@Z
	?NTrackSets@EdbEDA@@QAEHXZ
	?GetTrackSet@EdbEDA@@QAEPAVEdbEDATrackSet@@H@Z
	?GetTrackSet@EdbEDA@@QAEPAVEdbEDATrackSet@@PAD@Z
	?GetTrackSet@EdbEDA@@QAEPAVEdbEDATrackSet@@PAVEdbTrackP@@@Z
	?Redraw@EdbEDA@@QAEXXZ
	?GetScaleZ@EdbEDA@@QAENXZ
	??0_Sentry_base@?$basic_ostream@DU?$char_traits@D@std@@@std@@QAE@AAV12@@Z
	??1_Sentry_base@?$basic_ostream@DU?$char_traits@D@std@@@std@@QAE@XZ
	??0sentry@?$basic_ostream@DU?$char_traits@D@std@@@std@@QAE@AAV12@@Z
	??1sentry@?$basic_ostream@DU?$char_traits@D@std@@@std@@QAE@XZ
	??Bsentry@?$basic_ostream@DU?$char_traits@D@std@@@std@@QBE_NXZ
	??$construct@PADAAPAD@?$_Wrap_alloc@V?$allocator@D@std@@@std@@QAEXPAPADAAPAD@Z
	??$destroy@PAD@?$_Wrap_alloc@V?$allocator@D@std@@@std@@QAEXPAPAD@Z
	??$addressof@D@std@@YAPADAAD@Z
	??$_Allocate@D@std@@YAPADIPAD@Z
	??$forward@AAPAD@std@@YAAAPADAAPAD@Z
	??$construct@PADAAPAD@?$allocator_traits@V?$allocator@D@std@@@std@@SAXAAV?$allocator@D@1@PAPADAAPAD@Z
	??$destroy@PAD@?$allocator_traits@V?$allocator@D@std@@@std@@SAXAAV?$allocator@D@1@PAPAD@Z
	??$construct@PADAAPAD@?$allocator@D@std@@QAEXPAPADAAPAD@Z
	??$destroy@PAD@?$allocator@D@std@@QAEXPAPAD@Z
	?_Generic_object@?$_Error_objects@H@std@@2V_Generic_error_category@2@A 	 DATA
	?_Iostream_object@?$_Error_objects@H@std@@2V_Iostream_error_category@2@A 	 DATA
	?_System_object@?$_Error_objects@H@std@@2V_System_error_category@2@A 	 DATA
	?id@?$num_put@DV?$back_insert_iterator@V?$basic_string@DU?$char_traits@D@std@@V?$allocator@D@2@@std@@@std@@@std@@2V0locale@2@A 	 DATA
	?id@?$num_put@_WV?$back_insert_iterator@V?$basic_string@_WU?$char_traits@_W@std@@V?$allocator@_W@2@@std@@@std@@@std@@2V0locale@2@A 	 DATA
	??_R0?AVTObject@@@8 	 DATA
	??_R0?AVerror_category@std@@@8 	 DATA
	??_R0?AV_Generic_error_category@std@@@8 	 DATA
	??_R0?AV_Iostream_error_category@std@@@8 	 DATA
	??_R0?AV_System_error_category@std@@@8 	 DATA
	??_R0?AVTCollection@@@8 	 DATA
	??_R0?AVTList@@@8 	 DATA
	??_R0?AVTSeqCollection@@@8 	 DATA
	??_R0?AVTDatime@@@8 	 DATA
	??_R0?AVTRefCnt@@@8 	 DATA
	??_R0?AVTGDimension@@@8 	 DATA
	??_R0?AVTGLayoutHints@@@8 	 DATA
	??_R0?AVTSortedList@@@8 	 DATA
	??_R0?AVEdbEDAShowerTab@@@8 	 DATA
	?fgIsA@EdbEDACamera@@0PAVTClass@@A 	 DATA
	?G__EDADictLN_TClass@@3UG__linked_taginfo@@A 	 DATA
	?G__EDADictLN_TBuffer@@3UG__linked_taginfo@@A 	 DATA
	?G__EDADictLN_TMemberInspector@@3UG__linked_taginfo@@A 	 DATA
	?G__EDADictLN_TObject@@3UG__linked_taginfo@@A 	 DATA
	?G__EDADictLN_TNamed@@3UG__linked_taginfo@@A 	 DATA
	?G__EDADictLN_TString@@3UG__linked_taginfo@@A 	 DATA
	?G__EDADictLN_iteratorlErandom_access_iterator_tagcOcharcOlongcOcharmUcOcharaNgR@@3UG__linked_taginfo@@A 	 DATA
	?G__EDADictLN_vectorlEunsignedsPcharcOallocatorlEunsignedsPchargRsPgR@@3UG__linked_taginfo@@A 	 DATA
	?G__EDADictLN_vectorlEunsignedsPintcOallocatorlEunsignedsPintgRsPgR@@3UG__linked_taginfo@@A 	 DATA
	?G__EDADictLN_vectorlEdoublecOallocatorlEdoublegRsPgR@@3UG__linked_taginfo@@A 	 DATA
	?G__EDADictLN_vectorlEROOTcLcLTSchemaHelpercOallocatorlEROOTcLcLTSchemaHelpergRsPgR@@3UG__linked_taginfo@@A 	 DATA
	?G__EDADictLN_reverse_iteratorlEvectorlEROOTcLcLTSchemaHelpercOallocatorlEROOTcLcLTSchemaHelpergRsPgRcLcLiteratorgR@@3UG__linked_taginfo@@A 	 DATA
	?G__EDADictLN_iteratorlErandom_access_iterator_tagcOROOTcLcLTSchemaHelpercOlongcOROOTcLcLTSchemaHelpermUcOROOTcLcLTSchemaHelperaNgR@@3UG__linked_taginfo@@A 	 DATA
	?G__EDADictLN_reverse_iteratorlEvectorlEROOTcLcLTSchemaHelpercOallocatorlEROOTcLcLTSchemaHelpergRsPgRcLcLconst_iteratorgR@@3UG__linked_taginfo@@A 	 DATA
	?G__EDADictLN_TObjArray@@3UG__linked_taginfo@@A 	 DATA
	?G__EDADictLN_TTimer@@3UG__linked_taginfo@@A 	 DATA
	?G__EDADictLN_vectorlETVirtualArraymUcOallocatorlETVirtualArraymUgRsPgR@@3UG__linked_taginfo@@A 	 DATA
	?G__EDADictLN_reverse_iteratorlEvectorlETVirtualArraymUcOallocatorlETVirtualArraymUgRsPgRcLcLiteratorgR@@3UG__linked_taginfo@@A 	 DATA
	?fgIsA@EdbEDAArea@@0PAVTClass@@A 	 DATA
	?fgIsA@EdbEDAVertexTab@@0PAVTClass@@A 	 DATA
	?G__EDADictLN_iteratorlErandom_access_iterator_tagcOTVirtualArraymUcOlongcOTVirtualArraymUmUcOTVirtualArraymUaNgR@@3UG__linked_taginfo@@A 	 DATA
	?G__EDADictLN_reverse_iteratorlEvectorlETVirtualArraymUcOallocatorlETVirtualArraymUgRsPgRcLcLconst_iteratorgR@@3UG__linked_taginfo@@A 	 DATA
	?G__EDADictLN_iteratorlEbidirectional_iterator_tagcOTObjectmUcOlongcOconstsPTObjectmUmUcOconstsPTObjectmUaNgR@@3UG__linked_taginfo@@A 	 DATA
	?G__EDADictLN_TCanvas@@3UG__linked_taginfo@@A 	 DATA
	?G__EDADictLN_vectorlETStringcOallocatorlETStringgRsPgR@@3UG__linked_taginfo@@A 	 DATA
	?fgIsA@EdbEDADecaySearchTab@@0PAVTClass@@A 	 DATA
	?G__EDADictLN_reverse_iteratorlEvectorlETStringcOallocatorlETStringgRsPgRcLcLiteratorgR@@3UG__linked_taginfo@@A 	 DATA
	?G__EDADictLN_iteratorlErandom_access_iterator_tagcOTStringcOlongcOTStringmUcOTStringaNgR@@3UG__linked_taginfo@@A 	 DATA
	?G__EDADictLN_reverse_iteratorlEvectorlETStringcOallocatorlETStringgRsPgRcLcLconst_iteratorgR@@3UG__linked_taginfo@@A 	 DATA
	?G__EDADictLN_TQObject@@3UG__linked_taginfo@@A 	 DATA
	?G__EDADictLN_TArrayI@@3UG__linked_taginfo@@A 	 DATA
	?G__EDADictLN_maplElongcOintcOlesslElonggRcOallocatorlEpairlEconstsPlongcOintgRsPgRsPgR@@3UG__linked_taginfo@@A 	 DATA
	?G__EDADictLN_pairlEdoublecOdoublegR@@3UG__linked_taginfo@@A 	 DATA
	?G__EDADictLN_maplEstringcOTObjArraymUcOlesslEstringgRcOallocatorlEpairlEconstsPstringcOTObjArraymUgRsPgRsPgR@@3UG__linked_taginfo@@A 	 DATA
	?G__EDADictLN_TCut@@3UG__linked_taginfo@@A 	 DATA
	?G__EDADictLN_pairlEunsignedsPintcOintgR@@3UG__linked_taginfo@@A 	 DATA
	?G__EDADictLN_vectorlEpairlEunsignedsPintcOintgRcOallocatorlEpairlEunsignedsPintcOintgRsPgRsPgR@@3UG__linked_taginfo@@A 	 DATA
	?G__EDADictLN_reverse_iteratorlEvectorlEpairlEunsignedsPintcOintgRcOallocatorlEpairlEunsignedsPintcOintgRsPgRsPgRcLcLiteratorgR@@3UG__linked_taginfo@@A 	 DATA
	?G__EDADictLN_iteratorlErandom_access_iterator_tagcOpairlEunsignedsPintcOintgRcOlongcOpairlEunsignedsPintcOintgRmUcOpairlEunsignedsPintcOintgRaNgR@@3UG__linked_taginfo@@A 	 DATA
	?G__EDADictLN_reverse_iteratorlEvectorlEpairlEunsignedsPintcOintgRcOallocatorlEpairlEunsignedsPintcOintgRsPgRsPgRcLcLconst_iteratorgR@@3UG__linked_taginfo@@A 	 DATA
	?G__EDADictLN_TH1F@@3UG__linked_taginfo@@A 	 DATA
	?G__EDADictLN_TVectorTlEfloatgR@@3UG__linked_taginfo@@A 	 DATA
	?G__EDADictLN_TVectorTlEdoublegR@@3UG__linked_taginfo@@A 	 DATA
	?G__EDADictLN_TMatrixTBaselEfloatgR@@3UG__linked_taginfo@@A 	 DATA
	?G__EDADictLN_TMatrixTBaselEdoublegR@@3UG__linked_taginfo@@A 	 DATA
	?G__EDADictLN_vectorlETGLPlanecOallocatorlETGLPlanegRsPgR@@3UG__linked_taginfo@@A 	 DATA
	?G__EDADictLN_reverse_iteratorlEvectorlETGLPlanecOallocatorlETGLPlanegRsPgRcLcLiteratorgR@@3UG__linked_taginfo@@A 	 DATA
	?G__EDADictLN_iteratorlErandom_access_iterator_tagcOTGLPlanecOlongcOTGLPlanemUcOTGLPlaneaNgR@@3UG__linked_taginfo@@A 	 DATA
	?G__EDADictLN_reverse_iteratorlEvectorlETGLPlanecOallocatorlETGLPlanegRsPgRcLcLconst_iteratorgR@@3UG__linked_taginfo@@A 	 DATA
	?G__EDADictLN_pairlEboolcOTGLLine3gR@@3UG__linked_taginfo@@A 	 DATA
	?G__EDADictLN_pairlEboolcOTGLVertex3gR@@3UG__linked_taginfo@@A 	 DATA
	?G__EDADictLN_pairlEintcOintgR@@3UG__linked_taginfo@@A 	 DATA
	?G__EDADictLN_TGLRnrCtx@@3UG__linked_taginfo@@A 	 DATA
	?G__EDADictLN_TGLOverlayElement@@3UG__linked_taginfo@@A 	 DATA
	?G__EDADictLN_listlETGLOverlayElementmUcOallocatorlETGLOverlayElementmUgRsPgR@@3UG__linked_taginfo@@A 	 DATA
	?G__EDADictLN_listlETGLSceneInfomUcOallocatorlETGLSceneInfomUgRsPgR@@3UG__linked_taginfo@@A 	 DATA
	?G__EDADictLN_vectorlETGLSceneInfomUcOallocatorlETGLSceneInfomUgRsPgR@@3UG__linked_taginfo@@A 	 DATA
	?G__EDADictLN_reverse_iteratorlEvectorlETGLSceneInfomUcOallocatorlETGLSceneInfomUgRsPgRcLcLiteratorgR@@3UG__linked_taginfo@@A 	 DATA
	?G__EDADictLN_iteratorlErandom_access_iterator_tagcOTGLSceneInfomUcOlongcOTGLSceneInfomUmUcOTGLSceneInfomUaNgR@@3UG__linked_taginfo@@A 	 DATA
	?G__EDADictLN_reverse_iteratorlEvectorlETGLSceneInfomUcOallocatorlETGLSceneInfomUgRsPgRcLcLconst_iteratorgR@@3UG__linked_taginfo@@A 	 DATA
	?G__EDADictLN_vectorlETGLOverlayElementmUcOallocatorlETGLOverlayElementmUgRsPgR@@3UG__linked_taginfo@@A 	 DATA
	?G__EDADictLN_reverse_iteratorlEvectorlETGLOverlayElementmUcOallocatorlETGLOverlayElementmUgRsPgRcLcLiteratorgR@@3UG__linked_taginfo@@A 	 DATA
	?G__EDADictLN_iteratorlErandom_access_iterator_tagcOTGLOverlayElementmUcOlongcOTGLOverlayElementmUmUcOTGLOverlayElementmUaNgR@@3UG__linked_taginfo@@A 	 DATA
	?G__EDADictLN_reverse_iteratorlEvectorlETGLOverlayElementmUcOallocatorlETGLOverlayElementmUgRsPgRcLcLconst_iteratorgR@@3UG__linked_taginfo@@A 	 DATA
	?G__EDADictLN_listlETGLColorSetmUcOallocatorlETGLColorSetmUgRsPgR@@3UG__linked_taginfo@@A 	 DATA
	?G__EDADictLN_TGWindow@@3UG__linked_taginfo@@A 	 DATA
	?G__EDADictLN_TGLViewer@@3UG__linked_taginfo@@A 	 DATA
	?G__EDADictLN_maplEintcOTGeoElementRNmUcOlesslEintgRcOallocatorlEpairlEconstsPintcOTGeoElementRNmUgRsPgRsPgR@@3UG__linked_taginfo@@A 	 DATA
	?G__EDADictLN_vectorlETGeoVolumeAssemblycLcLThreadData_tmUcOallocatorlETGeoVolumeAssemblycLcLThreadData_tmUgRsPgR@@3UG__linked_taginfo@@A 	 DATA
	?G__EDADictLN_reverse_iteratorlEvectorlETGeoVolumeAssemblycLcLThreadData_tmUcOallocatorlETGeoVolumeAssemblycLcLThreadData_tmUgRsPgRcLcLiteratorgR@@3UG__linked_taginfo@@A 	 DATA
	?G__EDADictLN_iteratorlErandom_access_iterator_tagcOTGeoVolumeAssemblycLcLThreadData_tmUcOlongcOTGeoVolumeAssemblycLcLThreadData_tmUmUcOTGeoVolumeAssemblycLcLThreadData_tmUaNgR@@3UG__linked_taginfo@@A 	 DATA
	?G__EDADictLN_reverse_iteratorlEvectorlETGeoVolumeAssemblycLcLThreadData_tmUcOallocatorlETGeoVolumeAssemblycLcLThreadData_tmUgRsPgRcLcLconst_iteratorgR@@3UG__linked_taginfo@@A 	 DATA
	?G__EDADictLN_maplElongcOTGeoNavigatorArraymUcOlesslElonggRcOallocatorlEpairlEconstsPlongcOTGeoNavigatorArraymUgRsPgRsPgR@@3UG__linked_taginfo@@A 	 DATA
	?G__EDADictLN_TGObject@@3UG__linked_taginfo@@A 	 DATA
	?G__EDADictLN_TGFrame@@3UG__linked_taginfo@@A 	 DATA
	?G__EDADictLN_TGCompositeFrame@@3UG__linked_taginfo@@A 	 DATA
	?G__EDADictLN_TGTextButton@@3UG__linked_taginfo@@A 	 DATA
	?G__EDADictLN_TGVerticalFrame@@3UG__linked_taginfo@@A 	 DATA
	?fgIsA@EdbEDAIO@@0PAVTClass@@A 	 DATA
	?G__EDADictLN_TGMainFrame@@3UG__linked_taginfo@@A 	 DATA
	?G__EDADictLN_TGTransientFrame@@3UG__linked_taginfo@@A 	 DATA
	?G__EDADictLN_TGGroupFrame@@3UG__linked_taginfo@@A 	 DATA
	?G__EDADictLN_TGTab@@3UG__linked_taginfo@@A 	 DATA
	?G__EDADictLN_TGTabElement@@3UG__linked_taginfo@@A 	 DATA
	?G__EDADictLN_setlEintcOlesslEintgRcOallocatorlEintgRsPgR@@3UG__linked_taginfo@@A 	 DATA
	?G__EDADictLN_TEveElement@@3UG__linked_taginfo@@A 	 DATA
	?G__EDADictLN_maplETEveElementmUcOintcOlesslETEveElementmUgRcOallocatorlEpairlETEveElementmUsPconstcOintgRsPgRsPgR@@3UG__linked_taginfo@@A 	 DATA
	?G__EDADictLN_listlETEveProjectedmUcOallocatorlETEveProjectedmUgRsPgR@@3UG__linked_taginfo@@A 	 DATA
	?G__EDADictLN_setlETEveElementmUcOlesslETEveElementmUgRcOallocatorlETEveElementmUgRsPgR@@3UG__linked_taginfo@@A 	 DATA
	?G__EDADictLN_TEveCompound@@3UG__linked_taginfo@@A 	 DATA
	?G__EDADictLN_setlETEveElementcLcLTEveListTreeInfocOlesslETEveElementcLcLTEveListTreeInfogRcOallocatorlETEveElementcLcLTEveListTreeInfogRsPgR@@3UG__linked_taginfo@@A 	 DATA
	?G__EDADictLN_listlETEveElementmUcOallocatorlETEveElementmUgRsPgR@@3UG__linked_taginfo@@A 	 DATA
	?G__EDADictLN_TEveSelection@@3UG__linked_taginfo@@A 	 DATA
	?G__EDADictLN_TEveBrowser@@3UG__linked_taginfo@@A 	 DATA
	?G__EDADictLN_TEveEventManager@@3UG__linked_taginfo@@A 	 DATA
	?G__EDADictLN_TEvePointSet@@3UG__linked_taginfo@@A 	 DATA
	?G__EDADictLN_TVector3@@3UG__linked_taginfo@@A 	 DATA
	?fgIsA@EdbEDAFeedbackEntryT@@0PAVTClass@@A 	 DATA
	?G__EDADictLN_TEveVectorTlEfloatgR@@3UG__linked_taginfo@@A 	 DATA
	?G__EDADictLN_TEveVectorTlEdoublegR@@3UG__linked_taginfo@@A 	 DATA
	?G__EDADictLN_TEveVector4TlEfloatgR@@3UG__linked_taginfo@@A 	 DATA
	?G__EDADictLN_TEveVector4TlEdoublegR@@3UG__linked_taginfo@@A 	 DATA
	?G__EDADictLN_TEveVector2TlEfloatgR@@3UG__linked_taginfo@@A 	 DATA
	?G__EDADictLN_TEveVector2TlEdoublegR@@3UG__linked_taginfo@@A 	 DATA
	?G__EDADictLN_maplETEveElementmUcOsetlETEveElementmUcOlesslETEveElementmUgRcOallocatorlETEveElementmUgRsPgRcOlesslETEveElementmUgRcOallocatorlEpairlETEveElementmUsPconstcOsetlETEveElementmUcOlesslETEveElementmUgRcOallocatorlETEveElementmUgRsPgRsPgRsPgRsPgR@@3UG__linked_taginfo@@A 	 DATA
	?G__EDADictLN_vectorlETArrayCmUcOallocatorlETArrayCmUgRsPgR@@3UG__linked_taginfo@@A 	 DATA
	?G__EDADictLN_reverse_iteratorlEvectorlETArrayCmUcOallocatorlETArrayCmUgRsPgRcLcLiteratorgR@@3UG__linked_taginfo@@A 	 DATA
	?G__EDADictLN_iteratorlErandom_access_iterator_tagcOTArrayCmUcOlongcOTArrayCmUmUcOTArrayCmUaNgR@@3UG__linked_taginfo@@A 	 DATA
	?G__EDADictLN_reverse_iteratorlEvectorlETArrayCmUcOallocatorlETArrayCmUgRsPgRcLcLconst_iteratorgR@@3UG__linked_taginfo@@A 	 DATA
	?G__EDADictLN_TElementActionTlEfloatgR@@3UG__linked_taginfo@@A 	 DATA
	?G__EDADictLN_TElementPosActionTlEfloatgR@@3UG__linked_taginfo@@A 	 DATA
	?G__EDADictLN_TElementActionTlEdoublegR@@3UG__linked_taginfo@@A 	 DATA
	?G__EDADictLN_TElementPosActionTlEdoublegR@@3UG__linked_taginfo@@A 	 DATA
	?G__EDADictLN_TMatrixTlEfloatgR@@3UG__linked_taginfo@@A 	 DATA
	?G__EDADictLN_TMatrixTRow_constlEfloatgR@@3UG__linked_taginfo@@A 	 DATA
	?G__EDADictLN_TMatrixTRowlEfloatgR@@3UG__linked_taginfo@@A 	 DATA
	?G__EDADictLN_TMatrixTDiag_constlEfloatgR@@3UG__linked_taginfo@@A 	 DATA
	?G__EDADictLN_TMatrixTColumn_constlEfloatgR@@3UG__linked_taginfo@@A 	 DATA
	?G__EDADictLN_TMatrixTFlat_constlEfloatgR@@3UG__linked_taginfo@@A 	 DATA
	?G__EDADictLN_TMatrixTSub_constlEfloatgR@@3UG__linked_taginfo@@A 	 DATA
	?G__EDADictLN_TMatrixTSparseRow_constlEfloatgR@@3UG__linked_taginfo@@A 	 DATA
	?G__EDADictLN_TMatrixTSparseDiag_constlEfloatgR@@3UG__linked_taginfo@@A 	 DATA
	?G__EDADictLN_TMatrixTColumnlEfloatgR@@3UG__linked_taginfo@@A 	 DATA
	?G__EDADictLN_TMatrixTDiaglEfloatgR@@3UG__linked_taginfo@@A 	 DATA
	?G__EDADictLN_TMatrixTFlatlEfloatgR@@3UG__linked_taginfo@@A 	 DATA
	?G__EDADictLN_TMatrixTSublEfloatgR@@3UG__linked_taginfo@@A 	 DATA
	?G__EDADictLN_TMatrixTSparseRowlEfloatgR@@3UG__linked_taginfo@@A 	 DATA
	?G__EDADictLN_TMatrixTSparseDiaglEfloatgR@@3UG__linked_taginfo@@A 	 DATA
	?G__EDADictLN_vectorlEintcOallocatorlEintgRsPgR@@3UG__linked_taginfo@@A 	 DATA
	?G__EDADictLN_reverse_iteratorlEvectorlEintcOallocatorlEintgRsPgRcLcLiteratorgR@@3UG__linked_taginfo@@A 	 DATA
	?G__EDADictLN_iteratorlErandom_access_iterator_tagcOintcOlongcOintmUcOintaNgR@@3UG__linked_taginfo@@A 	 DATA
	?G__EDADictLN_reverse_iteratorlEvectorlEintcOallocatorlEintgRsPgRcLcLconst_iteratorgR@@3UG__linked_taginfo@@A 	 DATA
	?G__EDADictLN_maplETGLFontcOintcOlesslETGLFontgRcOallocatorlEpairlEconstsPTGLFontcOintgRsPgRsPgR@@3UG__linked_taginfo@@A 	 DATA
	?G__EDADictLN_listlEconstsPTGLFontmUcOallocatorlEconstsPTGLFontmUgRsPgR@@3UG__linked_taginfo@@A 	 DATA
	?G__EDADictLN_TGTextEntry@@3UG__linked_taginfo@@A 	 DATA
	?G__EDADictLN_TGCheckButton@@3UG__linked_taginfo@@A 	 DATA
	?G__EDADictLN_TGRadioButton@@3UG__linked_taginfo@@A 	 DATA
	?G__EDADictLN_TGNumberFormat@@3UG__linked_taginfo@@A 	 DATA
	?G__EDADictLN_TGNumberFormatcLcLEStyle@@3UG__linked_taginfo@@A 	 DATA
	?G__EDADictLN_TGNumberEntryField@@3UG__linked_taginfo@@A 	 DATA
	?G__EDADictLN_TGNumberEntry@@3UG__linked_taginfo@@A 	 DATA
	?G__EDADictLN_TGComboBox@@3UG__linked_taginfo@@A 	 DATA
	?G__EDADictLN_TGHSlider@@3UG__linked_taginfo@@A 	 DATA
	?G__EDADictLN_TGLabel@@3UG__linked_taginfo@@A 	 DATA
	?G__EDADictLN_TGListBox@@3UG__linked_taginfo@@A 	 DATA
	?G__EDADictLN_TGTextEditor@@3UG__linked_taginfo@@A 	 DATA
	?G__EDADictLN_TGColorSelect@@3UG__linked_taginfo@@A 	 DATA
	?G__EDADictLN_TGLineWidthComboBox@@3UG__linked_taginfo@@A 	 DATA
	?G__EDADictLN_TMatrixTlEdoublegR@@3UG__linked_taginfo@@A 	 DATA
	?G__EDADictLN_TMatrixTRow_constlEdoublegR@@3UG__linked_taginfo@@A 	 DATA
	?G__EDADictLN_TMatrixTRowlEdoublegR@@3UG__linked_taginfo@@A 	 DATA
	?G__EDADictLN_TMatrixTDiag_constlEdoublegR@@3UG__linked_taginfo@@A 	 DATA
	?G__EDADictLN_TMatrixTColumn_constlEdoublegR@@3UG__linked_taginfo@@A 	 DATA
	?G__EDADictLN_TMatrixTFlat_constlEdoublegR@@3UG__linked_taginfo@@A 	 DATA
	?G__EDADictLN_TMatrixTSub_constlEdoublegR@@3UG__linked_taginfo@@A 	 DATA
	?G__EDADictLN_TMatrixTSparseRow_constlEdoublegR@@3UG__linked_taginfo@@A 	 DATA
	?G__EDADictLN_TMatrixTSparseDiag_constlEdoublegR@@3UG__linked_taginfo@@A 	 DATA
	?G__EDADictLN_TMatrixTColumnlEdoublegR@@3UG__linked_taginfo@@A 	 DATA
	?fgIsA@EdbEDAFeedbackEntryV@@0PAVTClass@@A 	 DATA
	?G__EDADictLN_TMatrixTDiaglEdoublegR@@3UG__linked_taginfo@@A 	 DATA
	?G__EDADictLN_TMatrixTFlatlEdoublegR@@3UG__linked_taginfo@@A 	 DATA
	?G__EDADictLN_TMatrixTSublEdoublegR@@3UG__linked_taginfo@@A 	 DATA
	?G__EDADictLN_TMatrixTSparseRowlEdoublegR@@3UG__linked_taginfo@@A 	 DATA
	?G__EDADictLN_TMatrixTSparseDiaglEdoublegR@@3UG__linked_taginfo@@A 	 DATA
	?G__EDADictLN_EdbAffine2D@@3UG__linked_taginfo@@A 	 DATA
	?G__EDADictLN_EdbPoint@@3UG__linked_taginfo@@A 	 DATA
	?G__EDADictLN_EdbPoint2D@@3UG__linked_taginfo@@A 	 DATA
	?G__EDADictLN_EdbAngle2D@@3UG__linked_taginfo@@A 	 DATA
	?G__EDADictLN_EdbTrack2D@@3UG__linked_taginfo@@A 	 DATA
	?G__EDADictLN_EdbID@@3UG__linked_taginfo@@A 	 DATA
	?G__EDADictLN_EdbSegP@@3UG__linked_taginfo@@A 	 DATA
	?G__EDADictLN_EdbVertex@@3UG__linked_taginfo@@A 	 DATA
	?G__EDADictLN_EdbTrackP@@3UG__linked_taginfo@@A 	 DATA
	?G__EDADictLN_EdbPattern@@3UG__linked_taginfo@@A 	 DATA
	?fgIsA@EdbEDAAreaSet@@0PAVTClass@@A 	 DATA
	?G__EDADictLN_listlEVERTEXcLcLRelationmUcOallocatorlEVERTEXcLcLRelationmUgRsPgR@@3UG__linked_taginfo@@A 	 DATA
	?G__EDADictLN_listlEVERTEXcLcLMassCmUcOallocatorlEVERTEXcLcLMassCmUgRsPgR@@3UG__linked_taginfo@@A 	 DATA
	?G__EDADictLN_vectorlEVERTEXcLcLTrackmUcOallocatorlEVERTEXcLcLTrackmUgRsPgR@@3UG__linked_taginfo@@A 	 DATA
	?G__EDADictLN_reverse_iteratorlEvectorlEVERTEXcLcLTrackmUcOallocatorlEVERTEXcLcLTrackmUgRsPgRcLcLiteratorgR@@3UG__linked_taginfo@@A 	 DATA
	?G__EDADictLN_iteratorlErandom_access_iterator_tagcOVERTEXcLcLTrackmUcOlongcOVERTEXcLcLTrackmUmUcOVERTEXcLcLTrackmUaNgR@@3UG__linked_taginfo@@A 	 DATA
	?G__EDADictLN_reverse_iteratorlEvectorlEVERTEXcLcLTrackmUcOallocatorlEVERTEXcLcLTrackmUgRsPgRcLcLconst_iteratorgR@@3UG__linked_taginfo@@A 	 DATA
	?G__EDADictLN_EdbPVRec@@3UG__linked_taginfo@@A 	 DATA
	?G__EDADictLN_EdbVertexPar@@3UG__linked_taginfo@@A 	 DATA
	?G__EDADictLN_EdbVertexRec@@3UG__linked_taginfo@@A 	 DATA
	?G__EDADictLN_EdbScanCond@@3UG__linked_taginfo@@A 	 DATA
	?G__EDADictLN_EdbScanSet@@3UG__linked_taginfo@@A 	 DATA
	?G__EDADictLN_EdbDataSet@@3UG__linked_taginfo@@A 	 DATA
	?G__EDADictLN_EdbDataProc@@3UG__linked_taginfo@@A 	 DATA
	?fgIsA@EdbEDABrickData@@0PAVTClass@@A 	 DATA
	?G__EDADictLN_EdbMomentumEstimator@@3UG__linked_taginfo@@A 	 DATA
	?G__EDADictLN_EdbScanProc@@3UG__linked_taginfo@@A 	 DATA
	?G__EDADictLN_EdbEDAUtil@@3UG__linked_taginfo@@A 	 DATA
	?G__EDADictLN_EdbEDAUtilcLcLEDACOLOR@@3UG__linked_taginfo@@A 	 DATA
	?G__EDADictLN_EdbEDAUtilcLcLEDAEXTENDMODE@@3UG__linked_taginfo@@A 	 DATA
	?G__EDADictLN_EdbIDDialog@@3UG__linked_taginfo@@A 	 DATA
	?fgIsA@EdbEDATrackSetList@@0PAVTClass@@A 	 DATA
	?G__EDADictLN_EdbEDAArea@@3UG__linked_taginfo@@A 	 DATA
	?G__EDADictLN_EdbEDAAreaSet@@3UG__linked_taginfo@@A 	 DATA
	?G__EDADictLN_EdbEDAVertexSet@@3UG__linked_taginfo@@A 	 DATA
	?G__EDADictLN_EdbEDAExtentionSet@@3UG__linked_taginfo@@A 	 DATA
	?G__EDADictLN_EdbRunTracking@@3UG__linked_taginfo@@A 	 DATA
	?G__EDADictLN_EdbEDATrackComment@@3UG__linked_taginfo@@A 	 DATA
	?G__EDADictLN_EdbEDATrackSelection@@3UG__linked_taginfo@@A 	 DATA
	?G__EDADictLN_EdbEDATrackSet@@3UG__linked_taginfo@@A 	 DATA
	?G__EDADictLN_EdbEDATrackSetcLcLdA@@3UG__linked_taginfo@@A 	 DATA
	?G__EDADictLN_EdbEDATrackSetTab@@3UG__linked_taginfo@@A 	 DATA
	?G__EDADictLN_EdbEDAMainTab@@3UG__linked_taginfo@@A 	 DATA
	?G__EDADictLN_EdbEDAMainTabcLcLdA@@3UG__linked_taginfo@@A 	 DATA
	?G__EDADictLN_EdbEDAListTab@@3UG__linked_taginfo@@A 	 DATA
	?G__EDADictLN_EdbEDAVertexTab@@3UG__linked_taginfo@@A 	 DATA
	?G__EDADictLN_EdbEDAVertexTabcLcLdA@@3UG__linked_taginfo@@A 	 DATA
	?G__EDADictLN_EdbEDAMCTab@@3UG__linked_taginfo@@A 	 DATA
	?G__EDADictLN_EdbEDAPredTab@@3UG__linked_taginfo@@A 	 DATA
	?G__EDADictLN_EdbEDAOperationTab@@3UG__linked_taginfo@@A 	 DATA
	?G__EDADictLN_EdbEDAOperationTabcLcLdA@@3UG__linked_taginfo@@A 	 DATA
	?G__EDADictLN_EdbEDATrackSetList@@3UG__linked_taginfo@@A 	 DATA
	?G__EDADictLN_EdbEDAPlotTab@@3UG__linked_taginfo@@A 	 DATA
	?G__EDADictLN_EdbEDATrackP@@3UG__linked_taginfo@@A 	 DATA
	?G__EDADictLN_EdbEDADecayVertex@@3UG__linked_taginfo@@A 	 DATA
	?G__EDADictLN_EdbEDADecayVertexcLcLTopologyType@@3UG__linked_taginfo@@A 	 DATA
	?G__EDADictLN_EdbEDASmallKink@@3UG__linked_taginfo@@A 	 DATA
	?G__EDADictLN_EdbEDADecaySearch@@3UG__linked_taginfo@@A 	 DATA
	?G__EDADictLN_EdbEDADecaySearchcLcLdA@@3UG__linked_taginfo@@A 	 DATA
	?G__EDADictLN_EdbEDADecaySearchTab@@3UG__linked_taginfo@@A 	 DATA
	?G__EDADictLN_EdbEDAFeedbackEntryT@@3UG__linked_taginfo@@A 	 DATA
	?G__EDADictLN_EdbEDAFeedbackEntryV@@3UG__linked_taginfo@@A 	 DATA
	?G__EDADictLN_EdbEDAFeedbackEditor@@3UG__linked_taginfo@@A 	 DATA
	?G__EDADictLN_EdbShowerRec@@3UG__linked_taginfo@@A 	 DATA
	?G__EDADictLN_EdbEDAShowerTab@@3UG__linked_taginfo@@A 	 DATA
	?G__EDADictLN_EdbEDAObject@@3UG__linked_taginfo@@A 	 DATA
	?G__EDADictLN_EdbEDAText@@3UG__linked_taginfo@@A 	 DATA
	?G__EDADictLN_EdbEDALine@@3UG__linked_taginfo@@A 	 DATA
	?G__EDADictLN_EdbEDAOverlay@@3UG__linked_taginfo@@A 	 DATA
	?G__EDADictLN_EdbEDACamera@@3UG__linked_taginfo@@A 	 DATA
	?G__EDADictLN_EdbEDACameracLcLdA@@3UG__linked_taginfo@@A 	 DATA
	?G__EDADictLN_EdbEDAIO@@3UG__linked_taginfo@@A 	 DATA
	?G__EDADictLN_EdbEDAIOcLcLOutputFileMode@@3UG__linked_taginfo@@A 	 DATA
	?G__EDADictLN_EdbEDABrickData@@3UG__linked_taginfo@@A 	 DATA
	?G__EDADictLN_EdbEDASelection@@3UG__linked_taginfo@@A 	 DATA
	?GenerateInitInstance@ROOTDict@EdbEDAUtil@@YAPAVTGenericClassInfo@ROOT@@XZ
	?G__EDADictLN_EdbEDA@@3UG__linked_taginfo@@A 	 DATA
	?EDADictInitFunctionKeeper66@ROOTDict@EdbEDAUtil@@3P6APAVTGenericClassInfo@ROOT@@XZA 	 DATA
	?fgIsA@EdbEDATrackP@@0PAVTClass@@A 	 DATA
	?fgIsA@EdbEDAVertexSet@@0PAVTClass@@A 	 DATA
	?fgIsA@EdbEDATrackSet@@0PAVTClass@@A 	 DATA
	?fgIsA@EdbEDASelection@@0PAVTClass@@A 	 DATA
	?fgIsA@EdbEDAShowerTab@@0PAVTClass@@A 	 DATA
	?fgIsA@EdbEDAExtentionSet@@0PAVTClass@@A 	 DATA
	?fgIsA@EdbEDADecayVertex@@0PAVTClass@@A 	 DATA
	?fgIsA@EdbEDA@@0PAVTClass@@A 	 DATA
	?fgIsA@EdbEDAObject@@0PAVTClass@@A 	 DATA
	?fgIsA@EdbEDASmallKink@@0PAVTClass@@A 	 DATA
	?fgIsA@EdbEDAText@@0PAVTClass@@A 	 DATA
	?fgIsA@EdbEDATrackComment@@0PAVTClass@@A 	 DATA
	?fgIsA@EdbEDADecaySearch@@0PAVTClass@@A 	 DATA
	?fgIsA@EdbIDDialog@@0PAVTClass@@A 	 DATA
	?fgIsA@EdbEDALine@@0PAVTClass@@A 	 DATA
	?fgIsA@EdbEDATrackSelection@@0PAVTClass@@A 	 DATA
	?fgIsA@EdbEDAOverlay@@0PAVTClass@@A 	 DATA
	?fgIsA@EdbEDAMainTab@@0PAVTClass@@A 	 DATA
	??_H@YGXPAXIHP6EPAX0@Z@Z
	hypot
	fabsf
	?fabs@@YAMM@Z
	??0funcptr_and_voidptr@G__func2void@@QAE@PAX@Z
	??BG__func2void@@QBEPAXXZ
	??0G__FastAllocString@@QAE@I@Z
	?data@G__FastAllocString@@QBEPBDXZ
	G__cpp_dllrevEDADict
	G__set_cpp_environmentEDADict
	G__cpp_setup_tagtableEDADict
	G__cpp_setup_inheritanceEDADict
	G__cpp_setup_typetableEDADict
	G__cpp_setup_memvarEDADict
	G__cpp_setup_globalEDADict
	G__cpp_setup_memfuncEDADict
	G__cpp_setup_funcEDADict
	G__cpp_setupEDADict
	??1TInitBehavior@ROOT@@UAE@XZ
	??0TInitBehavior@ROOT@@QAE@XZ
	?Register@TDefaultInitBehavior@ROOT@@UBEXPBDFABVtype_info@@P6AXXZH@Z
	?Unregister@TDefaultInitBehavior@ROOT@@UBEXPBD@Z
	?CreateClass@TDefaultInitBehavior@ROOT@@UBEPAVTClass@@PBDFABVtype_info@@PAVTVirtualIsAProxy@@P6AXPAXAAVTMemberInspector@@@Z00HH@Z
	??0TDefaultInitBehavior@ROOT@@QAE@XZ
	??1TDefaultInitBehavior@ROOT@@UAE@XZ
	??2@YAPAXIPAX@Z
	??3@YAXPAX0@Z
	??_U@YAPAXIPAX@Z
	??_V@YAXPAX0@Z
	?length@?$char_traits@D@std@@SAIPBD@Z
	?copy@?$char_traits@D@std@@SAPADPADPBDI@Z
	?move@?$char_traits@D@std@@SAPADPADPBDI@Z
	?assign@?$char_traits@D@std@@SAXAADABD@Z
	?eq_int_type@?$char_traits@D@std@@SA_NABH0@Z
	?eof@?$char_traits@D@std@@SAHXZ
	?_Adopt@_Iterator_base0@std@@QAEXPBX@Z
	??0?$allocator@D@std@@QAE@XZ
	?deallocate@?$allocator@D@std@@QAEXPADI@Z
	?allocate@?$allocator@D@std@@QAEPADI@Z
	?max_size@?$allocator@D@std@@QBEIXZ
	?max_size@?$allocator_traits@V?$allocator@D@std@@@std@@SAIABV?$allocator@D@2@@Z
	??0?$_Wrap_alloc@V?$allocator@D@std@@@std@@QAE@XZ
	?allocate@?$_Wrap_alloc@V?$allocator@D@std@@@std@@QAEPADI@Z
	?deallocate@?$_Wrap_alloc@V?$allocator@D@std@@@std@@QAEXPADI@Z
	?max_size@?$_Wrap_alloc@V?$allocator@D@std@@@std@@QBEIXZ
	??0?$_String_val@U?$_Simple_types@D@std@@@std@@QAE@XZ
	?_Myptr@?$_String_val@U?$_Simple_types@D@std@@@std@@QAEPADXZ
	?_Myptr@?$_String_val@U?$_Simple_types@D@std@@@std@@QBEPBDXZ
	??0?$_String_alloc@$0A@U?$_String_base_types@DV?$allocator@D@std@@@std@@@std@@QAE@ABV?$allocator@D@1@@Z
	?_Getal@?$_String_alloc@$0A@U?$_String_base_types@DV?$allocator@D@std@@@std@@@std@@QBE?AU?$_Wrap_alloc@V?$allocator@D@std@@@2@XZ
	??0?$basic_string@DU?$char_traits@D@std@@V?$allocator@D@2@@std@@QAE@PBD@Z
	??1?$basic_string@DU?$char_traits@D@std@@V?$allocator@D@2@@std@@QAE@XZ
	?assign@?$basic_string@DU?$char_traits@D@std@@V?$allocator@D@2@@std@@QAEAAV12@ABV12@II@Z
	?assign@?$basic_string@DU?$char_traits@D@std@@V?$allocator@D@2@@std@@QAEAAV12@PBDI@Z
	?assign@?$basic_string@DU?$char_traits@D@std@@V?$allocator@D@2@@std@@QAEAAV12@PBD@Z
	?erase@?$basic_string@DU?$char_traits@D@std@@V?$allocator@D@2@@std@@QAEAAV12@I@Z
	?erase@?$basic_string@DU?$char_traits@D@std@@V?$allocator@D@2@@std@@QAEAAV12@II@Z
	?size@?$basic_string@DU?$char_traits@D@std@@V?$allocator@D@2@@std@@QBEIXZ
	?max_size@?$basic_string@DU?$char_traits@D@std@@V?$allocator@D@2@@std@@QBEIXZ
	?_Copy@?$basic_string@DU?$char_traits@D@std@@V?$allocator@D@2@@std@@QAEXII@Z
	?_Eos@?$basic_string@DU?$char_traits@D@std@@V?$allocator@D@2@@std@@QAEXI@Z
	?_Grow@?$basic_string@DU?$char_traits@D@std@@V?$allocator@D@2@@std@@QAE_NI_N@Z
	?_Inside@?$basic_string@DU?$char_traits@D@std@@V?$allocator@D@2@@std@@QAE_NPBD@Z
	?_Tidy@?$basic_string@DU?$char_traits@D@std@@V?$allocator@D@2@@std@@QAEX_NI@Z
	?_Xlen@?$basic_string@DU?$char_traits@D@std@@V?$allocator@D@2@@std@@QBEXXZ
	?_Xran@?$basic_string@DU?$char_traits@D@std@@V?$allocator@D@2@@std@@QBEXXZ
	?generic_category@std@@YAABVerror_category@1@XZ
	?system_category@std@@YAABVerror_category@1@XZ
	??0error_category@std@@QAE@XZ
	??1error_category@std@@UAE@XZ
	?default_error_condition@error_category@std@@UBE?AVerror_condition@2@H@Z
	?equivalent@error_category@std@@UBE_NHABVerror_condition@2@@Z
	?equivalent@error_category@std@@UBE_NABVerror_code@2@H@Z
	??8error_category@std@@QBE_NABV01@@Z
	?value@error_code@std@@QBEHXZ
	?category@error_code@std@@QBEABVerror_category@2@XZ
	??0error_condition@std@@QAE@HABVerror_category@1@@Z
	?value@error_condition@std@@QBEHXZ
	?category@error_condition@std@@QBEABVerror_category@2@XZ
	??8error_condition@std@@QBE_NABV01@@Z
	??0_Generic_error_category@std@@QAE@XZ
	?name@_Generic_error_category@std@@UBEPBDXZ
	?message@_Generic_error_category@std@@UBE?AV?$basic_string@DU?$char_traits@D@std@@V?$allocator@D@2@@2@H@Z
	??1_Generic_error_category@std@@UAE@XZ
	??0_Iostream_error_category@std@@QAE@XZ
	?name@_Iostream_error_category@std@@UBEPBDXZ
	?message@_Iostream_error_category@std@@UBE?AV?$basic_string@DU?$char_traits@D@std@@V?$allocator@D@2@@2@H@Z
	??1_Iostream_error_category@std@@UAE@XZ
	??0_System_error_category@std@@QAE@XZ
	?name@_System_error_category@std@@UBEPBDXZ
	?message@_System_error_category@std@@UBE?AV?$basic_string@DU?$char_traits@D@std@@V?$allocator@D@2@@2@H@Z
	?default_error_condition@_System_error_category@std@@UBE?AVerror_condition@2@H@Z
	??1_System_error_category@std@@UAE@XZ
	?Clear@TObject@@UAEXPBD@Z
	?GetOption@TObject@@UBEPBDXZ
	?IsSortable@TObject@@UBE_NXZ
	??2TObject@@SAPAXI@Z
	??_UTObject@@SAPAXI@Z
	??2TObject@@SAPAXIPAX@Z
	??_UTObject@@SAPAXIPAX@Z
	?IsReading@TBuffer@@QBE_NXZ
	??5@YAAAVTBuffer@@AAV0@AAH@Z
	??5@YAAAVTBuffer@@AAV0@AAN@Z
	??6@YAAAVTBuffer@@AAV0@H@Z
	??6@YAAAVTBuffer@@AAV0@N@Z
	?Abs@TMath@@YAHH@Z
	?IsLong@TString@@ABE_NXZ
	?GetShortSize@TString@@ABEHXZ
	?GetLongSize@TString@@ABEHXZ
	?GetLongPointer@TString@@ABEPBDXZ
	?GetShortPointer@TString@@ABEPBDXZ
	?GetPointer@TString@@ABEPBDXZ
	??BTString@@QBEPBDXZ
	??YTString@@QAEAAV0@ABV0@@Z
	?Append@TString@@QAEAAV1@PBDH@Z
	?Data@TString@@QBEPBDXZ
	?Length@TString@@QBEHXZ
	??0TNamed@@QAE@XZ
	??0TNamed@@QAE@PBD0@Z
	??1TNamed@@UAE@XZ
	?GetName@TNamed@@UBEPBDXZ
	?GetTitle@TNamed@@UBEPBDXZ
	?Hash@TNamed@@UBEKXZ
	?IsSortable@TNamed@@UBE_NXZ
	?IsA@TNamed@@UBEPAVTClass@@XZ
	??0TCollection@@IAE@XZ
	??1TCollection@@UAE@XZ
	?GetEntries@TCollection@@UBEHXZ
	?GetSize@TCollection@@UBEHXZ
	?Hash@TCollection@@UBEKXZ
	?IsEmpty@TCollection@@UBE_NXZ
	?IsFolder@TCollection@@UBE_NXZ
	?IsSortable@TCollection@@UBE_NXZ
	?MakeReverseIterator@TCollection@@UBEPAVTIterator@@XZ
	?IsA@TCollection@@UBEPAVTClass@@XZ
	??0TSeqCollection@@IAE@XZ
	?Changed@TSeqCollection@@MAEXXZ
	??1TSeqCollection@@UAE@XZ
	?Add@TSeqCollection@@UAEXPAVTObject@@@Z
	?RemoveFirst@TSeqCollection@@UAEXXZ
	?RemoveLast@TSeqCollection@@UAEXXZ
	?RemoveAt@TSeqCollection@@UAEPAVTObject@@H@Z
	?RemoveAfter@TSeqCollection@@UAEXPAVTObject@@@Z
	?RemoveBefore@TSeqCollection@@UAEXPAVTObject@@@Z
	?IsSorted@TSeqCollection@@UBE_NXZ
	?IsA@TSeqCollection@@UBEPAVTClass@@XZ
	??0TList@@QAE@XZ
	?Add@TList@@UAEXPAVTObject@@@Z
	?Add@TList@@UAEXPAVTObject@@PBD@Z
	?FirstLink@TList@@UBEPAVTObjLink@@XZ
	?LastLink@TList@@UBEPAVTObjLink@@XZ
	?IsA@TList@@UBEPAVTClass@@XZ
	??0TDatime@@QAE@I_N@Z
	??1TDatime@@UAE@XZ
	?IsA@TDatime@@UBEPAVTClass@@XZ
	?GetSender@TQObject@@MAEPAXXZ
	?GetSenderClassName@TQObject@@MBEPBDXZ
	?Connected@TQObject@@UAEXPBD@Z
	?Disconnected@TQObject@@UAEXPBD@Z
	?Destroyed@TQObject@@UAEXXZ
	?ChangedBy@TQObject@@UAEXPBD@Z
	?Message@TQObject@@UAEXPBD@Z
	?GetEntriesFast@TObjArray@@QBEHXZ
	??0_Ignore@std@@QAE@XZ
	?Dump@TClass@@UBEXXZ
	?IsFolder@TClass@@UBE_NXZ
	??0TQClass@@QAE@PBDFABVtype_info@@PAVTVirtualIsAProxy@@P6AXPAXAAVTMemberInspector@@@Z00HH@Z
	??1TQClass@@UAE@XZ
	?IsA@TQClass@@UBEPAVTClass@@XZ
	?CreateClass@TQObjectInitBehavior@ROOT@@UBEPAVTClass@@PBDFABVtype_info@@PAVTVirtualIsAProxy@@P6AXPAXAAVTMemberInspector@@@Z00HH@Z
	??0TQObjectInitBehavior@ROOT@@QAE@XZ
	??1TQObjectInitBehavior@ROOT@@UAE@XZ
	?DefineBehavior@ROOT@@YAPBVTQObjectInitBehavior@1@PAVTQObject@@0@Z
	??1TGLOverlayElement@@UAE@XZ
	?IsA@TGLOverlayElement@@UBEPAVTClass@@XZ
	?Hash@TGObject@@UBEKXZ
	?MapWindow@TGWindow@@UAEXXZ
	?MapRaised@TGWindow@@UAEXXZ
	?UnmapWindow@TGWindow@@UAEXXZ
	?DestroyWindow@TGWindow@@UAEXXZ
	?DestroySubwindows@TGWindow@@UAEXXZ
	?RaiseWindow@TGWindow@@UAEXXZ
	?LowerWindow@TGWindow@@UAEXXZ
	?IconifyWindow@TGWindow@@UAEXXZ
	?RequestFocus@TGWindow@@UAEXXZ
	?SetBackgroundPixmap@TGWindow@@UAEXK@Z
	?HandleExpose@TGWindow@@UAE_NPAUEvent_t@@@Z
	?HandleTimer@TGWindow@@UAE_NPAVTTimer@@@Z
	?HandleIdleEvent@TGWindow@@UAE_NPAVTGIdleHandler@@@Z
	?GetEditDisabled@TGWindow@@UBEIXZ
	?SetName@TGWindow@@UAEXPBD@Z
	??0TGDimension@@QAE@II@Z
	??0TGDimension@@QAE@ABV0@@Z
	??1TGDimension@@UAE@XZ
	?IsA@TGDimension@@UBEPAVTClass@@XZ
	??0TRefCnt@@QAE@H@Z
	??1TRefCnt@@UAE@XZ
	?SetRefCount@TRefCnt@@QAEXI@Z
	??0TGLayoutHints@@QAE@KHHHH@Z
	?SetLayoutHints@TGLayoutHints@@UAEXK@Z
	?SetPadTop@TGLayoutHints@@UAEXH@Z
	?SetPadBottom@TGLayoutHints@@UAEXH@Z
	?SetPadLeft@TGLayoutHints@@UAEXH@Z
	?SetPadRight@TGLayoutHints@@UAEXH@Z
	?ls@TGLayoutHints@@UBEXPBD@Z
	?IsA@TGLayoutHints@@UBEPAVTClass@@XZ
	?GetSender@TGFrame@@MAEPAXXZ
	?ReallyDelete@TGFrame@@UAEXXZ
	?HandleSelectionClear@TGFrame@@UAE_NPAUEvent_t@@@Z
	?HandleColormapChange@TGFrame@@UAE_NPAUEvent_t@@@Z
	?ProcessedConfigure@TGFrame@@UAEXPAUEvent_t@@@Z
	?ProcessedEvent@TGFrame@@UAEXPAUEvent_t@@@Z
	?GetBackground@TGFrame@@UBEKXZ
	?SetForegroundColor@TGFrame@@UAEXK@Z
	?GetOptions@TGFrame@@UBEIXZ
	?ReparentWindow@TGFrame@@UAEXPBVTGWindow@@HH@Z
	?MapWindow@TGFrame@@UAEXXZ
	?MapRaised@TGFrame@@UAEXXZ
	?UnmapWindow@TGFrame@@UAEXXZ
	?DrawCopy@TGFrame@@UAEXKHH@Z
	?Activate@TGFrame@@UAEX_N@Z
	?IsActive@TGFrame@@UBE_NXZ
	?SetX@TGFrame@@UAEXH@Z
	?SetY@TGFrame@@UAEXH@Z
	?SetWidth@TGFrame@@UAEXI@Z
	?SetHeight@TGFrame@@UAEXI@Z
	?SetMinWidth@TGFrame@@UAEXI@Z
	?SetMinHeight@TGFrame@@UAEXI@Z
	?SetMaxWidth@TGFrame@@UAEXI@Z
	?SetMaxHeight@TGFrame@@UAEXI@Z
	?SetSize@TGFrame@@UAEXABVTGDimension@@@Z
	?Delete@TGFrame@@UAEXPBD@Z
	?DrawClone@TGFrame@@UBEPAVTObject@@PBD@Z
	?DrawClass@TGFrame@@UBEXXZ
	?Dump@TGFrame@@UBEXXZ
	?Inspect@TGFrame@@UBEXXZ
	?SetDrawOption@TGFrame@@UAEXPBD@Z
	?GetDNDData@TGFrame@@UAEPAVTDNDData@@K@Z
	?HandleDNDDrop@TGFrame@@UAE_NPAVTDNDData@@@Z
	?HandleDNDPosition@TGFrame@@UAEKHHKHH@Z
	?HandleDNDEnter@TGFrame@@UAEKPAK@Z
	?HandleDNDLeave@TGFrame@@UAE_NXZ
	?HandleDNDFinished@TGFrame@@UAE_NXZ
	?GetList@TGCompositeFrame@@UBEPAVTList@@XZ
	?GetDefaultWidth@TGCompositeFrame@@UBEIXZ
	?GetDefaultHeight@TGCompositeFrame@@UBEIXZ
	?GetDefaultSize@TGCompositeFrame@@UBE?AVTGDimension@@XZ
	?HandleDoubleClick@TGCompositeFrame@@UAE_NPAUEvent_t@@@Z
	?HandleCrossing@TGCompositeFrame@@UAE_NPAUEvent_t@@@Z
	?HandleFocusChange@TGCompositeFrame@@UAE_NPAUEvent_t@@@Z
	?GetLayoutManager@TGCompositeFrame@@UBEPAVTGLayoutManager@@XZ
	?IsComposite@TGCompositeFrame@@UBE_NXZ
	?IsLayoutBroken@TGCompositeFrame@@UBE_NXZ
	?MustCleanup@TGCompositeFrame@@UBEHXZ
	?SetMapSubwindows@TGCompositeFrame@@UAEX_N@Z
	?IsMapSubwindows@TGCompositeFrame@@UBE_NXZ
	?GetIconName@TGMainFrame@@UBEPBDXZ
	??1TGTransientFrame@@UAE@XZ
	?_Nextnode@?$_List_val@U?$_List_simple_types@PAVTEveElement@@@std@@@std@@SAAAPAU?$_List_node@PAVTEveElement@@PAX@2@PAU32@@Z
	?_Prevnode@?$_List_val@U?$_List_simple_types@PAVTEveElement@@@std@@@std@@SAAAPAU?$_List_node@PAVTEveElement@@PAX@2@PAU32@@Z
	?_Myval@?$_List_val@U?$_List_simple_types@PAVTEveElement@@@std@@@std@@SAAAPAVTEveElement@@PAU?$_List_node@PAVTEveElement@@PAX@2@@Z
	?begin@?$list@PAVTEveElement@@V?$allocator@PAVTEveElement@@@std@@@std@@QAE?AV?$_List_iterator@V?$_List_val@U?$_List_simple_types@PAVTEveElement@@@std@@@std@@@2@XZ
	?end@?$list@PAVTEveElement@@V?$allocator@PAVTEveElement@@@std@@@std@@QAE?AV?$_List_iterator@V?$_List_val@U?$_List_simple_types@PAVTEveElement@@@std@@@std@@@2@XZ
	?BeginChildren@TEveElement@@QAE?AV?$_List_iterator@V?$_List_val@U?$_List_simple_types@PAVTEveElement@@@std@@@std@@@std@@XZ
	?EndChildren@TEveElement@@QAE?AV?$_List_iterator@V?$_List_val@U?$_List_simple_types@PAVTEveElement@@@std@@@std@@@std@@XZ
	?GetUserData@TEveElement@@QBEPAXXZ
	??0?$_List_unchecked_const_iterator@V?$_List_val@U?$_List_simple_types@PAVTEveElement@@@std@@@std@@U_Iterator_base0@2@@std@@QAE@PAU?$_List_node@PAVTEveElement@@PAX@1@PBV?$_List_val@U?$_List_simple_types@PAVTEveElement@@@std@@@1@@Z
	??0?$_List_const_iterator@V?$_List_val@U?$_List_simple_types@PAVTEveElement@@@std@@@std@@@std@@QAE@PAU?$_List_node@PAVTEveElement@@PAX@1@PBV?$_List_val@U?$_List_simple_types@PAVTEveElement@@@std@@@1@@Z
	??D?$_List_const_iterator@V?$_List_val@U?$_List_simple_types@PAVTEveElement@@@std@@@std@@@std@@QBEABQAVTEveElement@@XZ
	??E?$_List_const_iterator@V?$_List_val@U?$_List_simple_types@PAVTEveElement@@@std@@@std@@@std@@QAEAAV01@XZ
	??F?$_List_const_iterator@V?$_List_val@U?$_List_simple_types@PAVTEveElement@@@std@@@std@@@std@@QAEAAV01@XZ
	??8?$_List_const_iterator@V?$_List_val@U?$_List_simple_types@PAVTEveElement@@@std@@@std@@@std@@QBE_NABV01@@Z
	??9?$_List_const_iterator@V?$_List_val@U?$_List_simple_types@PAVTEveElement@@@std@@@std@@@std@@QBE_NABV01@@Z
	??0?$_List_iterator@V?$_List_val@U?$_List_simple_types@PAVTEveElement@@@std@@@std@@@std@@QAE@PAU?$_List_node@PAVTEveElement@@PAX@1@PBV?$_List_val@U?$_List_simple_types@PAVTEveElement@@@std@@@1@@Z
	??D?$_List_iterator@V?$_List_val@U?$_List_simple_types@PAVTEveElement@@@std@@@std@@@std@@QBEAAPAVTEveElement@@XZ
	??E?$_List_iterator@V?$_List_val@U?$_List_simple_types@PAVTEveElement@@@std@@@std@@@std@@QAEAAV01@XZ
	??E?$_List_iterator@V?$_List_val@U?$_List_simple_types@PAVTEveElement@@@std@@@std@@@std@@QAE?AV01@H@Z
	??F?$_List_iterator@V?$_List_val@U?$_List_simple_types@PAVTEveElement@@@std@@@std@@@std@@QAEAAV01@XZ
	?GetSelection@TEveManager@@QBEPAVTEveSelection@@XZ
	?GetBrowser@TEveManager@@QBEPAVTEveBrowser@@XZ
	?GetCurrentEvent@TEveManager@@QBEPAVTEveEventManager@@XZ
	?Redraw3D@TEveManager@@QAEX_N0@Z
	?GET_MSG@@YAHJ@Z
	?GET_SUBMSG@@YAHJ@Z
	??1EdbPoint@@UAE@XZ
	?Transform@EdbPoint@@UAEXPBVEdbAffine2D@@@Z
	?Transform@EdbPoint@@UAEXPBVEdbAffine3D@@@Z
	?Test@EdbPoint@@UBEXXZ
	?IsA@EdbPoint@@UBEPAVTClass@@XZ
	??0EdbPoint@@QAE@XZ
	??4EdbPoint@@QAEAAV0@ABV0@@Z
	??1EdbAngle2D@@UAE@XZ
	?Test@EdbAngle2D@@UBEXXZ
	?IsA@EdbAngle2D@@UBEPAVTClass@@XZ
	??0EdbAngle2D@@QAE@XZ
	??4EdbAngle2D@@QAEAAV0@ABV0@@Z
	??1EdbPoint2D@@UAE@XZ
	?Z@EdbPoint2D@@UBEMXZ
	?SetZ@EdbPoint2D@@UAEXM@Z
	?Test@EdbPoint2D@@UBEXXZ
	?TestPoint2D@EdbPoint2D@@UBEXXZ
	?IsA@EdbPoint2D@@UBEPAVTClass@@XZ
	??0EdbPoint2D@@QAE@XZ
	??4EdbPoint2D@@QAEAAV0@ABV0@@Z
	??4EdbPoint3D@@QAEAAV0@ABV0@@Z
	??1EdbTrack2D@@UAE@XZ
	?Test@EdbTrack2D@@UBEXXZ
	?IsA@EdbTrack2D@@UBEPAVTClass@@XZ
	??0EdbTrack2D@@QAE@XZ
	??4EdbTrack2D@@QAEAAV0@ABV0@@Z
	??4EdbPointsBox2D@@QAEAAV0@ABV0@@Z
	??0EdbID@@QAE@HHHH@Z
	??1EdbID@@UAE@XZ
	?Set@EdbID@@QAEXHHHH@Z
	?IsA@EdbID@@UBEPAVTClass@@XZ
	??0EdbID@@QAE@ABV0@@Z
	??4EdbID@@QAEAAV0@ABV0@@Z
	??0EdbSegP@@QAE@XZ
	??0EdbSegP@@QAE@ABV0@@Z
	??1EdbSegP@@UAE@XZ
	?SetZ@EdbSegP@@UAEXM@Z
	?SetPlate@EdbSegP@@QAEXH@Z
	?ID@EdbSegP@@QBEHXZ
	?PID@EdbSegP@@QBEHXZ
	?Z@EdbSegP@@UBEMXZ
	?Plate@EdbSegP@@QBEHXZ
	?Side@EdbSegP@@QBEHXZ
	?X@EdbSegP@@UBEMXZ
	?Y@EdbSegP@@UBEMXZ
	?TX@EdbSegP@@UBEMXZ
	?TY@EdbSegP@@UBEMXZ
	?SetX@EdbSegP@@UAEXM@Z
	?SetY@EdbSegP@@UAEXM@Z
	?SetTX@EdbSegP@@UAEXM@Z
	?SetTY@EdbSegP@@UAEXM@Z
	?IsSortable@EdbSegP@@UBE_NXZ
	?IsA@EdbSegP@@UBEPAVTClass@@XZ
	??4EdbSegP@@QAEAAV0@ABV0@@Z
	??4EdbSegmentsBox@@QAEAAV0@ABV0@@Z
	??0EdbTrackP@@QAE@AAV0@@Z
	?SetCounters@EdbTrackP@@QAEXXZ
	?SetN0@EdbTrackP@@QAEXXZ
	?SetNpl@EdbTrackP@@QAEXXZ
	?N@EdbTrackP@@QBEHXZ
	?GetSegmentFirst@EdbTrackP@@QBEPAVEdbSegP@@XZ
	?GetSegmentLast@EdbTrackP@@QBEPAVEdbSegP@@XZ
	?GetSegment@EdbTrackP@@QBEPAVEdbSegP@@H@Z
	?IsA@EdbTrackP@@UBEPAVTClass@@XZ
	??4EdbTrackP@@QAEAAV0@ABV0@@Z
	?ID@EdbPattern@@QBEHXZ
	?Plate@EdbPattern@@QBEHXZ
	??4EdbPattern@@QAEAAV0@ABV0@@Z
	?Npatterns@EdbPatternsVolume@@QBEHXZ
	?GetTrack@EdbVTA@@QBEPAVEdbTrackP@@XZ
	?N@EdbVertex@@QBEHXZ
	?Hash@EdbVertex@@UBEKXZ
	?IsSortable@EdbVertex@@UBE_NXZ
	?X@EdbVertex@@QBEMXZ
	?Y@EdbVertex@@QBEMXZ
	?Z@EdbVertex@@QBEMXZ
	?GetVTa@EdbVertex@@QAEPAVEdbVTA@@H@Z
	?GetTrack@EdbVertex@@QAEPAVEdbTrackP@@H@Z
	?SetXYZ@EdbVertex@@QAEXMMM@Z
	??1EdbVertexPar@@UAE@XZ
	?IsA@EdbVertexPar@@UBEPAVTClass@@XZ
	??0EdbVertexRec@@QAE@XZ
	?IsA@EdbVertexRec@@UBEPAVTClass@@XZ
	?At@TIndexCell@@QBEPAV1@H@Z
	?Value@TIndexCell@@QBEJXZ
	??4EdbH2@@QAEAAV0@ABV0@@Z
	?ID@EdbLayer@@QBEHXZ
	?Z@EdbLayer@@QBEMXZ
	??1EdbScanCond@@UAE@XZ
	?SetRadX0@EdbScanCond@@QAEXM@Z
	?SetSigma0@EdbScanCond@@QAEXMMMM@Z
	?SetBins@EdbScanCond@@QAEXMMMM@Z
	?SetDegrad@EdbScanCond@@QAEXM@Z
	?SetPulsRamp0@EdbScanCond@@QAEXMM@Z
	?SetPulsRamp04@EdbScanCond@@QAEXMM@Z
	?SetChi2Max@EdbScanCond@@QAEXM@Z
	?SetChi2PMax@EdbScanCond@@QAEXM@Z
	?IsA@EdbScanCond@@UBEPAVTClass@@XZ
	??0EdbScanCond@@QAE@ABV0@@Z
	??4EdbScanCond@@QAEAAV0@ABV0@@Z
	?Ntracks@EdbPVRec@@QBEHXZ
	?GetTrack@EdbPVRec@@QBEPAVEdbTrackP@@H@Z
	?Plate@EdbDataPiece@@QBEHXZ
	?GetLayer@EdbDataPiece@@QAEPAVEdbLayer@@H@Z
	?N@EdbDataSet@@QBEHXZ
	?GetPiece@EdbDataSet@@QAEPAVEdbDataPiece@@H@Z
	?GetDataSet@EdbDataProc@@QAEPAVEdbDataSet@@XZ
	?PVR@EdbDataProc@@QBEPAVEdbPVRec@@XZ
	?Npl@EdbBrickP@@QBEHXZ
	?GetPlate@EdbBrickP@@QAEPAVEdbPlateP@@H@Z
	?Brick@EdbScanSet@@QAEAAVEdbBrickP@@XZ
	?GetPlate@EdbScanSet@@QAEPAVEdbPlateP@@H@Z
	?IsA@EdbRunAccess@@UBEPAVTClass@@XZ
	??0EdbRunAccess@@QAE@ABV0@@Z
	??4EdbRunAccess@@QAEAAV0@ABV0@@Z
	??0TLockGuard@@QAE@PAVTVirtualMutex@@@Z
	??1TLockGuard@@UAE@XZ
	?IsA@TLockGuard@@UBEPAVTClass@@XZ
	??0EdbIDDialog@@QAE@PADAAVEdbID@@PAH@Z
	??1EdbIDDialog@@UAE@XZ
	?ProcessMessage@EdbIDDialog@@UAE_NJJJ@Z
	?CloseWindow@EdbIDDialog@@UAEXXZ
	?Class@EdbIDDialog@@SAPAVTClass@@XZ
	?Class_Name@EdbIDDialog@@SAPBDXZ
	?Class_Version@EdbIDDialog@@SAFXZ
	?Dictionary@EdbIDDialog@@SAXXZ
	?IsA@EdbIDDialog@@UBEPAVTClass@@XZ
	?ShowMembers@EdbIDDialog@@UAEXAAVTMemberInspector@@@Z
	?Streamer@EdbIDDialog@@UAEXAAVTBuffer@@@Z
	?StreamerNVirtual@EdbIDDialog@@QAEXAAVTBuffer@@@Z
	?DeclFileName@EdbIDDialog@@SAPBDXZ
	?ImplFileLine@EdbIDDialog@@SAHXZ
	?ImplFileName@EdbIDDialog@@SAPBDXZ
	?DeclFileLine@EdbIDDialog@@SAHXZ
	??0EdbEDAArea@@QAE@XZ
	??0EdbEDAArea@@QAE@HNNNNN@Z
	?SetAreaMinMax@EdbEDAArea@@QAEXHNNNNN@Z
	?SetAreaXYRadius@EdbEDAArea@@QAEXHNNNNN@Z
	?Plate@EdbEDAArea@@QAEHXZ
	?Xmin@EdbEDAArea@@QAENXZ
	?Xmax@EdbEDAArea@@QAENXZ
	?Ymin@EdbEDAArea@@QAENXZ
	?Ymax@EdbEDAArea@@QAENXZ
	?X@EdbEDAArea@@QAENXZ
	?Y@EdbEDAArea@@QAENXZ
	?Z@EdbEDAArea@@QAENXZ
	?RX@EdbEDAArea@@QAENXZ
	?RY@EdbEDAArea@@QAENXZ
	?SetPlate@EdbEDAArea@@QAEXH@Z
	?SetXmin@EdbEDAArea@@QAEXN@Z
	?SetXmax@EdbEDAArea@@QAEXN@Z
	?SetYmin@EdbEDAArea@@QAEXN@Z
	?SetYmax@EdbEDAArea@@QAEXN@Z
	?SetZ@EdbEDAArea@@QAEXN@Z
	?SetDraw@EdbEDAArea@@QAEX_N@Z
	?GetDraw@EdbEDAArea@@QAE_NXZ
	?Print@EdbEDAArea@@QAEXXZ
	?Class@EdbEDAArea@@SAPAVTClass@@XZ
	?Class_Name@EdbEDAArea@@SAPBDXZ
	?Class_Version@EdbEDAArea@@SAFXZ
	?Dictionary@EdbEDAArea@@SAXXZ
	?IsA@EdbEDAArea@@UBEPAVTClass@@XZ
	?ShowMembers@EdbEDAArea@@UAEXAAVTMemberInspector@@@Z
	?Streamer@EdbEDAArea@@UAEXAAVTBuffer@@@Z
	?StreamerNVirtual@EdbEDAArea@@QAEXAAVTBuffer@@@Z
	?DeclFileName@EdbEDAArea@@SAPBDXZ
	?ImplFileLine@EdbEDAArea@@SAHXZ
	?ImplFileName@EdbEDAArea@@SAPBDXZ
	?DeclFileLine@EdbEDAArea@@SAHXZ
	??1EdbEDAArea@@UAE@XZ
	??0EdbEDAArea@@QAE@ABV0@@Z
	??4EdbEDAArea@@QAEAAV0@ABV0@@Z
	??0EdbEDAAreaSet@@QAE@XZ
	??0EdbEDAAreaSet@@QAE@PAVEdbPVRec@@@Z
	??0EdbEDAAreaSet@@QAE@PAVEdbDataSet@@NNNN@Z
	?SetAreas@EdbEDAAreaSet@@QAEXPAVEdbDataSet@@NNNN@Z
	?Init@EdbEDAAreaSet@@QAEXXZ
	?SetDraw@EdbEDAAreaSet@@QAEX_N@Z
	?SetDrawG@EdbEDAAreaSet@@QAEX_N@Z
	?AddArea@EdbEDAAreaSet@@QAEXHNNNNN@Z
	?AddArea@EdbEDAAreaSet@@QAEXPAVEdbEDAArea@@@Z
	?Print@EdbEDAAreaSet@@QAEXXZ
	?GetAreas@EdbEDAAreaSet@@QAEPAVTObjArray@@XZ
	?UnDraw@EdbEDAAreaSet@@QAEXH@Z
	?N@EdbEDAAreaSet@@QAEHXZ
	?GetArea@EdbEDAAreaSet@@QAEPAVEdbEDAArea@@H@Z
	?GetAreaIPL@EdbEDAAreaSet@@QAEPAVEdbEDAArea@@H@Z
	?Clear@EdbEDAAreaSet@@QAEXXZ
	?Class@EdbEDAAreaSet@@SAPAVTClass@@XZ
	?Class_Name@EdbEDAAreaSet@@SAPBDXZ
	?Class_Version@EdbEDAAreaSet@@SAFXZ
	?Dictionary@EdbEDAAreaSet@@SAXXZ
	?IsA@EdbEDAAreaSet@@UBEPAVTClass@@XZ
	?ShowMembers@EdbEDAAreaSet@@UAEXAAVTMemberInspector@@@Z
	?Streamer@EdbEDAAreaSet@@UAEXAAVTBuffer@@@Z
	?StreamerNVirtual@EdbEDAAreaSet@@QAEXAAVTBuffer@@@Z
	?DeclFileName@EdbEDAAreaSet@@SAPBDXZ
	?ImplFileLine@EdbEDAAreaSet@@SAHXZ
	?ImplFileName@EdbEDAAreaSet@@SAPBDXZ
	?DeclFileLine@EdbEDAAreaSet@@SAHXZ
	??1EdbEDAAreaSet@@UAE@XZ
	??0EdbEDAAreaSet@@QAE@ABV0@@Z
	??4EdbEDAAreaSet@@QAEAAV0@ABV0@@Z
	??0EdbEDAVertexSet@@QAE@XZ
	?Init@EdbEDAVertexSet@@QAEXXZ
	?SetVertexAttribute@EdbEDAVertexSet@@QAEXHHH@Z
	?SetColorMode@EdbEDAVertexSet@@QAEXH@Z
	?ResetVertexAttribute@EdbEDAVertexSet@@QAEXXZ
	?GetVertexColor@EdbEDAVertexSet@@QAEHXZ
	?GetVertexColorSelected@EdbEDAVertexSet@@QAEHXZ
	?GetVertexMarkerStyle@EdbEDAVertexSet@@QAEHXZ
	?AddVertex@EdbEDAVertexSet@@QAEXPAVEdbVertex@@@Z
	?AddVertices@EdbEDAVertexSet@@QAEXPAVTObjArray@@@Z
	?SetVertex@EdbEDAVertexSet@@QAEXPAVEdbVertex@@@Z
	?SetVertices@EdbEDAVertexSet@@QAEXPAVTObjArray@@@Z
	?SetVerticesBase@EdbEDAVertexSet@@QAEXPAVTObjArray@@@Z
	?SetVerticesAll@EdbEDAVertexSet@@QAEXXZ
	?SetVerticesNtrk@EdbEDAVertexSet@@QAEXH@Z
	?RestorePrevious@EdbEDAVertexSet@@QAEXXZ
	?StorePrevious@EdbEDAVertexSet@@QAEXXZ
	?RemoveVertex@EdbEDAVertexSet@@QAEXPAVEdbVertex@@@Z
	?RemoveVertices@EdbEDAVertexSet@@QAEXPAVTObjArray@@@Z
	?ClearVertices@EdbEDAVertexSet@@QAEXXZ
	?Clear@EdbEDAVertexSet@@QAEXXZ
	?N@EdbEDAVertexSet@@QAEHXZ
	?GetVertex@EdbEDAVertexSet@@QAEPAVEdbVertex@@H@Z
	?GetVertices@EdbEDAVertexSet@@QAEPAVTObjArray@@XZ
	?NBase@EdbEDAVertexSet@@QAEHXZ
	?GetVertexBase@EdbEDAVertexSet@@QAEPAVEdbVertex@@H@Z
	?GetVerticesBase@EdbEDAVertexSet@@QAEPAVTObjArray@@XZ
	?Class@EdbEDAVertexSet@@SAPAVTClass@@XZ
	?Class_Name@EdbEDAVertexSet@@SAPBDXZ
	?Class_Version@EdbEDAVertexSet@@SAFXZ
	?Dictionary@EdbEDAVertexSet@@SAXXZ
	?IsA@EdbEDAVertexSet@@UBEPAVTClass@@XZ
	?ShowMembers@EdbEDAVertexSet@@UAEXAAVTMemberInspector@@@Z
	?Streamer@EdbEDAVertexSet@@UAEXAAVTBuffer@@@Z
	?StreamerNVirtual@EdbEDAVertexSet@@QAEXAAVTBuffer@@@Z
	?DeclFileName@EdbEDAVertexSet@@SAPBDXZ
	?ImplFileLine@EdbEDAVertexSet@@SAHXZ
	?ImplFileName@EdbEDAVertexSet@@SAPBDXZ
	?DeclFileLine@EdbEDAVertexSet@@SAHXZ
	??1EdbEDAVertexSet@@UAE@XZ
	??0EdbEDAVertexSet@@QAE@ABV0@@Z
	??4EdbEDAVertexSet@@QAEAAV0@ABV0@@Z
	??0EdbEDAExtentionSet@@QAE@XZ
	?Enable@EdbEDAExtentionSet@@QAEXXZ
	?Disable@EdbEDAExtentionSet@@QAEXXZ
	?SetZ@EdbEDAExtentionSet@@QAEXN@Z
	?GetZ@EdbEDAExtentionSet@@QAENXZ
	?Class@EdbEDAExtentionSet@@SAPAVTClass@@XZ
	?Class_Name@EdbEDAExtentionSet@@SAPBDXZ
	?Class_Version@EdbEDAExtentionSet@@SAFXZ
	?Dictionary@EdbEDAExtentionSet@@SAXXZ
	?IsA@EdbEDAExtentionSet@@UBEPAVTClass@@XZ
	?ShowMembers@EdbEDAExtentionSet@@UAEXAAVTMemberInspector@@@Z
	?Streamer@EdbEDAExtentionSet@@UAEXAAVTBuffer@@@Z
	?StreamerNVirtual@EdbEDAExtentionSet@@QAEXAAVTBuffer@@@Z
	?DeclFileName@EdbEDAExtentionSet@@SAPBDXZ
	?ImplFileLine@EdbEDAExtentionSet@@SAHXZ
	?ImplFileName@EdbEDAExtentionSet@@SAPBDXZ
	?DeclFileLine@EdbEDAExtentionSet@@SAHXZ
	??1EdbEDAExtentionSet@@UAE@XZ
	??0EdbEDAExtentionSet@@QAE@ABV0@@Z
	??4EdbEDAExtentionSet@@QAEAAV0@ABV0@@Z
	??0EdbRunTracking@@QAE@XZ
	?IsA@EdbRunTracking@@UBEPAVTClass@@XZ
	??0EdbRunTracking@@QAE@AAV0@@Z
	??4EdbRunTracking@@QAEAAV0@ABV0@@Z
	??0EdbEDATrackComment@@QAE@PAVEdbTrackP@@PAD@Z
	?GetTrack@EdbEDATrackComment@@QAEPAVEdbTrackP@@XZ
	?GetComment@EdbEDATrackComment@@QAEPBDXZ
	?Class@EdbEDATrackComment@@SAPAVTClass@@XZ
	?Class_Name@EdbEDATrackComment@@SAPBDXZ
	?Class_Version@EdbEDATrackComment@@SAFXZ
	?Dictionary@EdbEDATrackComment@@SAXXZ
	?IsA@EdbEDATrackComment@@UBEPAVTClass@@XZ
	?ShowMembers@EdbEDATrackComment@@UAEXAAVTMemberInspector@@@Z
	?Streamer@EdbEDATrackComment@@UAEXAAVTBuffer@@@Z
	?StreamerNVirtual@EdbEDATrackComment@@QAEXAAVTBuffer@@@Z
	?DeclFileName@EdbEDATrackComment@@SAPBDXZ
	?ImplFileLine@EdbEDATrackComment@@SAHXZ
	?ImplFileName@EdbEDATrackComment@@SAPBDXZ
	?DeclFileLine@EdbEDATrackComment@@SAHXZ
	??1EdbEDATrackComment@@UAE@XZ
	??0EdbEDATrackComment@@QAE@ABV0@@Z
	??4EdbEDATrackComment@@QAEAAV0@ABV0@@Z
	??0EdbEDATrackSelection@@QAE@XZ
	??1EdbEDATrackSelection@@UAE@XZ
	?Reset@EdbEDATrackSelection@@QAEXXZ
	?SetNsegCut@EdbEDATrackSelection@@QAEXH@Z
	?SetUpstreamPlate@EdbEDATrackSelection@@QAEXH@Z
	?SetImpactSearch@EdbEDATrackSelection@@QAEX_NPAVEdbVertex@@@Z
	?SetNeighborSearch@EdbEDATrackSelection@@QAEX_NPAVTObjArray@@NN@Z
	?SetSideOut@EdbEDATrackSelection@@QAEX_N@Z
	?SetSideOutPlate@EdbEDATrackSelection@@QAEXH@Z
	?SetAngularCut@EdbEDATrackSelection@@QAEX_N@Z
	?SetDX@EdbEDATrackSelection@@QAEXN@Z
	?SetDT@EdbEDATrackSelection@@QAEXNN@Z
	?SetAngle@EdbEDATrackSelection@@QAEXNN@Z
	?SetClearPrevious@EdbEDATrackSelection@@QAEX_N@Z
	?SetPHCut@EdbEDATrackSelection@@QAEXN@Z
	?SetPHDTRMS@EdbEDATrackSelection@@QAEXN@Z
	?GetImpactSearch@EdbEDATrackSelection@@QAE_NXZ
	?GetUpstreamPlate@EdbEDATrackSelection@@QAEHXZ
	?GetNsegCut@EdbEDATrackSelection@@QAEHXZ
	?GetPHCut@EdbEDATrackSelection@@QAENXZ
	?GetPHDTRMS@EdbEDATrackSelection@@QAENXZ
	?GetSideOutPlate@EdbEDATrackSelection@@QAEHXZ
	?SetRunTracking@EdbEDATrackSelection@@QAEXAAVEdbRunTracking@@@Z
	?GetRunTracking@EdbEDATrackSelection@@QAEAAVEdbRunTracking@@XZ
	?SetCondTrackingDefault@EdbEDATrackSelection@@QAEXXZ
	?SetCondMTDefault@EdbEDATrackSelection@@QAEXAAVEdbScanCond@@@Z
	?SetCondBTDefault@EdbEDATrackSelection@@QAEXAAVEdbScanCond@@@Z
	?Class@EdbEDATrackSelection@@SAPAVTClass@@XZ
	?Class_Name@EdbEDATrackSelection@@SAPBDXZ
	?Class_Version@EdbEDATrackSelection@@SAFXZ
	?Dictionary@EdbEDATrackSelection@@SAXXZ
	?IsA@EdbEDATrackSelection@@UBEPAVTClass@@XZ
	?ShowMembers@EdbEDATrackSelection@@UAEXAAVTMemberInspector@@@Z
	?Streamer@EdbEDATrackSelection@@UAEXAAVTBuffer@@@Z
	?StreamerNVirtual@EdbEDATrackSelection@@QAEXAAVTBuffer@@@Z
	?DeclFileName@EdbEDATrackSelection@@SAPBDXZ
	?ImplFileLine@EdbEDATrackSelection@@SAHXZ
	?ImplFileName@EdbEDATrackSelection@@SAPBDXZ
	?DeclFileLine@EdbEDATrackSelection@@SAHXZ
	??0EdbEDATrackSelection@@QAE@AAV0@@Z
	??4EdbEDATrackSelection@@QAEAAV0@ABV0@@Z
	??0EdbEDATrackSet@@QAE@PADPAVTObjArray@@@Z
	?Print@EdbEDATrackSet@@QAEXXZ
	?SetTracksBase@EdbEDATrackSet@@QAEXPAVTObjArray@@@Z
	?AddTracksBase@EdbEDATrackSet@@QAEXPAVTObjArray@@@Z
	?GetTracksBase@EdbEDATrackSet@@QAEPAVTObjArray@@XZ
	?AddTrack@EdbEDATrackSet@@QAEXPAVEdbTrackP@@@Z
	?AddTracks@EdbEDATrackSet@@QAEXPAVTObjArray@@@Z
	?SetTrack@EdbEDATrackSet@@QAEXPAVEdbTrackP@@@Z
	?SetTrack@EdbEDATrackSet@@QAEXH@Z
	?SetTracks@EdbEDATrackSet@@QAEXPAVTObjArray@@@Z
	?GetTracks@EdbEDATrackSet@@QAEPAVTObjArray@@XZ
	?AddTracksPVR@EdbEDATrackSet@@QAEXPAVEdbPVRec@@@Z
	?GetPVRec@EdbEDATrackSet@@QAEPAVEdbPVRec@@XZ
	?SetPVRec@EdbEDATrackSet@@QAEXPAVEdbPVRec@@@Z
	?RemoveTrackBase@EdbEDATrackSet@@QAEXPAVEdbTrackP@@@Z
	?RemoveTrack@EdbEDATrackSet@@QAEXPAVEdbTrackP@@@Z
	?RemoveTracks@EdbEDATrackSet@@QAEXPAVTObjArray@@@Z
	?ClearTracks@EdbEDATrackSet@@QAEXXZ
	?ClearTracksBase@EdbEDATrackSet@@QAEXXZ
	?Clear@EdbEDATrackSet@@QAEXXZ
	?SetTracksAll@EdbEDATrackSet@@QAEXXZ
	?SetTracksNseg@EdbEDATrackSet@@QAEXH@Z
	?RestorePrevious@EdbEDATrackSet@@QAEXXZ
	?StorePrevious@EdbEDATrackSet@@QAEXXZ
	?SearchTrack@EdbEDATrackSet@@QAEPAVEdbTrackP@@H@Z
	?FindTrack@EdbEDATrackSet@@QAEPAVEdbTrackP@@PAVEdbSegP@@NN@Z
	?FindTrack@EdbEDATrackSet@@QAEPAVEdbTrackP@@PAV2@@Z
	?FindTrackLast@EdbEDATrackSet@@QAEPAVEdbTrackP@@PAVEdbSegP@@NN@Z
	?AddSegments@EdbEDATrackSet@@QAEXPAVTObjArray@@@Z
	?GetTrack@EdbEDATrackSet@@QAEPAVEdbTrackP@@PAVEdbSegP@@@Z
	?N@EdbEDATrackSet@@QAEHXZ
	?NBase@EdbEDATrackSet@@QAEHXZ
	?GetTrack@EdbEDATrackSet@@QAEPAVEdbTrackP@@H@Z
	?GetTrackBase@EdbEDATrackSet@@QAEPAVEdbTrackP@@H@Z
	?IsMember@EdbEDATrackSet@@QAE_NPAVEdbTrackP@@@Z
	?FindUpstreamPlate@EdbEDATrackSet@@QAEHXZ
	?FindDownstreamPlate@EdbEDATrackSet@@QAEHXZ
	?SetID@EdbEDATrackSet@@QAEXVEdbID@@@Z
	?GetID@EdbEDATrackSet@@QAEAAVEdbID@@XZ
	?SetScanSet@EdbEDATrackSet@@QAEXPAVEdbScanSet@@@Z
	?GetScanSet@EdbEDATrackSet@@QAEPAVEdbScanSet@@XZ
	?SetDataSet@EdbEDATrackSet@@QAEXPAVEdbDataSet@@@Z
	?GetDataSet@EdbEDATrackSet@@QAEPAVEdbDataSet@@XZ
	?AddComment@EdbEDATrackSet@@QAEXPAVEdbTrackP@@PAD@Z
	?ClearComments@EdbEDATrackSet@@QAEXXZ
	?GetComment@EdbEDATrackSet@@QAEPBDPAVEdbTrackP@@@Z
	?DoSelection@EdbEDATrackSet@@QAEXXZ
	?SetTracksVertex@EdbEDATrackSet@@QAEXPAVEdbVertex@@_N@Z
	?SetTracksVertices@EdbEDATrackSet@@QAEXPAVTObjArray@@_N@Z
	?SetExtendMode@EdbEDATrackSet@@QAEXH@Z
	?GetExtendMode@EdbEDATrackSet@@QAEHXZ
	?SetInterpolation@EdbEDATrackSet@@QAEXH@Z
	?SetTrackAttribute@EdbEDATrackSet@@QAEXHHNHHNH@Z
	?GetTrackAttribute@EdbEDATrackSet@@QAEXPAH0PAN0010@Z
	?SetLayerLength@EdbEDATrackSet@@QAEXN@Z
	?ResetTrackAttribute@EdbEDATrackSet@@QAEXXZ
	?GetTrackWidth@EdbEDATrackSet@@QAEHPAVEdbSegP@@@Z
	?GetLayerColor@EdbEDATrackSet@@QAEHPAVEdbSegP@@@Z
	?GetLayerWidth@EdbEDATrackSet@@QAEHPAVEdbSegP@@@Z
	?GetLayerLength@EdbEDATrackSet@@QAENPAVEdbSegP@@@Z
	?SetTextAttribute@EdbEDATrackSet@@QAEXHHH@Z
	?GetTextColor@EdbEDATrackSet@@QAEHXZ
	?GetTextSize@EdbEDATrackSet@@QAEHXZ
	?GetTextFont@EdbEDATrackSet@@QAEHXZ
	?SetTextPosition@EdbEDATrackSet@@QAEXH@Z
	?GetTextPosition@EdbEDATrackSet@@QAEHXZ
	?SetDraw@EdbEDATrackSet@@QAEX_N@Z
	?GetDraw@EdbEDATrackSet@@QAE_NXZ
	?SetDrawMT@EdbEDATrackSet@@QAEX_N@Z
	?GetDrawMT@EdbEDATrackSet@@QAE_NXZ
	?SetDrawTrackID@EdbEDATrackSet@@QAEX_N@Z
	?SetDrawTrackAngle@EdbEDATrackSet@@QAEX_N@Z
	?SetDrawTrackIDG@EdbEDATrackSet@@QAEX_N@Z
	?SetDrawTrackAngleG@EdbEDATrackSet@@QAEX_N@Z
	?GetDrawTrackID@EdbEDATrackSet@@QAE_NXZ
	?GetDrawTrackAngle@EdbEDATrackSet@@QAE_NXZ
	?SetAreaSet@EdbEDATrackSet@@QAEXPAVEdbEDAAreaSet@@@Z
	?GetAreaSet@EdbEDATrackSet@@QAEPAVEdbEDAAreaSet@@XZ
	?SetDrawAreaSet@EdbEDATrackSet@@QAEX_N@Z
	?Class@EdbEDATrackSet@@SAPAVTClass@@XZ
	?Class_Name@EdbEDATrackSet@@SAPBDXZ
	?Class_Version@EdbEDATrackSet@@SAFXZ
	?Dictionary@EdbEDATrackSet@@SAXXZ
	?IsA@EdbEDATrackSet@@UBEPAVTClass@@XZ
	?ShowMembers@EdbEDATrackSet@@UAEXAAVTMemberInspector@@@Z
	?Streamer@EdbEDATrackSet@@UAEXAAVTBuffer@@@Z
	?StreamerNVirtual@EdbEDATrackSet@@QAEXAAVTBuffer@@@Z
	?DeclFileName@EdbEDATrackSet@@SAPBDXZ
	?ImplFileLine@EdbEDATrackSet@@SAHXZ
	?ImplFileName@EdbEDATrackSet@@SAPBDXZ
	?DeclFileLine@EdbEDATrackSet@@SAHXZ
	??1EdbEDATrackSet@@UAE@XZ
	??0EdbEDATrackSet@@QAE@AAV0@@Z
	??4EdbEDATrackSet@@QAEAAV0@ABV0@@Z
	?Select@EdbEDATrackSetTab@@QAEXH@Z
	?Enable@EdbEDATrackSetTab@@QAEX_N@Z
	?ToggleAuto@EdbEDATrackSetTab@@QAEX_N@Z
	??0EdbEDAMainTab@@QAE@XZ
	??1EdbEDAMainTab@@UAE@XZ
	?GetNsegCut@EdbEDAMainTab@@QAEHXZ
	?GetPHCut@EdbEDAMainTab@@QAENXZ
	?GetPHDTRMS@EdbEDAMainTab@@QAENXZ
	?GetTX@EdbEDAMainTab@@QAENXZ
	?GetTY@EdbEDAMainTab@@QAENXZ
	?GetDT@EdbEDAMainTab@@QAENXZ
	?Class@EdbEDAMainTab@@SAPAVTClass@@XZ
	?Class_Name@EdbEDAMainTab@@SAPBDXZ
	?Class_Version@EdbEDAMainTab@@SAFXZ
	?Dictionary@EdbEDAMainTab@@SAXXZ
	?IsA@EdbEDAMainTab@@UBEPAVTClass@@XZ
	?ShowMembers@EdbEDAMainTab@@UAEXAAVTMemberInspector@@@Z
	?Streamer@EdbEDAMainTab@@UAEXAAVTBuffer@@@Z
	?StreamerNVirtual@EdbEDAMainTab@@QAEXAAVTBuffer@@@Z
	?DeclFileName@EdbEDAMainTab@@SAPBDXZ
	?ImplFileLine@EdbEDAMainTab@@SAHXZ
	?ImplFileName@EdbEDAMainTab@@SAPBDXZ
	?DeclFileLine@EdbEDAMainTab@@SAHXZ
	??0EdbEDAMainTab@@QAE@ABV0@@Z
	??4EdbEDAMainTab@@QAEAAV0@ABV0@@Z
	??0EdbEDAListTab@@QAE@XZ
	??0EdbEDAVertexTab@@QAE@XZ
	?Class@EdbEDAVertexTab@@SAPAVTClass@@XZ
	?Class_Name@EdbEDAVertexTab@@SAPBDXZ
	?Class_Version@EdbEDAVertexTab@@SAFXZ
	?Dictionary@EdbEDAVertexTab@@SAXXZ
	?IsA@EdbEDAVertexTab@@UBEPAVTClass@@XZ
	?ShowMembers@EdbEDAVertexTab@@UAEXAAVTMemberInspector@@@Z
	?Streamer@EdbEDAVertexTab@@UAEXAAVTBuffer@@@Z
	?StreamerNVirtual@EdbEDAVertexTab@@QAEXAAVTBuffer@@@Z
	?DeclFileName@EdbEDAVertexTab@@SAPBDXZ
	?ImplFileLine@EdbEDAVertexTab@@SAHXZ
	?ImplFileName@EdbEDAVertexTab@@SAPBDXZ
	?DeclFileLine@EdbEDAVertexTab@@SAHXZ
	??1EdbEDAVertexTab@@UAE@XZ
	??0EdbEDAMCTab@@QAE@XZ
	??0EdbEDAPredTab@@QAE@XZ
	?Class@EdbEDATrackSetList@@SAPAVTClass@@XZ
	?Class_Name@EdbEDATrackSetList@@SAPBDXZ
	?Class_Version@EdbEDATrackSetList@@SAFXZ
	?Dictionary@EdbEDATrackSetList@@SAXXZ
	?IsA@EdbEDATrackSetList@@UBEPAVTClass@@XZ
	?ShowMembers@EdbEDATrackSetList@@UAEXAAVTMemberInspector@@@Z
	?Streamer@EdbEDATrackSetList@@UAEXAAVTBuffer@@@Z
	?StreamerNVirtual@EdbEDATrackSetList@@QAEXAAVTBuffer@@@Z
	?DeclFileName@EdbEDATrackSetList@@SAPBDXZ
	?ImplFileLine@EdbEDATrackSetList@@SAHXZ
	?ImplFileName@EdbEDATrackSetList@@SAPBDXZ
	?DeclFileLine@EdbEDATrackSetList@@SAHXZ
	??0EdbEDAPlotTab@@QAE@XZ
	?SetEffNbins@EdbEDAPlotTab@@QAEXHN@Z
	?SetEffMinSeg@EdbEDAPlotTab@@QAEXH@Z
	?CreateCanvas@EdbEDAPlotTab@@SAPAVTCanvas@@PAD@Z
	?SetMomAlgCoord@EdbEDAPlotTab@@QAEXXZ
	?SetMomAlgAngle@EdbEDAPlotTab@@QAEXXZ
	??1EdbEDAPlotTab@@QAE@XZ
	??0EdbEDATrackP@@QAE@XZ
	??0EdbEDATrackP@@QAE@PAVEdbTrackP@@@Z
	??0EdbEDATrackP@@QAE@PAVEdbTrackP@@PAVEdbVertex@@@Z
	?Init@EdbEDATrackP@@QAEXXZ
	?SetComment@EdbEDATrackP@@QAEXPAD@Z
	?Comment@EdbEDATrackP@@QAEPBDXZ
	?SetVertexUp@EdbEDATrackP@@QAEXPAVEdbVertex@@@Z
	?VertexUp@EdbEDATrackP@@QAEPAVEdbVertex@@XZ
	?SetVertexDown@EdbEDATrackP@@QAEXPAVEdbVertex@@@Z
	?VertexDown@EdbEDATrackP@@QAEPAVEdbVertex@@XZ
	?SetSegmentFirst@EdbEDATrackP@@QAEXPAVEdbSegP@@@Z
	?SegmentFirst@EdbEDATrackP@@QAEPAVEdbSegP@@XZ
	?AddFriend@EdbEDATrackP@@QAEXPAVEdbTrackP@@@Z
	?NFriends@EdbEDATrackP@@QAEHXZ
	?GetFriend@EdbEDATrackP@@QAEPAVEdbTrackP@@H@Z
	?GetFriends@EdbEDATrackP@@QAEPAVTObjArray@@XZ
	?AddDaughter@EdbEDATrackP@@QAEXPAVEdbTrackP@@@Z
	?NDaughters@EdbEDATrackP@@QAEHXZ
	?GetDaughter@EdbEDATrackP@@QAEPAVEdbTrackP@@H@Z
	?GetDaughters@EdbEDATrackP@@QAEPAVTObjArray@@XZ
	?SetFlagDS@EdbEDATrackP@@QAEXH@Z
	?FlagDS@EdbEDATrackP@@QAEHXZ
	?SetTrackSearch@EdbEDATrackP@@QAEXH@Z
	?TrackSearch@EdbEDATrackP@@QAEHXZ
	?SetFlagKink@EdbEDATrackP@@QAEXH@Z
	?FlagKink@EdbEDATrackP@@QAEHXZ
	?SetKinkPlate@EdbEDATrackP@@QAEXH@Z
	?KinkPlate@EdbEDATrackP@@QAEHXZ
	?SetParticle@EdbEDATrackP@@QAEXH@Z
	?Particle@EdbEDATrackP@@QAEHXZ
	?SetDarkness@EdbEDATrackP@@QAEXH@Z
	?Darkness@EdbEDATrackP@@QAEHXZ
	?SetCSTrack@EdbEDATrackP@@QAEXH@Z
	?CSTrack@EdbEDATrackP@@QAEHXZ
	?SetRun@EdbEDATrackP@@QAEXH@Z
	?Run@EdbEDATrackP@@QAEHXZ
	?SetClassification@EdbEDATrackP@@QAEXH@Z
	?Classification@EdbEDATrackP@@QAEHXZ
	?SetIPUp@EdbEDATrackP@@QAEXN@Z
	?SetIPDown@EdbEDATrackP@@QAEXN@Z
	?IPUp@EdbEDATrackP@@QAENXZ
	?IPDown@EdbEDATrackP@@QAENXZ
	?SetP@EdbEDATrackP@@QAEXNNN@Z
	?P@EdbEDATrackP@@QAENXZ
	?Pmin@EdbEDATrackP@@QAENXZ
	?Pmax@EdbEDATrackP@@QAENXZ
	?GetOriginal@EdbEDATrackP@@QAEPAVEdbTrackP@@XZ
	?GetTrack@EdbEDATrackP@@QAEPAVEdbTrackP@@XZ
	?Class@EdbEDATrackP@@SAPAVTClass@@XZ
	?Class_Name@EdbEDATrackP@@SAPBDXZ
	?Class_Version@EdbEDATrackP@@SAFXZ
	?Dictionary@EdbEDATrackP@@SAXXZ
	?IsA@EdbEDATrackP@@UBEPAVTClass@@XZ
	?ShowMembers@EdbEDATrackP@@UAEXAAVTMemberInspector@@@Z
	?Streamer@EdbEDATrackP@@UAEXAAVTBuffer@@@Z
	?StreamerNVirtual@EdbEDATrackP@@QAEXAAVTBuffer@@@Z
	?DeclFileName@EdbEDATrackP@@SAPBDXZ
	?ImplFileLine@EdbEDATrackP@@SAHXZ
	?ImplFileName@EdbEDATrackP@@SAPBDXZ
	?DeclFileLine@EdbEDATrackP@@SAHXZ
	??1EdbEDATrackP@@UAE@XZ
	??0EdbEDATrackP@@QAE@AAV0@@Z
	??4EdbEDATrackP@@QAEAAV0@ABV0@@Z
	??0EdbEDADecayVertex@@QAE@XZ
	?SetPartner@EdbEDADecayVertex@@QAEXPAVEdbEDATrackP@@@Z
	?SetPrimaryVertex@EdbEDADecayVertex@@QAEXPAVEdbVertex@@@Z
	?GetParent@EdbEDADecayVertex@@QAEPAVEdbTrackP@@XZ
	?GetDaughter@EdbEDADecayVertex@@QAEPAVEdbTrackP@@H@Z
	?GetPartner@EdbEDADecayVertex@@QAEPAVEdbTrackP@@XZ
	?NDaughters@EdbEDADecayVertex@@QAEHXZ
	?GetPrimaryVertex@EdbEDADecayVertex@@QAEPAVEdbVertex@@XZ
	?SetType@EdbEDADecayVertex@@QAEXH@Z
	?Type@EdbEDADecayVertex@@QAEHXZ
	?IsType@EdbEDADecayVertex@@QAE_NH@Z
	?IsShort@EdbEDADecayVertex@@QAE_NXZ
	?IsLong@EdbEDADecayVertex@@QAE_NXZ
	?IsSmallKink@EdbEDADecayVertex@@QAE_NXZ
	?Class@EdbEDADecayVertex@@SAPAVTClass@@XZ
	?Class_Name@EdbEDADecayVertex@@SAPBDXZ
	?Class_Version@EdbEDADecayVertex@@SAFXZ
	?Dictionary@EdbEDADecayVertex@@SAXXZ
	?IsA@EdbEDADecayVertex@@UBEPAVTClass@@XZ
	?ShowMembers@EdbEDADecayVertex@@UAEXAAVTMemberInspector@@@Z
	?Streamer@EdbEDADecayVertex@@UAEXAAVTBuffer@@@Z
	?StreamerNVirtual@EdbEDADecayVertex@@QAEXAAVTBuffer@@@Z
	?DeclFileName@EdbEDADecayVertex@@SAPBDXZ
	?ImplFileLine@EdbEDADecayVertex@@SAHXZ
	?ImplFileName@EdbEDADecayVertex@@SAPBDXZ
	?DeclFileLine@EdbEDADecayVertex@@SAHXZ
	?Track@EdbEDASmallKink@@QAEPAVEdbTrackP@@XZ
	?S1@EdbEDASmallKink@@QAEPAVEdbSegP@@XZ
	?S2@EdbEDASmallKink@@QAEPAVEdbSegP@@XZ
	?DTT@EdbEDASmallKink@@QAENXZ
	?DTL@EdbEDASmallKink@@QAENXZ
	?DXT@EdbEDASmallKink@@QAENXZ
	?DXL@EdbEDASmallKink@@QAENXZ
	?Ndau@EdbEDASmallKink@@QAEHXZ
	?P@EdbEDASmallKink@@QAENXZ
	?Pmin@EdbEDASmallKink@@QAENXZ
	?Pmax@EdbEDASmallKink@@QAENXZ
	?PT@EdbEDASmallKink@@QAENXZ
	?RMST@EdbEDASmallKink@@QAENXZ
	?RMSL@EdbEDASmallKink@@QAENXZ
	??0EdbEDASmallKink@@QAE@PAVEdbVertex@@PAVEdbTrackP@@PAVEdbSegP@@2NNNNHNNNNNN@Z
	?Class@EdbEDASmallKink@@SAPAVTClass@@XZ
	?Class_Name@EdbEDASmallKink@@SAPBDXZ
	?Class_Version@EdbEDASmallKink@@SAFXZ
	?Dictionary@EdbEDASmallKink@@SAXXZ
	?IsA@EdbEDASmallKink@@UBEPAVTClass@@XZ
	?ShowMembers@EdbEDASmallKink@@UAEXAAVTMemberInspector@@@Z
	?Streamer@EdbEDASmallKink@@UAEXAAVTBuffer@@@Z
	?StreamerNVirtual@EdbEDASmallKink@@QAEXAAVTBuffer@@@Z
	?DeclFileName@EdbEDASmallKink@@SAPBDXZ
	?ImplFileLine@EdbEDASmallKink@@SAHXZ
	?ImplFileName@EdbEDASmallKink@@SAPBDXZ
	?DeclFileLine@EdbEDASmallKink@@SAHXZ
	??1EdbEDASmallKink@@UAE@XZ
	??0EdbEDADecaySearch@@QAE@H@Z
	??1EdbEDADecaySearch@@UAE@XZ
	?GetPrimaryVertex@EdbEDADecaySearch@@QAEPAVEdbVertex@@XZ
	?FindTrack@EdbEDADecaySearch@@QAEPAVEdbEDATrackP@@PAVEdbTrackP@@@Z
	?Ntracks@EdbEDADecaySearch@@QAEHXZ
	?GetTrack@EdbEDADecaySearch@@QAEPAVEdbEDATrackP@@H@Z
	?NDecayVertices@EdbEDADecaySearch@@QAEHXZ
	?GetDecayVertex@EdbEDADecaySearch@@QAEPAVEdbEDADecayVertex@@H@Z
	?SetPVR@EdbEDADecaySearch@@QAEXPAVEdbPVRec@@@Z
	?GetPVR@EdbEDADecaySearch@@QAEPAVEdbPVRec@@XZ
	?SetTrackSet@EdbEDADecaySearch@@QAEXPAVEdbEDATrackSet@@@Z
	?GetTrackSet@EdbEDADecaySearch@@QAEPAVEdbEDATrackSet@@XZ
	?SetIPHist1@EdbEDADecaySearch@@QAEXPAVTH1F@@@Z
	?SetIPHist2@EdbEDADecaySearch@@QAEXPAVTH1F@@@Z
	?SetTracks@EdbEDADecaySearch@@QAEXPAVTObjArray@@@Z
	?CheckInTrackKinks@EdbEDADecaySearch@@QAEPAVTObjArray@@PAV2@@Z
	?GetKinks@EdbEDADecaySearch@@QAEPAVTObjArray@@XZ
	?SetBTSearch@EdbEDADecaySearch@@QAEXHHHMM@Z
	?SetParentSearch@EdbEDADecaySearch@@QAEXHHMM@Z
	?SetSmallKinkSearch@EdbEDADecaySearch@@QAEXHHM@Z
	?PrintRunTracking@EdbEDADecaySearch@@QAEXXZ
	?Class@EdbEDADecaySearch@@SAPAVTClass@@XZ
	?Class_Name@EdbEDADecaySearch@@SAPBDXZ
	?Class_Version@EdbEDADecaySearch@@SAFXZ
	?Dictionary@EdbEDADecaySearch@@SAXXZ
	?IsA@EdbEDADecaySearch@@UBEPAVTClass@@XZ
	?ShowMembers@EdbEDADecaySearch@@UAEXAAVTMemberInspector@@@Z
	?Streamer@EdbEDADecaySearch@@UAEXAAVTBuffer@@@Z
	?StreamerNVirtual@EdbEDADecaySearch@@QAEXAAVTBuffer@@@Z
	?DeclFileName@EdbEDADecaySearch@@SAPBDXZ
	?ImplFileLine@EdbEDADecaySearch@@SAHXZ
	?ImplFileName@EdbEDADecaySearch@@SAPBDXZ
	?DeclFileLine@EdbEDADecaySearch@@SAHXZ
	??0EdbEDADecaySearch@@QAE@ABV0@@Z
	??4EdbEDADecaySearch@@QAEAAV0@ABV0@@Z
	??_FEdbEDADecaySearch@@QAEXXZ
	??0EdbEDADecaySearchTab@@QAE@H@Z
	??1EdbEDADecaySearchTab@@UAE@XZ
	?Button3@EdbEDADecaySearchTab@@QAEXXZ
	?Class@EdbEDADecaySearchTab@@SAPAVTClass@@XZ
	?Class_Name@EdbEDADecaySearchTab@@SAPBDXZ
	?Class_Version@EdbEDADecaySearchTab@@SAFXZ
	?Dictionary@EdbEDADecaySearchTab@@SAXXZ
	?IsA@EdbEDADecaySearchTab@@UBEPAVTClass@@XZ
	?ShowMembers@EdbEDADecaySearchTab@@UAEXAAVTMemberInspector@@@Z
	?Streamer@EdbEDADecaySearchTab@@UAEXAAVTBuffer@@@Z
	?StreamerNVirtual@EdbEDADecaySearchTab@@QAEXAAVTBuffer@@@Z
	?DeclFileName@EdbEDADecaySearchTab@@SAPBDXZ
	?ImplFileLine@EdbEDADecaySearchTab@@SAHXZ
	?ImplFileName@EdbEDADecaySearchTab@@SAPBDXZ
	?DeclFileLine@EdbEDADecaySearchTab@@SAHXZ
	??0EdbEDADecaySearchTab@@QAE@ABV0@@Z
	??4EdbEDADecaySearchTab@@QAEAAV0@ABV0@@Z
	??_FEdbEDADecaySearchTab@@QAEXXZ
	??1EdbEDAFeedbackEntryT@@UAE@XZ
	?Class@EdbEDAFeedbackEntryT@@SAPAVTClass@@XZ
	?Class_Name@EdbEDAFeedbackEntryT@@SAPBDXZ
	?Class_Version@EdbEDAFeedbackEntryT@@SAFXZ
	?Dictionary@EdbEDAFeedbackEntryT@@SAXXZ
	?IsA@EdbEDAFeedbackEntryT@@UBEPAVTClass@@XZ
	?ShowMembers@EdbEDAFeedbackEntryT@@UAEXAAVTMemberInspector@@@Z
	?Streamer@EdbEDAFeedbackEntryT@@UAEXAAVTBuffer@@@Z
	?StreamerNVirtual@EdbEDAFeedbackEntryT@@QAEXAAVTBuffer@@@Z
	?DeclFileName@EdbEDAFeedbackEntryT@@SAPBDXZ
	?ImplFileLine@EdbEDAFeedbackEntryT@@SAHXZ
	?ImplFileName@EdbEDAFeedbackEntryT@@SAPBDXZ
	?DeclFileLine@EdbEDAFeedbackEntryT@@SAHXZ
	??0EdbEDAFeedbackEntryT@@QAE@ABV0@@Z
	??4EdbEDAFeedbackEntryT@@QAEAAV0@ABV0@@Z
	??1EdbEDAFeedbackEntryV@@UAE@XZ
	?Class@EdbEDAFeedbackEntryV@@SAPAVTClass@@XZ
	?Class_Name@EdbEDAFeedbackEntryV@@SAPBDXZ
	?Class_Version@EdbEDAFeedbackEntryV@@SAFXZ
	?Dictionary@EdbEDAFeedbackEntryV@@SAXXZ
	?IsA@EdbEDAFeedbackEntryV@@UBEPAVTClass@@XZ
	?ShowMembers@EdbEDAFeedbackEntryV@@UAEXAAVTMemberInspector@@@Z
	?Streamer@EdbEDAFeedbackEntryV@@UAEXAAVTBuffer@@@Z
	?StreamerNVirtual@EdbEDAFeedbackEntryV@@QAEXAAVTBuffer@@@Z
	?DeclFileName@EdbEDAFeedbackEntryV@@SAPBDXZ
	?ImplFileLine@EdbEDAFeedbackEntryV@@SAHXZ
	?ImplFileName@EdbEDAFeedbackEntryV@@SAPBDXZ
	?DeclFileLine@EdbEDAFeedbackEntryV@@SAHXZ
	??0EdbEDAFeedbackEntryV@@QAE@ABV0@@Z
	??4EdbEDAFeedbackEntryV@@QAEAAV0@ABV0@@Z
	??$?6U?$char_traits@D@std@@@std@@YAAAV?$basic_ostream@DU?$char_traits@D@std@@@0@AAV10@PBD@Z
	??$endl@DU?$char_traits@D@std@@@std@@YAAAV?$basic_ostream@DU?$char_traits@D@std@@@0@AAV10@@Z
	?SetInBTFromLinkedTracks@EdbEDAShowerTab@@QAEXXZ
	?PrintShowerRecInBT@EdbEDAShowerTab@@QAEXXZ
	?PrintShowerRecRecoShowerArray@EdbEDAShowerTab@@QAEXXZ
	?PrintShowerRecParameters@EdbEDAShowerTab@@QAEXXZ
	?ResetShowerRecParameters@EdbEDAShowerTab@@QAEXXZ
	?Button1@EdbEDAShowerTab@@QAEXXZ
	?Button2@EdbEDAShowerTab@@QAEXXZ
	?Button3@EdbEDAShowerTab@@QAEXXZ
	?CreateCanvas@EdbEDAShowerTab@@QAEPAVTCanvas@@PAD@Z
	?Class@EdbEDAShowerTab@@SAPAVTClass@@XZ
	?Class_Name@EdbEDAShowerTab@@SAPBDXZ
	?Class_Version@EdbEDAShowerTab@@SAFXZ
	?Dictionary@EdbEDAShowerTab@@SAXXZ
	?IsA@EdbEDAShowerTab@@UBEPAVTClass@@XZ
	?ShowMembers@EdbEDAShowerTab@@UAEXAAVTMemberInspector@@@Z
	?Streamer@EdbEDAShowerTab@@UAEXAAVTBuffer@@@Z
	?StreamerNVirtual@EdbEDAShowerTab@@QAEXAAVTBuffer@@@Z
	?DeclFileName@EdbEDAShowerTab@@SAPBDXZ
	?ImplFileLine@EdbEDAShowerTab@@SAHXZ
	?ImplFileName@EdbEDAShowerTab@@SAPBDXZ
	?DeclFileLine@EdbEDAShowerTab@@SAHXZ
	??0EdbEDAShowerTab@@QAE@ABV0@@Z
	??4EdbEDAShowerTab@@QAEAAV0@ABV0@@Z
	??0EdbEDAObject@@QAE@XZ
	??1EdbEDAObject@@UAE@XZ
	?Draw@EdbEDAObject@@UAEXPBD@Z
	?SetColorMode@EdbEDAObject@@UAEXH@Z
	?SetReference@EdbEDAObject@@QAEXPAX@Z
	?GetReference@EdbEDAObject@@QAEPAXXZ
	?GetDraw@EdbEDAObject@@QAE_NXZ
	?SetDraw@EdbEDAObject@@QAEX_N@Z
	?Class@EdbEDAObject@@SAPAVTClass@@XZ
	?Class_Name@EdbEDAObject@@SAPBDXZ
	?Class_Version@EdbEDAObject@@SAFXZ
	?Dictionary@EdbEDAObject@@SAXXZ
	?IsA@EdbEDAObject@@UBEPAVTClass@@XZ
	?ShowMembers@EdbEDAObject@@UAEXAAVTMemberInspector@@@Z
	?Streamer@EdbEDAObject@@UAEXAAVTBuffer@@@Z
	?StreamerNVirtual@EdbEDAObject@@QAEXAAVTBuffer@@@Z
	?DeclFileName@EdbEDAObject@@SAPBDXZ
	?ImplFileLine@EdbEDAObject@@SAHXZ
	?ImplFileName@EdbEDAObject@@SAPBDXZ
	?DeclFileLine@EdbEDAObject@@SAHXZ
	??0EdbEDAObject@@QAE@ABV0@@Z
	??4EdbEDAObject@@QAEAAV0@ABV0@@Z
	??0EdbEDAText@@QAE@MMMVTString@@H@Z
	??1EdbEDAText@@UAE@XZ
	?SetAttribute@EdbEDAText@@QAEXHHH@Z
	?SetColorMode@EdbEDAText@@UAEXH@Z
	?GetTextColor@EdbEDAText@@QAEHXZ
	?GetTextSize@EdbEDAText@@QAEHXZ
	?GetTextFont@EdbEDAText@@QAEHXZ
	?SetXYZ@EdbEDAText@@QAEXMMM@Z
	?SetText@EdbEDAText@@QAEXVTString@@@Z
	?AddText@EdbEDAText@@QAEXVTString@@@Z
	?N@EdbEDAText@@QAEHXZ
	?Class@EdbEDAText@@SAPAVTClass@@XZ
	?Class_Name@EdbEDAText@@SAPBDXZ
	?Class_Version@EdbEDAText@@SAFXZ
	?Dictionary@EdbEDAText@@SAXXZ
	?IsA@EdbEDAText@@UBEPAVTClass@@XZ
	?ShowMembers@EdbEDAText@@UAEXAAVTMemberInspector@@@Z
	?Streamer@EdbEDAText@@UAEXAAVTBuffer@@@Z
	?StreamerNVirtual@EdbEDAText@@QAEXAAVTBuffer@@@Z
	?DeclFileName@EdbEDAText@@SAPBDXZ
	?ImplFileLine@EdbEDAText@@SAHXZ
	?ImplFileName@EdbEDAText@@SAPBDXZ
	?DeclFileLine@EdbEDAText@@SAHXZ
	??0EdbEDAText@@QAE@ABV0@@Z
	??4EdbEDAText@@QAEAAV0@ABV0@@Z
	??0EdbEDALine@@QAE@MMMMMMHHPAD@Z
	??0EdbEDALine@@QAE@HHPAD@Z
	??1EdbEDALine@@UAE@XZ
	?SetPoint1@EdbEDALine@@QAEXMMM@Z
	?SetPoint2@EdbEDALine@@QAEXMMM@Z
	?Class@EdbEDALine@@SAPAVTClass@@XZ
	?Class_Name@EdbEDALine@@SAPBDXZ
	?Class_Version@EdbEDALine@@SAFXZ
	?Dictionary@EdbEDALine@@SAXXZ
	?IsA@EdbEDALine@@UBEPAVTClass@@XZ
	?ShowMembers@EdbEDALine@@UAEXAAVTMemberInspector@@@Z
	?Streamer@EdbEDALine@@UAEXAAVTBuffer@@@Z
	?StreamerNVirtual@EdbEDALine@@QAEXAAVTBuffer@@@Z
	?DeclFileName@EdbEDALine@@SAPBDXZ
	?ImplFileLine@EdbEDALine@@SAHXZ
	?ImplFileName@EdbEDALine@@SAPBDXZ
	?DeclFileLine@EdbEDALine@@SAHXZ
	??0EdbEDALine@@QAE@ABV0@@Z
	??4EdbEDALine@@QAEAAV0@ABV0@@Z
	??1EdbEDAOverlay@@UAE@XZ
	?SetDraw@EdbEDAOverlay@@QAEX_N@Z
	?Class@EdbEDAOverlay@@SAPAVTClass@@XZ
	?Class_Name@EdbEDAOverlay@@SAPBDXZ
	?Class_Version@EdbEDAOverlay@@SAFXZ
	?Dictionary@EdbEDAOverlay@@SAXXZ
	?IsA@EdbEDAOverlay@@UBEPAVTClass@@XZ
	?ShowMembers@EdbEDAOverlay@@UAEXAAVTMemberInspector@@@Z
	?Streamer@EdbEDAOverlay@@UAEXAAVTBuffer@@@Z
	?StreamerNVirtual@EdbEDAOverlay@@QAEXAAVTBuffer@@@Z
	?DeclFileName@EdbEDAOverlay@@SAPBDXZ
	?ImplFileLine@EdbEDAOverlay@@SAHXZ
	?ImplFileName@EdbEDAOverlay@@SAPBDXZ
	?DeclFileLine@EdbEDAOverlay@@SAHXZ
	??0EdbEDACamera@@QAE@XZ
	??1EdbEDACamera@@UAE@XZ
	?SetOverlay@EdbEDACamera@@QAEPAVEdbEDAOverlay@@XZ
	?GetOverlay@EdbEDACamera@@QAEPAVEdbEDAOverlay@@XZ
	?Class@EdbEDACamera@@SAPAVTClass@@XZ
	?Class_Name@EdbEDACamera@@SAPBDXZ
	?Class_Version@EdbEDACamera@@SAFXZ
	?Dictionary@EdbEDACamera@@SAXXZ
	?IsA@EdbEDACamera@@UBEPAVTClass@@XZ
	?ShowMembers@EdbEDACamera@@UAEXAAVTMemberInspector@@@Z
	?Streamer@EdbEDACamera@@UAEXAAVTBuffer@@@Z
	?StreamerNVirtual@EdbEDACamera@@QAEXAAVTBuffer@@@Z
	?DeclFileName@EdbEDACamera@@SAPBDXZ
	?ImplFileLine@EdbEDACamera@@SAHXZ
	?ImplFileName@EdbEDACamera@@SAPBDXZ
	?DeclFileLine@EdbEDACamera@@SAHXZ
	??0EdbEDACamera@@QAE@ABV0@@Z
	??4EdbEDACamera@@QAEAAV0@ABV0@@Z
	??0EdbEDAIO@@QAE@XZ
	??1EdbEDAIO@@UAE@XZ
	?Class@EdbEDAIO@@SAPAVTClass@@XZ
	?Class_Name@EdbEDAIO@@SAPBDXZ
	?Class_Version@EdbEDAIO@@SAFXZ
	?Dictionary@EdbEDAIO@@SAXXZ
	?IsA@EdbEDAIO@@UBEPAVTClass@@XZ
	?ShowMembers@EdbEDAIO@@UAEXAAVTMemberInspector@@@Z
	?Streamer@EdbEDAIO@@UAEXAAVTBuffer@@@Z
	?StreamerNVirtual@EdbEDAIO@@QAEXAAVTBuffer@@@Z
	?DeclFileName@EdbEDAIO@@SAPBDXZ
	?ImplFileLine@EdbEDAIO@@SAHXZ
	?ImplFileName@EdbEDAIO@@SAPBDXZ
	?DeclFileLine@EdbEDAIO@@SAHXZ
	??0EdbEDAIO@@QAE@ABV0@@Z
	??4EdbEDAIO@@QAEAAV0@ABV0@@Z
	??0EdbEDABrickData@@QAE@XZ
	??1EdbEDABrickData@@UAE@XZ
	?SetIDSF@EdbEDABrickData@@QAEXVEdbID@@@Z
	?SetIDSB@EdbEDABrickData@@QAEXVEdbID@@@Z
	?SetID@EdbEDABrickData@@QAEXVEdbID@@@Z
	?GetID@EdbEDABrickData@@QAE?AVEdbID@@XZ
	?SetScanSet@EdbEDABrickData@@QAEXPAVEdbScanSet@@@Z
	?GetScanSet@EdbEDABrickData@@QAEPAVEdbScanSet@@XZ
	?SetPVR@EdbEDABrickData@@QAEXPAVEdbPVRec@@@Z
	?GetPVR@EdbEDABrickData@@QAEPAVEdbPVRec@@XZ
	?SetBrick@EdbEDABrickData@@QAEXH@Z
	?GetBrick@EdbEDABrickData@@QAEHXZ
	?GetDataType@EdbEDABrickData@@QAEHXZ
	?SetDataType@EdbEDABrickData@@QAEXH@Z
	?GetPlateUp@EdbEDABrickData@@QAEHXZ
	?GetPlateDown@EdbEDABrickData@@QAEHXZ
	?GetFirstPlate@EdbEDABrickData@@QAEHXZ
	?GetLastPlate@EdbEDABrickData@@QAEHXZ
	?GetDataSet@EdbEDABrickData@@QAEPAVEdbDataSet@@XZ
	?GetNPL@EdbEDABrickData@@QAEHXZ
	?GetIPL@EdbEDABrickData@@QAEHH@Z
	?GetIPLZ@EdbEDABrickData@@QAEHM@Z
	?GetPID@EdbEDABrickData@@QAEHH@Z
	?GetZ@EdbEDABrickData@@QAENH@Z
	?GetZPID@EdbEDABrickData@@QAENH@Z
	?SetBeamAngle@EdbEDABrickData@@QAEXNN@Z
	?GetBeamTX@EdbEDABrickData@@QAENXZ
	?GetBeamTY@EdbEDABrickData@@QAENXZ
	?Class@EdbEDABrickData@@SAPAVTClass@@XZ
	?Class_Name@EdbEDABrickData@@SAPBDXZ
	?Class_Version@EdbEDABrickData@@SAFXZ
	?Dictionary@EdbEDABrickData@@SAXXZ
	?IsA@EdbEDABrickData@@UBEPAVTClass@@XZ
	?ShowMembers@EdbEDABrickData@@UAEXAAVTMemberInspector@@@Z
	?Streamer@EdbEDABrickData@@UAEXAAVTBuffer@@@Z
	?StreamerNVirtual@EdbEDABrickData@@QAEXAAVTBuffer@@@Z
	?DeclFileName@EdbEDABrickData@@SAPBDXZ
	?ImplFileLine@EdbEDABrickData@@SAHXZ
	?ImplFileName@EdbEDABrickData@@SAPBDXZ
	?DeclFileLine@EdbEDABrickData@@SAHXZ
	??0EdbEDABrickData@@QAE@ABV0@@Z
	??4EdbEDABrickData@@QAEAAV0@ABV0@@Z
	??0EdbEDASelection@@QAE@XZ
	??1EdbEDASelection@@UAE@XZ
	?InitSelection@EdbEDASelection@@QAEXPAVTEveSelection@@@Z
	?ClearSelected@EdbEDASelection@@QAEXXZ
	?GetSelected@EdbEDASelection@@QAEPAVTObjArray@@XZ
	?GetSelected@EdbEDASelection@@QAEPAVEdbSegP@@H@Z
	?SetSelectedTracks@EdbEDASelection@@QAEXPAVTObjArray@@@Z
	?GetSelectedElement@EdbEDASelection@@QAEPAVTEveElement@@XZ
	?GetSelectedTracks@EdbEDASelection@@QAEPAVTObjArray@@XZ
	?NSelectedTracks@EdbEDASelection@@QAEHXZ
	?NSelected@EdbEDASelection@@QAEHXZ
	?GetSelectedTrack@EdbEDASelection@@QAEPAVEdbTrackP@@H@Z
	?GetSelectedTrack@EdbEDASelection@@QAEPAVEdbTrackP@@PAVEdbSegP@@@Z
	?GetSelectedSegment@EdbEDASelection@@QAEPAVEdbSegP@@H@Z
	?GetSelectedVertex@EdbEDASelection@@QAEPAVEdbVertex@@XZ
	?SetSelectedVertex@EdbEDASelection@@QAEXPAVEdbVertex@@@Z
	?ClearSelectedVertex@EdbEDASelection@@QAEXXZ
	?Disable@EdbEDASelection@@QAEHH@Z
	?Enable@EdbEDASelection@@QAEHH@Z
	?Class@EdbEDASelection@@SAPAVTClass@@XZ
	?Class_Name@EdbEDASelection@@SAPBDXZ
	?Class_Version@EdbEDASelection@@SAFXZ
	?Dictionary@EdbEDASelection@@SAXXZ
	?IsA@EdbEDASelection@@UBEPAVTClass@@XZ
	?ShowMembers@EdbEDASelection@@UAEXAAVTMemberInspector@@@Z
	?Streamer@EdbEDASelection@@UAEXAAVTBuffer@@@Z
	?StreamerNVirtual@EdbEDASelection@@QAEXAAVTBuffer@@@Z
	?DeclFileName@EdbEDASelection@@SAPBDXZ
	?ImplFileLine@EdbEDASelection@@SAHXZ
	?ImplFileName@EdbEDASelection@@SAPBDXZ
	?DeclFileLine@EdbEDASelection@@SAHXZ
	??0EdbEDASelection@@QAE@ABV0@@Z
	??4EdbEDASelection@@QAEAAV0@ABV0@@Z
	??0EdbEDA@@QAE@PADHVTCut@@_N@Z
	??0EdbEDA@@QAE@VEdbID@@PAD@Z
	??0EdbEDA@@QAE@PAVEdbScanSet@@PAD@Z
	??0EdbEDA@@QAE@PAVEdbDataProc@@@Z
	??0EdbEDA@@QAE@PAVEdbPVRec@@_N@Z
	?ScanProc@EdbEDA@@QAEPAVEdbScanProc@@XZ
	?AddTrackSet@EdbEDA@@QAEPAVEdbEDATrackSet@@PAD@Z
	?AddDrawObject@EdbEDA@@QAEXPAVEdbEDAObject@@@Z
	?RemoveDrawObject@EdbEDA@@QAEXPAVTObject@@@Z
	?ClearDrawObjects@EdbEDA@@QAEXXZ
	?NDrawObjects@EdbEDA@@QAEHXZ
	?GetDrawObject@EdbEDA@@QAEPAVEdbEDAObject@@H@Z
	?GetCurrentTracks@EdbEDA@@QAEPAVTObjArray@@XZ
	?GetTrack@EdbEDA@@QAEPAVEdbTrackP@@PAVEdbSegP@@@Z
	?GetEveElement@EdbEDA@@QAEPAVTEveElement@@PAVTObject@@@Z
	?NTrackSets@EdbEDA@@QAEHXZ
	?GetTrackSet@EdbEDA@@QAEPAVEdbEDATrackSet@@H@Z
	?GetTrackSet@EdbEDA@@QAEPAVEdbEDATrackSet@@PAD@Z
	?GetTrackSet@EdbEDA@@QAEPAVEdbEDATrackSet@@PAVEdbTrackP@@@Z
	?GetTrackSet@EdbEDA@@QAEPAVEdbEDATrackSet@@AAVEdbID@@@Z
	?CreateTrackSet@EdbEDA@@QAEPAVEdbEDATrackSet@@PAD@Z
	?GetTrackSets@EdbEDA@@QAEPAVTObjArray@@XZ
	?RemoveTrackBase@EdbEDA@@QAEXPAVEdbTrackP@@@Z
	?RemoveTrack@EdbEDA@@QAEXPAVEdbTrackP@@@Z
	?RemoveSelected@EdbEDA@@QAEXXZ
	?SetOnlySelected@EdbEDA@@QAEXXZ
	?GetVertexSet@EdbEDA@@QAEPAVEdbEDAVertexSet@@XZ
	?AddVertex@EdbEDA@@QAEXPAVEdbVertex@@@Z
	?GetVertices@EdbEDA@@QAEPAVTObjArray@@XZ
	?ClearVertices@EdbEDA@@QAEXXZ
	?DrawVertices@EdbEDA@@QAEXH@Z
	?SetBrick@EdbEDA@@QAEXH@Z
	?SetDrawTrackID@EdbEDA@@QAEX_N@Z
	?SetDrawTrackAngle@EdbEDA@@QAEX_N@Z
	?SetDrawAreaSet@EdbEDA@@QAEX_N@Z
	?Redraw@EdbEDA@@QAEXXZ
	?UpdateScene@EdbEDA@@QAEXXZ
	?Reset@EdbEDA@@QAEXXZ
	?StorePrevious@EdbEDA@@QAEXXZ
	?RestorePrevious@EdbEDA@@QAEXXZ
	?GetExtentionSet@EdbEDA@@QAEPAVEdbEDAExtentionSet@@XZ
	?SetColorMode@EdbEDA@@QAEXH@Z
	?SetLayerLength@EdbEDA@@QAEXN@Z
	?GetMainTab@EdbEDA@@QAEPAVEdbEDAMainTab@@XZ
	?GetTrackSetTab@EdbEDA@@QAEPAVEdbEDATrackSetTab@@XZ
	?GetPlotTab@EdbEDA@@QAEPAVEdbEDAPlotTab@@XZ
	?GetVertexTab@EdbEDA@@QAEPAVEdbEDAVertexTab@@XZ
	?GetOperationTab@EdbEDA@@QAEPAVEdbEDAOperationTab@@XZ
	?GetDSTab@EdbEDA@@QAEPAVEdbEDADecaySearchTab@@XZ
	?CheckScanback@EdbEDA@@QAEPAVEdbTrackP@@PAV2@@Z
	?GetScaleZ@EdbEDA@@QAENXZ
	?SetScaleZ@EdbEDA@@QAEXN@Z
	?Japanese@EdbEDA@@QAE_NXZ
	?SetJapanese@EdbEDA@@QAEX_N@Z
	?Class@EdbEDA@@SAPAVTClass@@XZ
	?Class_Name@EdbEDA@@SAPBDXZ
	?Class_Version@EdbEDA@@SAFXZ
	?Dictionary@EdbEDA@@SAXXZ
	?IsA@EdbEDA@@UBEPAVTClass@@XZ
	?ShowMembers@EdbEDA@@UAEXAAVTMemberInspector@@@Z
	?Streamer@EdbEDA@@UAEXAAVTBuffer@@@Z
	?StreamerNVirtual@EdbEDA@@QAEXAAVTBuffer@@@Z
	?DeclFileName@EdbEDA@@SAPBDXZ
	?ImplFileLine@EdbEDA@@SAHXZ
	?ImplFileName@EdbEDA@@SAPBDXZ
	?DeclFileLine@EdbEDA@@SAHXZ
	??1EdbEDA@@UAE@XZ
	??0EdbEDA@@QAE@ABV0@@Z
	??4EdbEDA@@QAEAAV0@ABV0@@Z
	??_FEdbEDA@@QAEXXZ
	??2@YAPAXIPAVTOperatorNewHelper@ROOT@@@Z
	??3@YAXPAXPAVTOperatorNewHelper@ROOT@@@Z
	??1TVirtualIsAProxy@@UAE@XZ
	??0TVirtualIsAProxy@@QAE@XZ
	??0DictInit@?A0x8a6cf1ac@@QAE@XZ
	??__Finstance@?1??GenerateInitInstance@ROOTDict@EdbEDAUtil@@YAPAVTGenericClassInfo@ROOT@@XZ@YAXXZ
	??0?$TInstrumentedIsAProxy@VEdbIDDialog@@@@QAE@PAVTClass@@@Z
	??1?$TInstrumentedIsAProxy@VEdbIDDialog@@@@UAE@XZ
	?SetClass@?$TInstrumentedIsAProxy@VEdbIDDialog@@@@UAEXPAVTClass@@@Z
	??R?$TInstrumentedIsAProxy@VEdbIDDialog@@@@UAEPAVTClass@@PBX@Z
	?GenerateInitInstance@ROOTDict@@YAPAVTGenericClassInfo@ROOT@@PBVEdbIDDialog@@@Z
	??0?$TInstrumentedIsAProxy@VEdbEDAArea@@@@QAE@PAVTClass@@@Z
	??1?$TInstrumentedIsAProxy@VEdbEDAArea@@@@UAE@XZ
	?SetClass@?$TInstrumentedIsAProxy@VEdbEDAArea@@@@UAEXPAVTClass@@@Z
	??R?$TInstrumentedIsAProxy@VEdbEDAArea@@@@UAEPAVTClass@@PBX@Z
	?GenerateInitInstance@ROOTDict@@YAPAVTGenericClassInfo@ROOT@@PBVEdbEDAArea@@@Z
	??0?$TInstrumentedIsAProxy@VEdbEDAAreaSet@@@@QAE@PAVTClass@@@Z
	??1?$TInstrumentedIsAProxy@VEdbEDAAreaSet@@@@UAE@XZ
	?SetClass@?$TInstrumentedIsAProxy@VEdbEDAAreaSet@@@@UAEXPAVTClass@@@Z
	??R?$TInstrumentedIsAProxy@VEdbEDAAreaSet@@@@UAEPAVTClass@@PBX@Z
	?GenerateInitInstance@ROOTDict@@YAPAVTGenericClassInfo@ROOT@@PBVEdbEDAAreaSet@@@Z
	??0?$TInstrumentedIsAProxy@VEdbEDAVertexSet@@@@QAE@PAVTClass@@@Z
	??1?$TInstrumentedIsAProxy@VEdbEDAVertexSet@@@@UAE@XZ
	?SetClass@?$TInstrumentedIsAProxy@VEdbEDAVertexSet@@@@UAEXPAVTClass@@@Z
	??R?$TInstrumentedIsAProxy@VEdbEDAVertexSet@@@@UAEPAVTClass@@PBX@Z
	?GenerateInitInstance@ROOTDict@@YAPAVTGenericClassInfo@ROOT@@PBVEdbEDAVertexSet@@@Z
	??0?$TInstrumentedIsAProxy@VEdbEDAExtentionSet@@@@QAE@PAVTClass@@@Z
	??1?$TInstrumentedIsAProxy@VEdbEDAExtentionSet@@@@UAE@XZ
	?SetClass@?$TInstrumentedIsAProxy@VEdbEDAExtentionSet@@@@UAEXPAVTClass@@@Z
	??R?$TInstrumentedIsAProxy@VEdbEDAExtentionSet@@@@UAEPAVTClass@@PBX@Z
	?GenerateInitInstance@ROOTDict@@YAPAVTGenericClassInfo@ROOT@@PBVEdbEDAExtentionSet@@@Z
	??0?$TInstrumentedIsAProxy@VEdbEDATrackComment@@@@QAE@PAVTClass@@@Z
	??1?$TInstrumentedIsAProxy@VEdbEDATrackComment@@@@UAE@XZ
	?SetClass@?$TInstrumentedIsAProxy@VEdbEDATrackComment@@@@UAEXPAVTClass@@@Z
	??R?$TInstrumentedIsAProxy@VEdbEDATrackComment@@@@UAEPAVTClass@@PBX@Z
	?GenerateInitInstance@ROOTDict@@YAPAVTGenericClassInfo@ROOT@@PBVEdbEDATrackComment@@@Z
	??0?$TInstrumentedIsAProxy@VEdbEDATrackSelection@@@@QAE@PAVTClass@@@Z
	??1?$TInstrumentedIsAProxy@VEdbEDATrackSelection@@@@UAE@XZ
	?SetClass@?$TInstrumentedIsAProxy@VEdbEDATrackSelection@@@@UAEXPAVTClass@@@Z
	??R?$TInstrumentedIsAProxy@VEdbEDATrackSelection@@@@UAEPAVTClass@@PBX@Z
	?GenerateInitInstance@ROOTDict@@YAPAVTGenericClassInfo@ROOT@@PBVEdbEDATrackSelection@@@Z
	??0?$TInstrumentedIsAProxy@VEdbEDATrackSet@@@@QAE@PAVTClass@@@Z
	??1?$TInstrumentedIsAProxy@VEdbEDATrackSet@@@@UAE@XZ
	?SetClass@?$TInstrumentedIsAProxy@VEdbEDATrackSet@@@@UAEXPAVTClass@@@Z
	??R?$TInstrumentedIsAProxy@VEdbEDATrackSet@@@@UAEPAVTClass@@PBX@Z
	?GenerateInitInstance@ROOTDict@@YAPAVTGenericClassInfo@ROOT@@PBVEdbEDATrackSet@@@Z
	?GenerateInitInstance@ROOTDict@@YAPAVTGenericClassInfo@ROOT@@PBVEdbEDATrackSetTab@@@Z
	??0?$TInstrumentedIsAProxy@VEdbEDAMainTab@@@@QAE@PAVTClass@@@Z
	??1?$TInstrumentedIsAProxy@VEdbEDAMainTab@@@@UAE@XZ
	?SetClass@?$TInstrumentedIsAProxy@VEdbEDAMainTab@@@@UAEXPAVTClass@@@Z
	??R?$TInstrumentedIsAProxy@VEdbEDAMainTab@@@@UAEPAVTClass@@PBX@Z
	?GenerateInitInstance@ROOTDict@@YAPAVTGenericClassInfo@ROOT@@PBVEdbEDAMainTab@@@Z
	?GenerateInitInstance@ROOTDict@@YAPAVTGenericClassInfo@ROOT@@PBVEdbEDAListTab@@@Z
	??0?$TInstrumentedIsAProxy@VEdbEDAVertexTab@@@@QAE@PAVTClass@@@Z
	??1?$TInstrumentedIsAProxy@VEdbEDAVertexTab@@@@UAE@XZ
	?SetClass@?$TInstrumentedIsAProxy@VEdbEDAVertexTab@@@@UAEXPAVTClass@@@Z
	??R?$TInstrumentedIsAProxy@VEdbEDAVertexTab@@@@UAEPAVTClass@@PBX@Z
	?GenerateInitInstance@ROOTDict@@YAPAVTGenericClassInfo@ROOT@@PBVEdbEDAVertexTab@@@Z
	?GenerateInitInstance@ROOTDict@@YAPAVTGenericClassInfo@ROOT@@PBVEdbEDAMCTab@@@Z
	?GenerateInitInstance@ROOTDict@@YAPAVTGenericClassInfo@ROOT@@PBVEdbEDAPredTab@@@Z
	?GenerateInitInstance@ROOTDict@@YAPAVTGenericClassInfo@ROOT@@PBVEdbEDAOperationTab@@@Z
	??0?$TInstrumentedIsAProxy@VEdbEDATrackSetList@@@@QAE@PAVTClass@@@Z
	??1?$TInstrumentedIsAProxy@VEdbEDATrackSetList@@@@UAE@XZ
	?SetClass@?$TInstrumentedIsAProxy@VEdbEDATrackSetList@@@@UAEXPAVTClass@@@Z
	??R?$TInstrumentedIsAProxy@VEdbEDATrackSetList@@@@UAEPAVTClass@@PBX@Z
	?GenerateInitInstance@ROOTDict@@YAPAVTGenericClassInfo@ROOT@@PBVEdbEDATrackSetList@@@Z
	?GenerateInitInstance@ROOTDict@@YAPAVTGenericClassInfo@ROOT@@PBVEdbEDAPlotTab@@@Z
	??0?$TInstrumentedIsAProxy@VEdbEDATrackP@@@@QAE@PAVTClass@@@Z
	??1?$TInstrumentedIsAProxy@VEdbEDATrackP@@@@UAE@XZ
	?SetClass@?$TInstrumentedIsAProxy@VEdbEDATrackP@@@@UAEXPAVTClass@@@Z
	??R?$TInstrumentedIsAProxy@VEdbEDATrackP@@@@UAEPAVTClass@@PBX@Z
	?GenerateInitInstance@ROOTDict@@YAPAVTGenericClassInfo@ROOT@@PBVEdbEDATrackP@@@Z
	??0?$TInstrumentedIsAProxy@VEdbEDADecayVertex@@@@QAE@PAVTClass@@@Z
	??1?$TInstrumentedIsAProxy@VEdbEDADecayVertex@@@@UAE@XZ
	?SetClass@?$TInstrumentedIsAProxy@VEdbEDADecayVertex@@@@UAEXPAVTClass@@@Z
	??R?$TInstrumentedIsAProxy@VEdbEDADecayVertex@@@@UAEPAVTClass@@PBX@Z
	?GenerateInitInstance@ROOTDict@@YAPAVTGenericClassInfo@ROOT@@PBVEdbEDADecayVertex@@@Z
	??0?$TInstrumentedIsAProxy@VEdbEDASmallKink@@@@QAE@PAVTClass@@@Z
	??1?$TInstrumentedIsAProxy@VEdbEDASmallKink@@@@UAE@XZ
	?SetClass@?$TInstrumentedIsAProxy@VEdbEDASmallKink@@@@UAEXPAVTClass@@@Z
	??R?$TInstrumentedIsAProxy@VEdbEDASmallKink@@@@UAEPAVTClass@@PBX@Z
	?GenerateInitInstance@ROOTDict@@YAPAVTGenericClassInfo@ROOT@@PBVEdbEDASmallKink@@@Z
	??0?$TInstrumentedIsAProxy@VEdbEDADecaySearch@@@@QAE@PAVTClass@@@Z
	??1?$TInstrumentedIsAProxy@VEdbEDADecaySearch@@@@UAE@XZ
	?SetClass@?$TInstrumentedIsAProxy@VEdbEDADecaySearch@@@@UAEXPAVTClass@@@Z
	??R?$TInstrumentedIsAProxy@VEdbEDADecaySearch@@@@UAEPAVTClass@@PBX@Z
	?GenerateInitInstance@ROOTDict@@YAPAVTGenericClassInfo@ROOT@@PBVEdbEDADecaySearch@@@Z
	??0?$TInstrumentedIsAProxy@VEdbEDADecaySearchTab@@@@QAE@PAVTClass@@@Z
	??1?$TInstrumentedIsAProxy@VEdbEDADecaySearchTab@@@@UAE@XZ
	?SetClass@?$TInstrumentedIsAProxy@VEdbEDADecaySearchTab@@@@UAEXPAVTClass@@@Z
	??R?$TInstrumentedIsAProxy@VEdbEDADecaySearchTab@@@@UAEPAVTClass@@PBX@Z
	?GenerateInitInstance@ROOTDict@@YAPAVTGenericClassInfo@ROOT@@PBVEdbEDADecaySearchTab@@@Z
	??0?$TInstrumentedIsAProxy@VEdbEDAFeedbackEntryT@@@@QAE@PAVTClass@@@Z
	??1?$TInstrumentedIsAProxy@VEdbEDAFeedbackEntryT@@@@UAE@XZ
	?SetClass@?$TInstrumentedIsAProxy@VEdbEDAFeedbackEntryT@@@@UAEXPAVTClass@@@Z
	??R?$TInstrumentedIsAProxy@VEdbEDAFeedbackEntryT@@@@UAEPAVTClass@@PBX@Z
	?GenerateInitInstance@ROOTDict@@YAPAVTGenericClassInfo@ROOT@@PBVEdbEDAFeedbackEntryT@@@Z
	??0?$TInstrumentedIsAProxy@VEdbEDAFeedbackEntryV@@@@QAE@PAVTClass@@@Z
	??1?$TInstrumentedIsAProxy@VEdbEDAFeedbackEntryV@@@@UAE@XZ
	?SetClass@?$TInstrumentedIsAProxy@VEdbEDAFeedbackEntryV@@@@UAEXPAVTClass@@@Z
	??R?$TInstrumentedIsAProxy@VEdbEDAFeedbackEntryV@@@@UAEPAVTClass@@PBX@Z
	?GenerateInitInstance@ROOTDict@@YAPAVTGenericClassInfo@ROOT@@PBVEdbEDAFeedbackEntryV@@@Z
	?GenerateInitInstance@ROOTDict@@YAPAVTGenericClassInfo@ROOT@@PBVEdbEDAFeedbackEditor@@@Z
	??0?$TInstrumentedIsAProxy@VEdbEDAShowerTab@@@@QAE@PAVTClass@@@Z
	??1?$TInstrumentedIsAProxy@VEdbEDAShowerTab@@@@UAE@XZ
	?SetClass@?$TInstrumentedIsAProxy@VEdbEDAShowerTab@@@@UAEXPAVTClass@@@Z
	??R?$TInstrumentedIsAProxy@VEdbEDAShowerTab@@@@UAEPAVTClass@@PBX@Z
	?GenerateInitInstance@ROOTDict@@YAPAVTGenericClassInfo@ROOT@@PBVEdbEDAShowerTab@@@Z
	??0?$TInstrumentedIsAProxy@VEdbEDAObject@@@@QAE@PAVTClass@@@Z
	??1?$TInstrumentedIsAProxy@VEdbEDAObject@@@@UAE@XZ
	?SetClass@?$TInstrumentedIsAProxy@VEdbEDAObject@@@@UAEXPAVTClass@@@Z
	??R?$TInstrumentedIsAProxy@VEdbEDAObject@@@@UAEPAVTClass@@PBX@Z
	?GenerateInitInstance@ROOTDict@@YAPAVTGenericClassInfo@ROOT@@PBVEdbEDAObject@@@Z
	??0?$TInstrumentedIsAProxy@VEdbEDAText@@@@QAE@PAVTClass@@@Z
	??1?$TInstrumentedIsAProxy@VEdbEDAText@@@@UAE@XZ
	?SetClass@?$TInstrumentedIsAProxy@VEdbEDAText@@@@UAEXPAVTClass@@@Z
	??R?$TInstrumentedIsAProxy@VEdbEDAText@@@@UAEPAVTClass@@PBX@Z
	?GenerateInitInstance@ROOTDict@@YAPAVTGenericClassInfo@ROOT@@PBVEdbEDAText@@@Z
	??0?$TInstrumentedIsAProxy@VEdbEDALine@@@@QAE@PAVTClass@@@Z
	??1?$TInstrumentedIsAProxy@VEdbEDALine@@@@UAE@XZ
	?SetClass@?$TInstrumentedIsAProxy@VEdbEDALine@@@@UAEXPAVTClass@@@Z
	??R?$TInstrumentedIsAProxy@VEdbEDALine@@@@UAEPAVTClass@@PBX@Z
	?GenerateInitInstance@ROOTDict@@YAPAVTGenericClassInfo@ROOT@@PBVEdbEDALine@@@Z
	??0?$TInstrumentedIsAProxy@VEdbEDAOverlay@@@@QAE@PAVTClass@@@Z
	??1?$TInstrumentedIsAProxy@VEdbEDAOverlay@@@@UAE@XZ
	?SetClass@?$TInstrumentedIsAProxy@VEdbEDAOverlay@@@@UAEXPAVTClass@@@Z
	??R?$TInstrumentedIsAProxy@VEdbEDAOverlay@@@@UAEPAVTClass@@PBX@Z
	?GenerateInitInstance@ROOTDict@@YAPAVTGenericClassInfo@ROOT@@PBVEdbEDAOverlay@@@Z
	??0?$TInstrumentedIsAProxy@VEdbEDACamera@@@@QAE@PAVTClass@@@Z
	??1?$TInstrumentedIsAProxy@VEdbEDACamera@@@@UAE@XZ
	?SetClass@?$TInstrumentedIsAProxy@VEdbEDACamera@@@@UAEXPAVTClass@@@Z
	??R?$TInstrumentedIsAProxy@VEdbEDACamera@@@@UAEPAVTClass@@PBX@Z
	?GenerateInitInstance@ROOTDict@@YAPAVTGenericClassInfo@ROOT@@PBVEdbEDACamera@@@Z
	??0?$TInstrumentedIsAProxy@VEdbEDAIO@@@@QAE@PAVTClass@@@Z
	??1?$TInstrumentedIsAProxy@VEdbEDAIO@@@@UAE@XZ
	?SetClass@?$TInstrumentedIsAProxy@VEdbEDAIO@@@@UAEXPAVTClass@@@Z
	??R?$TInstrumentedIsAProxy@VEdbEDAIO@@@@UAEPAVTClass@@PBX@Z
	?GenerateInitInstance@ROOTDict@@YAPAVTGenericClassInfo@ROOT@@PBVEdbEDAIO@@@Z
	??0?$TInstrumentedIsAProxy@VEdbEDABrickData@@@@QAE@PAVTClass@@@Z
	??1?$TInstrumentedIsAProxy@VEdbEDABrickData@@@@UAE@XZ
	?SetClass@?$TInstrumentedIsAProxy@VEdbEDABrickData@@@@UAEXPAVTClass@@@Z
	??R?$TInstrumentedIsAProxy@VEdbEDABrickData@@@@UAEPAVTClass@@PBX@Z
	?GenerateInitInstance@ROOTDict@@YAPAVTGenericClassInfo@ROOT@@PBVEdbEDABrickData@@@Z
	??0?$TInstrumentedIsAProxy@VEdbEDASelection@@@@QAE@PAVTClass@@@Z
	??1?$TInstrumentedIsAProxy@VEdbEDASelection@@@@UAE@XZ
	?SetClass@?$TInstrumentedIsAProxy@VEdbEDASelection@@@@UAEXPAVTClass@@@Z
	??R?$TInstrumentedIsAProxy@VEdbEDASelection@@@@UAEPAVTClass@@PBX@Z
	?GenerateInitInstance@ROOTDict@@YAPAVTGenericClassInfo@ROOT@@PBVEdbEDASelection@@@Z
	??0?$TInstrumentedIsAProxy@VEdbEDA@@@@QAE@PAVTClass@@@Z
	??1?$TInstrumentedIsAProxy@VEdbEDA@@@@UAE@XZ
	?SetClass@?$TInstrumentedIsAProxy@VEdbEDA@@@@UAEXPAVTClass@@@Z
	??R?$TInstrumentedIsAProxy@VEdbEDA@@@@UAEPAVTClass@@PBX@Z
	?GenerateInitInstance@ROOTDict@@YAPAVTGenericClassInfo@ROOT@@PBVEdbEDA@@@Z
	??$InspectMember@VEdbID@@@TMemberInspector@@QAEXAAVEdbID@@PBD@Z
	??$InspectMember@VTCut@@@TMemberInspector@@QAEXAAVTCut@@PBD@Z
	??$InspectMember@VEdbRunTracking@@@TMemberInspector@@QAEXAAVEdbRunTracking@@PBD@Z
	??$?5VTGNumberEntryField@@@@YAAAVTBuffer@@AAV0@AAPAVTGNumberEntryField@@@Z
	??$?5VTGNumberEntry@@@@YAAAVTBuffer@@AAV0@AAPAVTGNumberEntry@@@Z
	??$?5VTGCheckButton@@@@YAAAVTBuffer@@AAV0@AAPAVTGCheckButton@@@Z
	??$?5VTGComboBox@@@@YAAAVTBuffer@@AAV0@AAPAVTGComboBox@@@Z
	??$?5VEdbEDATrackSet@@@@YAAAVTBuffer@@AAV0@AAPAVEdbEDATrackSet@@@Z
	??$?6VTGNumberEntryField@@@@YAAAVTBuffer@@AAV0@PBVTGNumberEntryField@@@Z
	??$?6VTGNumberEntry@@@@YAAAVTBuffer@@AAV0@PBVTGNumberEntry@@@Z
	??$?6VTGCheckButton@@@@YAAAVTBuffer@@AAV0@PBVTGCheckButton@@@Z
	??$?6VTGComboBox@@@@YAAAVTBuffer@@AAV0@PBVTGComboBox@@@Z
	??$?6VEdbEDATrackSet@@@@YAAAVTBuffer@@AAV0@PBVEdbEDATrackSet@@@Z
	??$InspectMember@VTString@@@TMemberInspector@@QAEXAAVTString@@PBD@Z
	G__cpp_reset_tagtableEDADict
	??0G__Sizep2memfuncEDADict@@QAE@XZ
	?sizep2memfunc@G__Sizep2memfuncEDADict@@QAEIXZ
	?G__get_sizep2memfuncEDADict@@YAIXZ
	??$?0P6AHPAVTObject@@@Z@G__func2void@@QAE@P6AHPAVTObject@@@Z@Z
	??$?0P6AHPAVTEveElement@@@Z@G__func2void@@QAE@P6AHPAVTEveElement@@@Z@Z
	??$?0P6AHPAVEdbPattern@@@Z@G__func2void@@QAE@P6AHPAVEdbPattern@@@Z@Z
	??$?0P6APAVTEveCompound@@PAVEdbTrackP@@@Z@G__func2void@@QAE@P6APAVTEveCompound@@PAVEdbTrackP@@@Z@Z
	??$?0P6APAVTEvePointSet@@PAVEdbVertex@@@Z@G__func2void@@QAE@P6APAVTEvePointSet@@PAVEdbVertex@@@Z@Z
	??$?0P6ANPAVEdbSegP@@NNN@Z@G__func2void@@QAE@P6ANPAVEdbSegP@@NNN@Z@Z
	??$?0P6ANPAVEdbSegP@@PAVEdbVertex@@@Z@G__func2void@@QAE@P6ANPAVEdbSegP@@PAVEdbVertex@@@Z@Z
	??$?0P6ANPAVEdbSegP@@0PAN@Z@G__func2void@@QAE@P6ANPAVEdbSegP@@0PAN@Z@Z
	??$?0P6ANVTVector3@@00@Z@G__func2void@@QAE@P6ANVTVector3@@00@Z@Z
	??$?0P6ANPAVEdbVertex@@PAVEdbSegP@@H@Z@G__func2void@@QAE@P6ANPAVEdbVertex@@PAVEdbSegP@@H@Z@Z
	??$?0P6ANPAVEdbSegP@@0H@Z@G__func2void@@QAE@P6ANPAVEdbSegP@@0H@Z@Z
	??$?0P6ANPAVEdbSegP@@0@Z@G__func2void@@QAE@P6ANPAVEdbSegP@@0@Z@Z
	??$?0P6ANPAVEdbTrackP@@@Z@G__func2void@@QAE@P6ANPAVEdbTrackP@@@Z@Z
	??$?0P6APAVEdbVertex@@PAVTObjArray@@@Z@G__func2void@@QAE@P6APAVEdbVertex@@PAVTObjArray@@@Z@Z
	??$?0P6APAVEdbMomentumEstimator@@PAVEdbTrackP@@AAN11_N@Z@G__func2void@@QAE@P6APAVEdbMomentumEstimator@@PAVEdbTrackP@@AAN11_N@Z@Z
	??$?0P6AXPAVEdbTrackP@@PAVEdbSegP@@1AAN22_N@Z@G__func2void@@QAE@P6AXPAVEdbTrackP@@PAVEdbSegP@@1AAN22_N@Z@Z
	??$?0P6ANPAVEdbSegP@@0N@Z@G__func2void@@QAE@P6ANPAVEdbSegP@@0N@Z@Z
	??$?0P6AXPAVEdbSegP@@0PAN1@Z@G__func2void@@QAE@P6AXPAVEdbSegP@@0PAN1@Z@Z
	??$?0P6AXNNNNPAN0@Z@G__func2void@@QAE@P6AXNNNNPAN0@Z@Z
	??$?0P6ANPAVEdbTrackP@@PAH@Z@G__func2void@@QAE@P6ANPAVEdbTrackP@@PAH@Z@Z
	??$?0P6ANPAVEdbTrackP@@PAN11PAH@Z@G__func2void@@QAE@P6ANPAVEdbTrackP@@PAN11PAH@Z@Z
	??$?0P6ANPAVEdbTrackP@@HPAN11PAH@Z@G__func2void@@QAE@P6ANPAVEdbTrackP@@HPAN11PAH@Z@Z
	??$?0P6APAVEdbTrackP@@PAV0@@Z@G__func2void@@QAE@P6APAVEdbTrackP@@PAV1@@Z@Z
	??$?0P6AXPAD0@Z@G__func2void@@QAE@P6AXPAD0@Z@Z
	??$?0P6AXPAD@Z@G__func2void@@QAE@P6AXPAD@Z@Z
	??$?0P6A_NPAD@Z@G__func2void@@QAE@P6A_NPAD@Z@Z
	??$?0P6AHPADH@Z@G__func2void@@QAE@P6AHPADH@Z@Z
	??$?0P6ANPADNW4EStyle@TGNumberFormat@@@Z@G__func2void@@QAE@P6ANPADNW4EStyle@TGNumberFormat@@@Z@Z
	??$?0P6AHPADAAVEdbID@@@Z@G__func2void@@QAE@P6AHPADAAVEdbID@@@Z@Z
	??$?0P6APADXZ@G__func2void@@QAE@P6APADXZ@Z
	??$?0P6AHXZ@G__func2void@@QAE@P6AHXZ@Z
	??$?0P6APAVEdbPVRec@@PAD@Z@G__func2void@@QAE@P6APAVEdbPVRec@@PAD@Z@Z
	??$?0P6AXPAVEdbPVRec@@PAD@Z@G__func2void@@QAE@P6AXPAVEdbPVRec@@PAD@Z@Z
	??$?0P6AXPAVTObjArray@@PAD@Z@G__func2void@@QAE@P6AXPAVTObjArray@@PAD@Z@Z
	??$?0P6AXPAVTObjArray@@AAVEdbPVRec@@@Z@G__func2void@@QAE@P6AXPAVTObjArray@@AAVEdbPVRec@@@Z@Z
	??$?0P6AXPAVEdbPVRec@@@Z@G__func2void@@QAE@P6AXPAVEdbPVRec@@@Z@Z
	??$?0P6APAVTClass@@XZ@G__func2void@@QAE@P6APAVTClass@@XZ@Z
	??$?0P6APBDXZ@G__func2void@@QAE@P6APBDXZ@Z
	??$?0P6AFXZ@G__func2void@@QAE@P6AFXZ@Z
	??$?0P6AXXZ@G__func2void@@QAE@P6AXXZ@Z
	??$?0P6APAVTCanvas@@PAD@Z@G__func2void@@QAE@P6APAVTCanvas@@PAD@Z@Z
	??0G__cpp_setup_initEDADict@@QAE@XZ
	??1G__cpp_setup_initEDADict@@QAE@XZ
	??0_Sentry_base@?$basic_ostream@DU?$char_traits@D@std@@@std@@QAE@AAV12@@Z
	??1_Sentry_base@?$basic_ostream@DU?$char_traits@D@std@@@std@@QAE@XZ
	??0sentry@?$basic_ostream@DU?$char_traits@D@std@@@std@@QAE@AAV12@@Z
	??1sentry@?$basic_ostream@DU?$char_traits@D@std@@@std@@QAE@XZ
	??Bsentry@?$basic_ostream@DU?$char_traits@D@std@@@std@@QBE_NXZ
	??$construct@PADAAPAD@?$_Wrap_alloc@V?$allocator@D@std@@@std@@QAEXPAPADAAPAD@Z
	??$destroy@PAD@?$_Wrap_alloc@V?$allocator@D@std@@@std@@QAEXPAPAD@Z
	??$addressof@D@std@@YAPADAAD@Z
	??$_Allocate@D@std@@YAPADIPAD@Z
	??$forward@AAPAD@std@@YAAAPADAAPAD@Z
	??$construct@PADAAPAD@?$allocator_traits@V?$allocator@D@std@@@std@@SAXAAV?$allocator@D@1@PAPADAAPAD@Z
	??$destroy@PAD@?$allocator_traits@V?$allocator@D@std@@@std@@SAXAAV?$allocator@D@1@PAPAD@Z
	??$construct@PADAAPAD@?$allocator@D@std@@QAEXPAPADAAPAD@Z
	??$destroy@PAD@?$allocator@D@std@@QAEXPAPAD@Z
	?IsA@TQClass@@WBA@BEPAVTClass@@XZ
	?ShowMembers@TQClass@@WBA@AEXAAVTMemberInspector@@@Z
	?Streamer@TQClass@@WBA@AEXAAVTBuffer@@@Z
	?Transform@EdbTrack2D@@W3AEXPBVEdbAffine2D@@@Z
	?Test@EdbTrack2D@@W3BEXXZ
	?Print@EdbTrack2D@@W3BEXPBD@Z
	?IsA@EdbTrack2D@@W3BEPAVTClass@@XZ
	?ShowMembers@EdbTrack2D@@W3AEXAAVTMemberInspector@@@Z
	?Streamer@EdbTrack2D@@W3AEXAAVTBuffer@@@Z
	?IsA@EdbSegP@@WM@BEPAVTClass@@XZ
	?ShowMembers@EdbSegP@@WM@AEXAAVTMemberInspector@@@Z
	?Streamer@EdbSegP@@WM@AEXAAVTBuffer@@@Z
	?Print@EdbSegP@@WM@BEXPBD@Z
	?Print@EdbSegP@@WBA@BEXPBD@Z
	?IsA@EdbSegP@@WBA@BEPAVTClass@@XZ
	?ShowMembers@EdbSegP@@WBA@AEXAAVTMemberInspector@@@Z
	?Streamer@EdbSegP@@WBA@AEXAAVTBuffer@@@Z
	?IsA@EdbTrackP@@WM@BEPAVTClass@@XZ
	?ShowMembers@EdbTrackP@@WM@AEXAAVTMemberInspector@@@Z
	?Streamer@EdbTrackP@@WM@AEXAAVTBuffer@@@Z
	?IsA@EdbTrackP@@WBA@BEPAVTClass@@XZ
	?ShowMembers@EdbTrackP@@WBA@AEXAAVTMemberInspector@@@Z
	?Streamer@EdbTrackP@@WBA@AEXAAVTBuffer@@@Z
	?IsA@EdbIDDialog@@WDA@BEPAVTClass@@XZ
	?ShowMembers@EdbIDDialog@@WDA@AEXAAVTMemberInspector@@@Z
	?Streamer@EdbIDDialog@@WDA@AEXAAVTBuffer@@@Z
	?IsA@EdbEDATrackSet@@WDA@BEPAVTClass@@XZ
	?ShowMembers@EdbEDATrackSet@@WDA@AEXAAVTMemberInspector@@@Z
	?Streamer@EdbEDATrackSet@@WDA@AEXAAVTBuffer@@@Z
	?IsA@EdbEDATrackP@@WM@BEPAVTClass@@XZ
	?ShowMembers@EdbEDATrackP@@WM@AEXAAVTMemberInspector@@@Z
	?Streamer@EdbEDATrackP@@WM@AEXAAVTBuffer@@@Z
	?IsA@EdbEDATrackP@@WBA@BEPAVTClass@@XZ
	?ShowMembers@EdbEDATrackP@@WBA@AEXAAVTMemberInspector@@@Z
	?Streamer@EdbEDATrackP@@WBA@AEXAAVTBuffer@@@Z
	?IsA@EdbEDA@@WBM@BEPAVTClass@@XZ
	?ShowMembers@EdbEDA@@WBM@AEXAAVTMemberInspector@@@Z
	?Streamer@EdbEDA@@WBM@AEXAAVTBuffer@@@Z
	?IsA@EdbEDA@@WFA@BEPAVTClass@@XZ
	?ShowMembers@EdbEDA@@WFA@AEXAAVTMemberInspector@@@Z
	?Streamer@EdbEDA@@WFA@AEXAAVTBuffer@@@Z
	?IsA@EdbEDA@@WNI@BEPAVTClass@@XZ
	?ShowMembers@EdbEDA@@WNI@AEXAAVTMemberInspector@@@Z
	?Streamer@EdbEDA@@WNI@AEXAAVTBuffer@@@Z
	?IsA@EdbEDA@@WPI@BEPAVTClass@@XZ
	?ShowMembers@EdbEDA@@WPI@AEXAAVTMemberInspector@@@Z
	?Streamer@EdbEDA@@WPI@AEXAAVTBuffer@@@Z
	?_Generic_object@?$_Error_objects@H@std@@2V_Generic_error_category@2@A 	 DATA
	?_Iostream_object@?$_Error_objects@H@std@@2V_Iostream_error_category@2@A 	 DATA
	?_System_object@?$_Error_objects@H@std@@2V_System_error_category@2@A 	 DATA
	?id@?$num_put@DV?$back_insert_iterator@V?$basic_string@DU?$char_traits@D@std@@V?$allocator@D@2@@std@@@std@@@std@@2V0locale@2@A 	 DATA
	?id@?$num_put@_WV?$back_insert_iterator@V?$basic_string@_WU?$char_traits@_W@std@@V?$allocator@_W@2@@std@@@std@@@std@@2V0locale@2@A 	 DATA
	??_R0?AVTObject@@@8 	 DATA
	?instance@?1??GenerateInitInstance@ROOTDict@EdbEDAUtil@@YAPAVTGenericClassInfo@ROOT@@XZ@4V45@A 	 DATA
	??_B?1??GenerateInitInstance@ROOTDict@EdbEDAUtil@@YAPAVTGenericClassInfo@ROOT@@XZ@51 	 DATA
	??_R0?AVEdbIDDialog@@@8 	 DATA
	??_R0?AVEdbEDAArea@@@8 	 DATA
	??_R0?AVEdbEDAAreaSet@@@8 	 DATA
	??_R0?AVEdbEDAVertexSet@@@8 	 DATA
	??_R0?AVEdbEDAExtentionSet@@@8 	 DATA
	??_R0?AVEdbEDATrackComment@@@8 	 DATA
	??_R0?AVEdbEDATrackSelection@@@8 	 DATA
	??_R0?AVEdbEDATrackSet@@@8 	 DATA
	??_R0?AVEdbEDATrackSetTab@@@8 	 DATA
	??_R0?AVEdbEDAMainTab@@@8 	 DATA
	??_R0?AVEdbEDAListTab@@@8 	 DATA
	??_R0?AVEdbEDAVertexTab@@@8 	 DATA
	??_R0?AVEdbEDAMCTab@@@8 	 DATA
	??_R0?AVEdbEDAPredTab@@@8 	 DATA
	??_R0?AVEdbEDAOperationTab@@@8 	 DATA
	??_R0?AVEdbEDATrackSetList@@@8 	 DATA
	??_R0?AVEdbEDAPlotTab@@@8 	 DATA
	??_R0?AVEdbEDATrackP@@@8 	 DATA
	??_R0?AVEdbEDADecayVertex@@@8 	 DATA
	??_R0?AVEdbEDASmallKink@@@8 	 DATA
	??_R0?AVEdbEDADecaySearch@@@8 	 DATA
	??_R0?AVEdbEDADecaySearchTab@@@8 	 DATA
	??_R0?AVEdbEDAFeedbackEntryT@@@8 	 DATA
	??_R0?AVEdbEDAFeedbackEntryV@@@8 	 DATA
	??_R0?AVEdbEDAFeedbackEditor@@@8 	 DATA
	??_R0?AVEdbEDAShowerTab@@@8 	 DATA
	??_R0?AVEdbEDAObject@@@8 	 DATA
	??_R0?AVEdbEDAText@@@8 	 DATA
	??_R0?AVEdbEDALine@@@8 	 DATA
	??_R0?AVEdbEDAOverlay@@@8 	 DATA
	??_R0?AVEdbEDACamera@@@8 	 DATA
	??_R0?AVEdbEDAIO@@@8 	 DATA
	??_R0?AVEdbEDABrickData@@@8 	 DATA
	??_R0?AVEdbEDASelection@@@8 	 DATA
	??_R0?AVEdbEDA@@@8 	 DATA
	?G__cpp_setup_initializerEDADict@@3VG__cpp_setup_initEDADict@@A 	 DATA
	??_R0?AVTGNumberEntryField@@@8 	 DATA
	??_R0?AVTGNumberEntry@@@8 	 DATA
	??_R0?AVTGCheckButton@@@8 	 DATA
	??_R0?AVTGComboBox@@@8 	 DATA
	??_R0?AVTNamed@@@8 	 DATA
	??_R0?AVTCollection@@@8 	 DATA
	??_R0?AVTVirtualIsAProxy@@@8 	 DATA
	??_R0?AVTInitBehavior@ROOT@@@8 	 DATA
	??_R0?AVTDefaultInitBehavior@ROOT@@@8 	 DATA
	??_R0?AVerror_category@std@@@8 	 DATA
	??_R0?AV_Generic_error_category@std@@@8 	 DATA
	??_R0?AV_Iostream_error_category@std@@@8 	 DATA
	??_R0?AV_System_error_category@std@@@8 	 DATA
	??_R0?AVTList@@@8 	 DATA
	??_R0?AVTSeqCollection@@@8 	 DATA
	??_R0?AVTQObject@@@8 	 DATA
	??_R0?AVTDatime@@@8 	 DATA
	??_R0?AVTDictionary@@@8 	 DATA
	??_R0?AVTQClass@@@8 	 DATA
	??_R0?AVTClass@@@8 	 DATA
	??_R0?AVTQObjectInitBehavior@ROOT@@@8 	 DATA
	??_R0?AVTGLOverlayElement@@@8 	 DATA
	??_R0?AVTGWindow@@@8 	 DATA
	??_R0?AVTGObject@@@8 	 DATA
	??_R0?AVTRefCnt@@@8 	 DATA
	??_R0?AVTGDimension@@@8 	 DATA
	??_R0?AVTGLayoutHints@@@8 	 DATA
	??_R0?AVTGCompositeFrame@@@8 	 DATA
	??_R0?AVTGFrame@@@8 	 DATA
	??_R0?AVTGMainFrame@@@8 	 DATA
	??_R0?AVEdbPoint@@@8 	 DATA
	??_R0?AVEdbPoint2D@@@8 	 DATA
	??_R0?AVEdbAngle2D@@@8 	 DATA
	??_R0?AVEdbTrack2D@@@8 	 DATA
	??_R0?AVEdbID@@@8 	 DATA
	??_R0?AVEdbSegP@@@8 	 DATA
	??_R0?AVEdbTrackP@@@8 	 DATA
	??_R0?AVEdbVertexPar@@@8 	 DATA
	??_R0?AVEdbVertexRec@@@8 	 DATA
	??_R0?AVEdbScanCond@@@8 	 DATA
	??_R0?AVEdbRunAccess@@@8 	 DATA
	??_R0?AVTLockGuard@@@8 	 DATA
	??_R0?AVTGTransientFrame@@@8 	 DATA
	??_R0?AVEdbRunTracking@@@8 	 DATA
	??_R0?AVEdbVertex@@@8 	 DATA
	??_R0?AV?$TInstrumentedIsAProxy@VEdbIDDialog@@@@@8 	 DATA
	??_R0?AV?$TInstrumentedIsAProxy@VEdbEDAArea@@@@@8 	 DATA
	??_R0?AV?$TInstrumentedIsAProxy@VEdbEDAAreaSet@@@@@8 	 DATA
	??_R0?AV?$TInstrumentedIsAProxy@VEdbEDAVertexSet@@@@@8 	 DATA
	??_R0?AV?$TInstrumentedIsAProxy@VEdbEDAExtentionSet@@@@@8 	 DATA
	??_R0?AV?$TInstrumentedIsAProxy@VEdbEDATrackComment@@@@@8 	 DATA
	??_R0?AV?$TInstrumentedIsAProxy@VEdbEDATrackSelection@@@@@8 	 DATA
	??_R0?AV?$TInstrumentedIsAProxy@VEdbEDATrackSet@@@@@8 	 DATA
	??_R0?AV?$TInstrumentedIsAProxy@VEdbEDAMainTab@@@@@8 	 DATA
	??_R0?AV?$TInstrumentedIsAProxy@VEdbEDAVertexTab@@@@@8 	 DATA
	??_R0?AV?$TInstrumentedIsAProxy@VEdbEDATrackSetList@@@@@8 	 DATA
	??_R0?AV?$TInstrumentedIsAProxy@VEdbEDATrackP@@@@@8 	 DATA
	??_R0?AV?$TInstrumentedIsAProxy@VEdbEDADecayVertex@@@@@8 	 DATA
	??_R0?AV?$TInstrumentedIsAProxy@VEdbEDASmallKink@@@@@8 	 DATA
	??_R0?AV?$TInstrumentedIsAProxy@VEdbEDADecaySearch@@@@@8 	 DATA
	??_R0?AV?$TInstrumentedIsAProxy@VEdbEDADecaySearchTab@@@@@8 	 DATA
	??_R0?AV?$TInstrumentedIsAProxy@VEdbEDAFeedbackEntryT@@@@@8 	 DATA
	??_R0?AV?$TInstrumentedIsAProxy@VEdbEDAFeedbackEntryV@@@@@8 	 DATA
	??_R0?AV?$TInstrumentedIsAProxy@VEdbEDAShowerTab@@@@@8 	 DATA
	??_R0?AV?$TInstrumentedIsAProxy@VEdbEDAObject@@@@@8 	 DATA
	??_R0?AV?$TInstrumentedIsAProxy@VEdbEDAText@@@@@8 	 DATA
	??_R0?AV?$TInstrumentedIsAProxy@VEdbEDALine@@@@@8 	 DATA
	??_R0?AV?$TInstrumentedIsAProxy@VEdbEDAOverlay@@@@@8 	 DATA
	??_R0?AV?$TInstrumentedIsAProxy@VEdbEDACamera@@@@@8 	 DATA
	??_R0?AV?$TInstrumentedIsAProxy@VEdbEDAIO@@@@@8 	 DATA
	??_R0?AV?$TInstrumentedIsAProxy@VEdbEDABrickData@@@@@8 	 DATA
	??_R0?AV?$TInstrumentedIsAProxy@VEdbEDASelection@@@@@8 	 DATA
	??_R0?AV?$TInstrumentedIsAProxy@VEdbEDA@@@@@8 	 DATA
