LIBRARY    C:\Users\User\Downloads\Fedra/lib/libEmath
EXPORTS 
	hypot
	??2@YAPAXIPAX@Z
	??3@YAXPAX0@Z
	?length@?$char_traits@D@std@@SAIPBD@Z
	?copy@?$char_traits@D@std@@SAPADPADPBDI@Z
	?move@?$char_traits@D@std@@SAPADPADPBDI@Z
	?assign@?$char_traits@D@std@@SAXAADABD@Z
	??0?$allocator@D@std@@QAE@XZ
	?deallocate@?$allocator@D@std@@QAEXPADI@Z
	?allocate@?$allocator@D@std@@QAEPADI@Z
	?max_size@?$allocator@D@std@@QBEIXZ
	?max_size@?$allocator_traits@V?$allocator@D@std@@@std@@SAIABV?$allocator@D@2@@Z
	??0?$_Wrap_alloc@V?$allocator@D@std@@@std@@QAE@XZ
	?allocate@?$_Wrap_alloc@V?$allocator@D@std@@@std@@QAEPADI@Z
	?deallocate@?$_Wrap_alloc@V?$allocator@D@std@@@std@@QAEXPADI@Z
	?max_size@?$_Wrap_alloc@V?$allocator@D@std@@@std@@QBEIXZ
	??0?$_String_val@U?$_Simple_types@D@std@@@std@@QAE@XZ
	?_Myptr@?$_String_val@U?$_Simple_types@D@std@@@std@@QAEPADXZ
	?_Myptr@?$_String_val@U?$_Simple_types@D@std@@@std@@QBEPBDXZ
	??0?$_String_alloc@$0A@U?$_String_base_types@DV?$allocator@D@std@@@std@@@std@@QAE@ABV?$allocator@D@1@@Z
	?_Getal@?$_String_alloc@$0A@U?$_String_base_types@DV?$allocator@D@std@@@std@@@std@@QBE?AU?$_Wrap_alloc@V?$allocator@D@std@@@2@XZ
	??0?$basic_string@DU?$char_traits@D@std@@V?$allocator@D@2@@std@@QAE@PBD@Z
	??1?$basic_string@DU?$char_traits@D@std@@V?$allocator@D@2@@std@@QAE@XZ
	?assign@?$basic_string@DU?$char_traits@D@std@@V?$allocator@D@2@@std@@QAEAAV12@ABV12@II@Z
	?assign@?$basic_string@DU?$char_traits@D@std@@V?$allocator@D@2@@std@@QAEAAV12@PBDI@Z
	?assign@?$basic_string@DU?$char_traits@D@std@@V?$allocator@D@2@@std@@QAEAAV12@PBD@Z
	?erase@?$basic_string@DU?$char_traits@D@std@@V?$allocator@D@2@@std@@QAEAAV12@I@Z
	?erase@?$basic_string@DU?$char_traits@D@std@@V?$allocator@D@2@@std@@QAEAAV12@II@Z
	?size@?$basic_string@DU?$char_traits@D@std@@V?$allocator@D@2@@std@@QBEIXZ
	?max_size@?$basic_string@DU?$char_traits@D@std@@V?$allocator@D@2@@std@@QBEIXZ
	?_Copy@?$basic_string@DU?$char_traits@D@std@@V?$allocator@D@2@@std@@QAEXII@Z
	?_Eos@?$basic_string@DU?$char_traits@D@std@@V?$allocator@D@2@@std@@QAEXI@Z
	?_Grow@?$basic_string@DU?$char_traits@D@std@@V?$allocator@D@2@@std@@QAE_NI_N@Z
	?_Inside@?$basic_string@DU?$char_traits@D@std@@V?$allocator@D@2@@std@@QAE_NPBD@Z
	?_Tidy@?$basic_string@DU?$char_traits@D@std@@V?$allocator@D@2@@std@@QAEX_NI@Z
	?_Xlen@?$basic_string@DU?$char_traits@D@std@@V?$allocator@D@2@@std@@QBEXXZ
	?_Xran@?$basic_string@DU?$char_traits@D@std@@V?$allocator@D@2@@std@@QBEXXZ
	?generic_category@std@@YAABVerror_category@1@XZ
	?system_category@std@@YAABVerror_category@1@XZ
	??0error_category@std@@QAE@XZ
	??1error_category@std@@UAE@XZ
	?default_error_condition@error_category@std@@UBE?AVerror_condition@2@H@Z
	?equivalent@error_category@std@@UBE_NHABVerror_condition@2@@Z
	?equivalent@error_category@std@@UBE_NABVerror_code@2@H@Z
	??8error_category@std@@QBE_NABV01@@Z
	?value@error_code@std@@QBEHXZ
	?category@error_code@std@@QBEABVerror_category@2@XZ
	??0error_condition@std@@QAE@HABVerror_category@1@@Z
	?value@error_condition@std@@QBEHXZ
	?category@error_condition@std@@QBEABVerror_category@2@XZ
	??8error_condition@std@@QBE_NABV01@@Z
	??0_Generic_error_category@std@@QAE@XZ
	?name@_Generic_error_category@std@@UBEPBDXZ
	?message@_Generic_error_category@std@@UBE?AV?$basic_string@DU?$char_traits@D@std@@V?$allocator@D@2@@2@H@Z
	??1_Generic_error_category@std@@UAE@XZ
	??0_Iostream_error_category@std@@QAE@XZ
	?name@_Iostream_error_category@std@@UBEPBDXZ
	?message@_Iostream_error_category@std@@UBE?AV?$basic_string@DU?$char_traits@D@std@@V?$allocator@D@2@@2@H@Z
	??1_Iostream_error_category@std@@UAE@XZ
	??0_System_error_category@std@@QAE@XZ
	?name@_System_error_category@std@@UBEPBDXZ
	?message@_System_error_category@std@@UBE?AV?$basic_string@DU?$char_traits@D@std@@V?$allocator@D@2@@2@H@Z
	?default_error_condition@_System_error_category@std@@UBE?AVerror_condition@2@H@Z
	??1_System_error_category@std@@UAE@XZ
	?Clear@TObject@@UAEXPBD@Z
	?GetOption@TObject@@UBEPBDXZ
	?IsSortable@TObject@@UBE_NXZ
	??2TObject@@SAPAXI@Z
	?Abs@TMath@@YAJJ@Z
	?SetName@TCollection@@QAEXPBD@Z
	?GetEntriesFast@TObjArray@@QBEHXZ
	??0TIndexCell@@QAE@XZ
	??0TIndexCell@@QAE@J@Z
	??0TIndexCell@@QAE@ABV0@@Z
	??1TIndexCell@@UAE@XZ
	?ComparePatterns@TIndexCell@@QAEHHPAV1@H@Z
	?ComparePatterns@TIndexCell@@QAEHHQAJPAV1@H@Z
	?Shift@TIndexCell@@QAEXJ@Z
	?Shift@TIndexCell@@QAEXHQAJ@Z
	?Delete@TIndexCell@@QAEXXZ
	?Drop@TIndexCell@@QAEXXZ
	?Drop@TIndexCell@@QAEXH@Z
	?DropCouples@TIndexCell@@QAEHH@Z
	?DropButFirst@TIndexCell@@QAEXH@Z
	?DropButLast@TIndexCell@@QAEXH@Z
	?Nlevels@TIndexCell@@QBEHXZ
	?N@TIndexCell@@QBEHXZ
	?N@TIndexCell@@QBEHH@Z
	?MinN@TIndexCell@@QBEHHQAH@Z
	?MaxN@TIndexCell@@QBEHHQAH@Z
	?MinV@TIndexCell@@QBEJHQAH@Z
	?MaxV@TIndexCell@@QBEJHQAH@Z
	?MinN@TIndexCell@@QBEHH@Z
	?MaxN@TIndexCell@@QBEHH@Z
	?MinV@TIndexCell@@QBEJH@Z
	?MaxV@TIndexCell@@QBEJH@Z
	?Add@TIndexCell@@QAEHHQAJ@Z
	?Add@TIndexCell@@QAEHJ@Z
	?FindAdd@TIndexCell@@QAEPAV1@J@Z
	?Find@TIndexCell@@QBEPAV1@HQAJ@Z
	?Find@TIndexCell@@QBEPAV1@J@Z
	?At@TIndexCell@@QBEPBV1@HQAH@Z
	?At@TIndexCell@@QBEPAV1@H@Z
	?List@TIndexCell@@QBEPAVTObjArray@@XZ
	?Value@TIndexCell@@QBEJXZ
	?GetValues@TIndexCell@@QBEHHQAHQAJ@Z
	?GetEntriesFast@TIndexCell@@QBEHXZ
	?SetName@TIndexCell@@QAEXPBD@Z
	?SetValue@TIndexCell@@QAEXJ@Z
	?Print@TIndexCell@@UBEXPBD@Z
	?PrintStat@TIndexCell@@QBEXXZ
	?PrintPopulation@TIndexCell@@QBEXH@Z
	?Sort@TIndexCell@@QAEXH@Z
	?Purge@TIndexCell@@QAEXH@Z
	?Hash@TIndexCell@@UBEKXZ
	?IsEqual@TIndexCell@@UBE_NPBVTObject@@@Z
	?IsSortable@TIndexCell@@UBE_NXZ
	?Compare@TIndexCell@@UBEHPBVTObject@@@Z
	?IsA@TIndexCell@@UBEPAVTClass@@XZ
	??0TIndexCellIter@@QAE@PBVTIndexCell@@H_N@Z
	??1TIndexCellIter@@UAE@XZ
	?Next@TIndexCellIter@@QAEPBVTIndexCell@@XZ
	?Reset@TIndexCellIter@@QAEXXZ
	?LevelDown@TIndexCellIter@@QAEHXZ
	?Test@TIndexCellIter@@QAEXXZ
	?IsA@TIndexCellIter@@UBEPAVTClass@@XZ
	??0TIndexCellIterV@@QAE@PBVTIndexCell@@HQAJ1_N@Z
	??1TIndexCellIterV@@UAE@XZ
	?Next@TIndexCellIterV@@QAEPBVTIndexCell@@XZ
	?NextAll@TIndexCellIterV@@QAEPBVTIndexCell@@XZ
	?Reset@TIndexCellIterV@@QAEXXZ
	?LevelDown@TIndexCellIterV@@QAEHXZ
	?Test@TIndexCellIterV@@QAEXXZ
	?IsA@TIndexCellIterV@@UBEPAVTClass@@XZ
	??$construct@PADAAPAD@?$_Wrap_alloc@V?$allocator@D@std@@@std@@QAEXPAPADAAPAD@Z
	??$destroy@PAD@?$_Wrap_alloc@V?$allocator@D@std@@@std@@QAEXPAPAD@Z
	??$addressof@D@std@@YAPADAAD@Z
	??$_Allocate@D@std@@YAPADIPAD@Z
	??$forward@AAPAD@std@@YAAAPADAAPAD@Z
	??$construct@PADAAPAD@?$allocator_traits@V?$allocator@D@std@@@std@@SAXAAV?$allocator@D@1@PAPADAAPAD@Z
	??$destroy@PAD@?$allocator_traits@V?$allocator@D@std@@@std@@SAXAAV?$allocator@D@1@PAPAD@Z
	??$construct@PADAAPAD@?$allocator@D@std@@QAEXPAPADAAPAD@Z
	??$destroy@PAD@?$allocator@D@std@@QAEXPAPAD@Z
	?_Generic_object@?$_Error_objects@H@std@@2V_Generic_error_category@2@A 	 DATA
	?_Iostream_object@?$_Error_objects@H@std@@2V_Iostream_error_category@2@A 	 DATA
	?_System_object@?$_Error_objects@H@std@@2V_System_error_category@2@A 	 DATA
	?id@?$num_put@DV?$back_insert_iterator@V?$basic_string@DU?$char_traits@D@std@@V?$allocator@D@2@@std@@@std@@@std@@2V0locale@2@A 	 DATA
	?id@?$num_put@_WV?$back_insert_iterator@V?$basic_string@_WU?$char_traits@_W@std@@V?$allocator@_W@2@@std@@@std@@@std@@2V0locale@2@A 	 DATA
	??_R0?AVTObject@@@8 	 DATA
	??_R0?AVerror_category@std@@@8 	 DATA
	??_R0?AV_Generic_error_category@std@@@8 	 DATA
	??_R0?AV_Iostream_error_category@std@@@8 	 DATA
	??_R0?AV_System_error_category@std@@@8 	 DATA
	??_R0?AVTIndexCell@@@8 	 DATA
	??_R0?AVTIndexCellIter@@@8 	 DATA
	??_R0?AVTIndexCellIterV@@@8 	 DATA
	hypot
	fabsf
	?abs@@YANN@Z
	?abs@@YAMM@Z
	??2@YAPAXIPAX@Z
	??3@YAXPAX0@Z
	?length@?$char_traits@D@std@@SAIPBD@Z
	?copy@?$char_traits@D@std@@SAPADPADPBDI@Z
	?move@?$char_traits@D@std@@SAPADPADPBDI@Z
	?assign@?$char_traits@D@std@@SAXAADABD@Z
	??0?$allocator@D@std@@QAE@XZ
	?deallocate@?$allocator@D@std@@QAEXPADI@Z
	?allocate@?$allocator@D@std@@QAEPADI@Z
	?max_size@?$allocator@D@std@@QBEIXZ
	?max_size@?$allocator_traits@V?$allocator@D@std@@@std@@SAIABV?$allocator@D@2@@Z
	??0?$_Wrap_alloc@V?$allocator@D@std@@@std@@QAE@XZ
	?allocate@?$_Wrap_alloc@V?$allocator@D@std@@@std@@QAEPADI@Z
	?deallocate@?$_Wrap_alloc@V?$allocator@D@std@@@std@@QAEXPADI@Z
	?max_size@?$_Wrap_alloc@V?$allocator@D@std@@@std@@QBEIXZ
	??0?$_String_val@U?$_Simple_types@D@std@@@std@@QAE@XZ
	?_Myptr@?$_String_val@U?$_Simple_types@D@std@@@std@@QAEPADXZ
	?_Myptr@?$_String_val@U?$_Simple_types@D@std@@@std@@QBEPBDXZ
	??0?$_String_alloc@$0A@U?$_String_base_types@DV?$allocator@D@std@@@std@@@std@@QAE@ABV?$allocator@D@1@@Z
	?_Getal@?$_String_alloc@$0A@U?$_String_base_types@DV?$allocator@D@std@@@std@@@std@@QBE?AU?$_Wrap_alloc@V?$allocator@D@std@@@2@XZ
	??0?$basic_string@DU?$char_traits@D@std@@V?$allocator@D@2@@std@@QAE@PBD@Z
	??1?$basic_string@DU?$char_traits@D@std@@V?$allocator@D@2@@std@@QAE@XZ
	?assign@?$basic_string@DU?$char_traits@D@std@@V?$allocator@D@2@@std@@QAEAAV12@ABV12@II@Z
	?assign@?$basic_string@DU?$char_traits@D@std@@V?$allocator@D@2@@std@@QAEAAV12@PBDI@Z
	?assign@?$basic_string@DU?$char_traits@D@std@@V?$allocator@D@2@@std@@QAEAAV12@PBD@Z
	?erase@?$basic_string@DU?$char_traits@D@std@@V?$allocator@D@2@@std@@QAEAAV12@I@Z
	?erase@?$basic_string@DU?$char_traits@D@std@@V?$allocator@D@2@@std@@QAEAAV12@II@Z
	?size@?$basic_string@DU?$char_traits@D@std@@V?$allocator@D@2@@std@@QBEIXZ
	?max_size@?$basic_string@DU?$char_traits@D@std@@V?$allocator@D@2@@std@@QBEIXZ
	?_Copy@?$basic_string@DU?$char_traits@D@std@@V?$allocator@D@2@@std@@QAEXII@Z
	?_Eos@?$basic_string@DU?$char_traits@D@std@@V?$allocator@D@2@@std@@QAEXI@Z
	?_Grow@?$basic_string@DU?$char_traits@D@std@@V?$allocator@D@2@@std@@QAE_NI_N@Z
	?_Inside@?$basic_string@DU?$char_traits@D@std@@V?$allocator@D@2@@std@@QAE_NPBD@Z
	?_Tidy@?$basic_string@DU?$char_traits@D@std@@V?$allocator@D@2@@std@@QAEX_NI@Z
	?_Xlen@?$basic_string@DU?$char_traits@D@std@@V?$allocator@D@2@@std@@QBEXXZ
	?_Xran@?$basic_string@DU?$char_traits@D@std@@V?$allocator@D@2@@std@@QBEXXZ
	?generic_category@std@@YAABVerror_category@1@XZ
	?system_category@std@@YAABVerror_category@1@XZ
	??0error_category@std@@QAE@XZ
	??1error_category@std@@UAE@XZ
	?default_error_condition@error_category@std@@UBE?AVerror_condition@2@H@Z
	?equivalent@error_category@std@@UBE_NHABVerror_condition@2@@Z
	?equivalent@error_category@std@@UBE_NABVerror_code@2@H@Z
	??8error_category@std@@QBE_NABV01@@Z
	?value@error_code@std@@QBEHXZ
	?category@error_code@std@@QBEABVerror_category@2@XZ
	??0error_condition@std@@QAE@HABVerror_category@1@@Z
	?value@error_condition@std@@QBEHXZ
	?category@error_condition@std@@QBEABVerror_category@2@XZ
	??8error_condition@std@@QBE_NABV01@@Z
	??0_Generic_error_category@std@@QAE@XZ
	?name@_Generic_error_category@std@@UBEPBDXZ
	?message@_Generic_error_category@std@@UBE?AV?$basic_string@DU?$char_traits@D@std@@V?$allocator@D@2@@2@H@Z
	??1_Generic_error_category@std@@UAE@XZ
	??0_Iostream_error_category@std@@QAE@XZ
	?name@_Iostream_error_category@std@@UBEPBDXZ
	?message@_Iostream_error_category@std@@UBE?AV?$basic_string@DU?$char_traits@D@std@@V?$allocator@D@2@@2@H@Z
	??1_Iostream_error_category@std@@UAE@XZ
	??0_System_error_category@std@@QAE@XZ
	?name@_System_error_category@std@@UBEPBDXZ
	?message@_System_error_category@std@@UBE?AV?$basic_string@DU?$char_traits@D@std@@V?$allocator@D@2@@2@H@Z
	?default_error_condition@_System_error_category@std@@UBE?AVerror_condition@2@H@Z
	??1_System_error_category@std@@UAE@XZ
	??$swap@H@std@@YAXAAH0@Z
	?Abs@TMath@@YAMM@Z
	?Abs@TMath@@YANN@Z
	?Pi@TMath@@YANXZ
	?ACos@TMath@@YANN@Z
	?Sqrt@TMath@@YANN@Z
	?GetOption@TObject@@UBEPBDXZ
	?IsSortable@TObject@@UBE_NXZ
	?TestBit@TObject@@QBE_NI@Z
	?BoundsOk@TArray@@IBE_NPBDH@Z
	?GetSize@TArray@@QBEHXZ
	??ATArrayI@@QAEAAHH@Z
	?GetArray@TArrayD@@QAEPANXZ
	??ATArrayD@@QAEAANH@Z
	?Magnitude3@EdbMath@@SANQAM0@Z
	?DistancePointLine3@EdbMath@@SANQAM00_N@Z
	?Angle3@EdbMath@@SANMMMM@Z
	?LineLineIntersect@EdbMath@@SA_NQAM00000AAN1@Z
	?LinFitDiag@EdbMath@@SA_NHPAM00QAMQAY01M0@Z
	?LinFitCOV@EdbMath@@SA_NHPAM0PAN000@Z
	?LFITW@EdbMath@@SAXPAM00HHAAM11@Z
	?LFIT3@EdbMath@@SAHPAM000HAAM111111@Z
	?ArrStat@EdbMath@@SAHHPAMQAM@Z
	?BuildValue@TIndex2@@SANHH@Z
	?Major@TIndex2@@QAEHH@Z
	?Minor@TIndex2@@QAEHH@Z
	?BuildIndex@TIndex2@@QAEXHPAN@Z
	?Find@TIndex2@@QAEHHH@Z
	?FindIndex@TIndex2@@QAEHH@Z
	?FindIndexArr@TIndex2@@QAEHHAAVTArrayI@@@Z
	?Print@TIndex2@@QAEXXZ
	?SetKernel@EdbFilter2D@@QAEXH@Z
	?Smooth0@EdbFilter2D@@QAEXAAVTH2D@@@Z
	?Smooth@EdbFilter2D@@QAEXAAVTH2D@@@Z
	?Print@EdbFilter2D@@QAEXXZ
	??0_Ignore@std@@QAE@XZ
	??1?$TMatrixTBase@N@@UAE@XZ
	?IsValid@?$TMatrixTBase@N@@QBE_NXZ
	?Determinant@?$TMatrixTBase@N@@UBENXZ
	?Determinant@?$TMatrixTBase@N@@UBEXAAN0@Z
	?IsA@?$TMatrixTBase@N@@UBEPAVTClass@@XZ
	??1?$TMatrixT@N@@UAE@XZ
	?GetMatrixArray@?$TMatrixT@N@@UBEPBNXZ
	?GetMatrixArray@?$TMatrixT@N@@UAEPANXZ
	?GetRowIndexArray@?$TMatrixT@N@@UBEPBHXZ
	?GetRowIndexArray@?$TMatrixT@N@@UAEPAHXZ
	?GetColIndexArray@?$TMatrixT@N@@UBEPBHXZ
	?GetColIndexArray@?$TMatrixT@N@@UAEPAHXZ
	?SetRowIndexArray@?$TMatrixT@N@@UAEAAV?$TMatrixTBase@N@@PAH@Z
	?SetColIndexArray@?$TMatrixT@N@@UAEAAV?$TMatrixTBase@N@@PAH@Z
	?Clear@?$TMatrixT@N@@UAEXPBD@Z
	??R?$TMatrixT@N@@UBENHH@Z
	??R?$TMatrixT@N@@UAEAANHH@Z
	?IsA@?$TMatrixT@N@@UBEPAVTClass@@XZ
	??1?$TVectorT@N@@UAE@XZ
	?IsValid@?$TVectorT@N@@QBE_NXZ
	?ResizeTo@?$TVectorT@N@@QAEAAV1@H@Z
	??R?$TVectorT@N@@QAEAANH@Z
	?Clear@?$TVectorT@N@@UAEXPBD@Z
	?IsA@?$TVectorT@N@@UBEPAVTClass@@XZ
	??$Sort@NH@TMath@@YAXHPBNPAH_N@Z
	??$BinarySearch@N@TMath@@YA_J_JPBNN@Z
	??$construct@PADAAPAD@?$_Wrap_alloc@V?$allocator@D@std@@@std@@QAEXPAPADAAPAD@Z
	??$destroy@PAD@?$_Wrap_alloc@V?$allocator@D@std@@@std@@QAEXPAPAD@Z
	??$addressof@D@std@@YAPADAAD@Z
	??$_Allocate@D@std@@YAPADIPAD@Z
	??$_Move@AAH@std@@YA$$QAHAAH@Z
	??0?$CompareDesc@PBN@@QAE@PBN@Z
	??$sort@PAHU?$CompareDesc@PBN@@@std@@YAXPAH0U?$CompareDesc@PBN@@@Z
	??0?$CompareAsc@PBN@@QAE@PBN@Z
	??$sort@PAHU?$CompareAsc@PBN@@@std@@YAXPAH0U?$CompareAsc@PBN@@@Z
	??$lower_bound@PBNN@std@@YAPBNPBN0ABN@Z
	??$forward@AAPAD@std@@YAAAPADAAPAD@Z
	??$construct@PADAAPAD@?$allocator_traits@V?$allocator@D@std@@@std@@SAXAAV?$allocator@D@1@PAPADAAPAD@Z
	??$destroy@PAD@?$allocator_traits@V?$allocator@D@std@@@std@@SAXAAV?$allocator@D@1@PAPAD@Z
	??$_Unchecked@PAH@std@@YAPAHPAH@Z
	??$_Sort@PAHHU?$CompareDesc@PBN@@@std@@YAXPAH0HU?$CompareDesc@PBN@@@Z
	??$_Sort@PAHHU?$CompareAsc@PBN@@@std@@YAXPAH0HU?$CompareAsc@PBN@@@Z
	??$lower_bound@PBNNU?$less@X@std@@@std@@YAPBNPBN0ABNU?$less@X@0@@Z
	??$construct@PADAAPAD@?$allocator@D@std@@QAEXPAPADAAPAD@Z
	??$destroy@PAD@?$allocator@D@std@@QAEXPAPAD@Z
	??$_Unguarded_partition@PAHU?$CompareDesc@PBN@@@std@@YA?AU?$pair@PAHPAH@0@PAH0U?$CompareDesc@PBN@@@Z
	??$make_heap@PAHU?$CompareDesc@PBN@@@std@@YAXPAH0U?$CompareDesc@PBN@@@Z
	??$sort_heap@PAHU?$CompareDesc@PBN@@@std@@YAXPAH0U?$CompareDesc@PBN@@@Z
	??$_Insertion_sort@PAHU?$CompareDesc@PBN@@@std@@YAXPAH0U?$CompareDesc@PBN@@@Z
	??$_Unguarded_partition@PAHU?$CompareAsc@PBN@@@std@@YA?AU?$pair@PAHPAH@0@PAH0U?$CompareAsc@PBN@@@Z
	??$make_heap@PAHU?$CompareAsc@PBN@@@std@@YAXPAH0U?$CompareAsc@PBN@@@Z
	??$sort_heap@PAHU?$CompareAsc@PBN@@@std@@YAXPAH0U?$CompareAsc@PBN@@@Z
	??$_Insertion_sort@PAHU?$CompareAsc@PBN@@@std@@YAXPAH0U?$CompareAsc@PBN@@@Z
	??$_Unchecked@PBN@std@@YAPBNPBN@Z
	??$_Dist_type@PBN@std@@YAPAHPBN@Z
	??$_Lower_bound@PBNNHU?$less@X@std@@@std@@YAPBNPBN0ABNU?$less@X@0@PAH@Z
	??$_Rechecked@PBNPBN@std@@YAAAPBNAAPBNPBN@Z
	??$_Median@PAHU?$CompareDesc@PBN@@@std@@YAXPAH00U?$CompareDesc@PBN@@@Z
	??$?RH@?$CompareDesc@PBN@@QAE_NHH@Z
	??$iter_swap@PAHPAH@std@@YAXPAH0@Z
	??$?0AAPAHAAPAHX@?$pair@PAHPAH@std@@QAE@AAPAH0@Z
	??$_Dist_type@PAH@std@@YAPAHPAH@Z
	??$_Val_type@PAH@std@@YAPAHPAH@Z
	??$_Make_heap@PAHHHU?$CompareDesc@PBN@@@std@@YAXPAH0U?$CompareDesc@PBN@@00@Z
	??$_Sort_heap@PAHU?$CompareDesc@PBN@@@std@@YAXPAH0U?$CompareDesc@PBN@@@Z
	??$_Insertion_sort1@PAHU?$CompareDesc@PBN@@H@std@@YAXPAH0U?$CompareDesc@PBN@@0@Z
	??$_Median@PAHU?$CompareAsc@PBN@@@std@@YAXPAH00U?$CompareAsc@PBN@@@Z
	??$?RH@?$CompareAsc@PBN@@QAE_NHH@Z
	??$_Make_heap@PAHHHU?$CompareAsc@PBN@@@std@@YAXPAH0U?$CompareAsc@PBN@@00@Z
	??$_Sort_heap@PAHU?$CompareAsc@PBN@@@std@@YAXPAH0U?$CompareAsc@PBN@@@Z
	??$_Insertion_sort1@PAHU?$CompareAsc@PBN@@H@std@@YAXPAH0U?$CompareAsc@PBN@@0@Z
	??$_Distance@PBNH@std@@YAXPBN0AAH@Z
	??$advance@PBNH@std@@YAXAAPBNH@Z
	??$?RABNABN@?$less@X@std@@QBE_NABN0@Z
	??$_Med3@PAHU?$CompareDesc@PBN@@@std@@YAXPAH00U?$CompareDesc@PBN@@@Z
	??$forward@AAPAH@std@@YAAAPAHAAPAH@Z
	??$_Adjust_heap@PAHHHU?$CompareDesc@PBN@@@std@@YAXPAHHH$$QAHU?$CompareDesc@PBN@@@Z
	??$_Pop_heap@PAHU?$CompareDesc@PBN@@@std@@YAXPAH0U?$CompareDesc@PBN@@@Z
	??$_Move_backward@PAHPAH@std@@YAPAHPAH00@Z
	??$_Med3@PAHU?$CompareAsc@PBN@@@std@@YAXPAH00U?$CompareAsc@PBN@@@Z
	??$_Adjust_heap@PAHHHU?$CompareAsc@PBN@@@std@@YAXPAHHH$$QAHU?$CompareAsc@PBN@@@Z
	??$_Pop_heap@PAHU?$CompareAsc@PBN@@@std@@YAXPAH0U?$CompareAsc@PBN@@@Z
	??$_Iter_cat@PBN@std@@YA?AUrandom_access_iterator_tag@0@ABQBN@Z
	??$_Distance2@PBNH@std@@YAXPBN0AAHUrandom_access_iterator_tag@0@@Z
	??$_Advance@PBNH@std@@YAXAAPBNHUrandom_access_iterator_tag@0@@Z
	??$_Push_heap@PAHHHU?$CompareDesc@PBN@@@std@@YAXPAHHH$$QAHU?$CompareDesc@PBN@@@Z
	??$_Pop_heap_0@PAHHU?$CompareDesc@PBN@@@std@@YAXPAH0U?$CompareDesc@PBN@@0@Z
	??$_Ptr_cat@HH@std@@YA?AU_Scalar_ptr_iterator_tag@0@PAH0@Z
	??$_Move_backward@PAHPAH@std@@YAPAHPAH00U_Scalar_ptr_iterator_tag@0@@Z
	??$_Push_heap@PAHHHU?$CompareAsc@PBN@@@std@@YAXPAHHH$$QAHU?$CompareAsc@PBN@@@Z
	??$_Pop_heap_0@PAHHU?$CompareAsc@PBN@@@std@@YAXPAH0U?$CompareAsc@PBN@@0@Z
	??$_Pop_heap@PAHHHU?$CompareDesc@PBN@@@std@@YAXPAH00$$QAHU?$CompareDesc@PBN@@0@Z
	??$_Pop_heap@PAHHHU?$CompareAsc@PBN@@@std@@YAXPAH00$$QAHU?$CompareAsc@PBN@@0@Z
	?_Generic_object@?$_Error_objects@H@std@@2V_Generic_error_category@2@A 	 DATA
	?_Iostream_object@?$_Error_objects@H@std@@2V_Iostream_error_category@2@A 	 DATA
	?_System_object@?$_Error_objects@H@std@@2V_System_error_category@2@A 	 DATA
	?id@?$num_put@DV?$back_insert_iterator@V?$basic_string@DU?$char_traits@D@std@@V?$allocator@D@2@@std@@@std@@@std@@2V0locale@2@A 	 DATA
	?id@?$num_put@_WV?$back_insert_iterator@V?$basic_string@_WU?$char_traits@_W@std@@V?$allocator@_W@2@@std@@@std@@@std@@2V0locale@2@A 	 DATA
	??_R0?AVTObject@@@8 	 DATA
	??_R0?AVerror_category@std@@@8 	 DATA
	??_R0?AV_Generic_error_category@std@@@8 	 DATA
	??_R0?AV_Iostream_error_category@std@@@8 	 DATA
	??_R0?AV_System_error_category@std@@@8 	 DATA
	??_R0?AV?$TVectorT@N@@@8 	 DATA
	??_R0?AV?$TMatrixTBase@N@@@8 	 DATA
	??_R0?AV?$TMatrixT@N@@@8 	 DATA
	hypot
	??2@YAPAXIPAX@Z
	??3@YAXPAX0@Z
	?length@?$char_traits@D@std@@SAIPBD@Z
	?copy@?$char_traits@D@std@@SAPADPADPBDI@Z
	?move@?$char_traits@D@std@@SAPADPADPBDI@Z
	?assign@?$char_traits@D@std@@SAXAADABD@Z
	??0?$allocator@D@std@@QAE@XZ
	?deallocate@?$allocator@D@std@@QAEXPADI@Z
	?allocate@?$allocator@D@std@@QAEPADI@Z
	?max_size@?$allocator@D@std@@QBEIXZ
	?max_size@?$allocator_traits@V?$allocator@D@std@@@std@@SAIABV?$allocator@D@2@@Z
	??0?$_Wrap_alloc@V?$allocator@D@std@@@std@@QAE@XZ
	?allocate@?$_Wrap_alloc@V?$allocator@D@std@@@std@@QAEPADI@Z
	?deallocate@?$_Wrap_alloc@V?$allocator@D@std@@@std@@QAEXPADI@Z
	?max_size@?$_Wrap_alloc@V?$allocator@D@std@@@std@@QBEIXZ
	??0?$_String_val@U?$_Simple_types@D@std@@@std@@QAE@XZ
	?_Myptr@?$_String_val@U?$_Simple_types@D@std@@@std@@QAEPADXZ
	?_Myptr@?$_String_val@U?$_Simple_types@D@std@@@std@@QBEPBDXZ
	??0?$_String_alloc@$0A@U?$_String_base_types@DV?$allocator@D@std@@@std@@@std@@QAE@ABV?$allocator@D@1@@Z
	?_Getal@?$_String_alloc@$0A@U?$_String_base_types@DV?$allocator@D@std@@@std@@@std@@QBE?AU?$_Wrap_alloc@V?$allocator@D@std@@@2@XZ
	??0?$basic_string@DU?$char_traits@D@std@@V?$allocator@D@2@@std@@QAE@PBD@Z
	??1?$basic_string@DU?$char_traits@D@std@@V?$allocator@D@2@@std@@QAE@XZ
	?assign@?$basic_string@DU?$char_traits@D@std@@V?$allocator@D@2@@std@@QAEAAV12@ABV12@II@Z
	?assign@?$basic_string@DU?$char_traits@D@std@@V?$allocator@D@2@@std@@QAEAAV12@PBDI@Z
	?assign@?$basic_string@DU?$char_traits@D@std@@V?$allocator@D@2@@std@@QAEAAV12@PBD@Z
	?erase@?$basic_string@DU?$char_traits@D@std@@V?$allocator@D@2@@std@@QAEAAV12@I@Z
	?erase@?$basic_string@DU?$char_traits@D@std@@V?$allocator@D@2@@std@@QAEAAV12@II@Z
	?size@?$basic_string@DU?$char_traits@D@std@@V?$allocator@D@2@@std@@QBEIXZ
	?max_size@?$basic_string@DU?$char_traits@D@std@@V?$allocator@D@2@@std@@QBEIXZ
	?_Copy@?$basic_string@DU?$char_traits@D@std@@V?$allocator@D@2@@std@@QAEXII@Z
	?_Eos@?$basic_string@DU?$char_traits@D@std@@V?$allocator@D@2@@std@@QAEXI@Z
	?_Grow@?$basic_string@DU?$char_traits@D@std@@V?$allocator@D@2@@std@@QAE_NI_N@Z
	?_Inside@?$basic_string@DU?$char_traits@D@std@@V?$allocator@D@2@@std@@QAE_NPBD@Z
	?_Tidy@?$basic_string@DU?$char_traits@D@std@@V?$allocator@D@2@@std@@QAEX_NI@Z
	?_Xlen@?$basic_string@DU?$char_traits@D@std@@V?$allocator@D@2@@std@@QBEXXZ
	?_Xran@?$basic_string@DU?$char_traits@D@std@@V?$allocator@D@2@@std@@QBEXXZ
	?generic_category@std@@YAABVerror_category@1@XZ
	?system_category@std@@YAABVerror_category@1@XZ
	??0error_category@std@@QAE@XZ
	??1error_category@std@@UAE@XZ
	?default_error_condition@error_category@std@@UBE?AVerror_condition@2@H@Z
	?equivalent@error_category@std@@UBE_NHABVerror_condition@2@@Z
	?equivalent@error_category@std@@UBE_NABVerror_code@2@H@Z
	??8error_category@std@@QBE_NABV01@@Z
	?value@error_code@std@@QBEHXZ
	?category@error_code@std@@QBEABVerror_category@2@XZ
	??0error_condition@std@@QAE@HABVerror_category@1@@Z
	?value@error_condition@std@@QBEHXZ
	?category@error_condition@std@@QBEABVerror_category@2@XZ
	??8error_condition@std@@QBE_NABV01@@Z
	??0_Generic_error_category@std@@QAE@XZ
	?name@_Generic_error_category@std@@UBEPBDXZ
	?message@_Generic_error_category@std@@UBE?AV?$basic_string@DU?$char_traits@D@std@@V?$allocator@D@2@@2@H@Z
	??1_Generic_error_category@std@@UAE@XZ
	??0_Iostream_error_category@std@@QAE@XZ
	?name@_Iostream_error_category@std@@UBEPBDXZ
	?message@_Iostream_error_category@std@@UBE?AV?$basic_string@DU?$char_traits@D@std@@V?$allocator@D@2@@2@H@Z
	??1_Iostream_error_category@std@@UAE@XZ
	??0_System_error_category@std@@QAE@XZ
	?name@_System_error_category@std@@UBEPBDXZ
	?message@_System_error_category@std@@UBE?AV?$basic_string@DU?$char_traits@D@std@@V?$allocator@D@2@@2@H@Z
	?default_error_condition@_System_error_category@std@@UBE?AVerror_condition@2@H@Z
	??1_System_error_category@std@@UAE@XZ
	??$swap@H@std@@YAXAAH0@Z
	?Clear@TObject@@UAEXPBD@Z
	?GetOption@TObject@@UBEPBDXZ
	?IsSortable@TObject@@UBE_NXZ
	??2TObject@@SAPAXI@Z
	?IsReading@TBuffer@@QBE_NXZ
	??5@YAAAVTBuffer@@AAV0@AAH@Z
	??6@YAAAVTBuffer@@AAV0@H@Z
	??6@YAAAVTBuffer@@AAV0@PBVTObject@@@Z
	?Min@TMath@@YAHHH@Z
	?Max@TMath@@YAHHH@Z
	?Contains@TString@@QBE_NPBDW4ECaseCompare@1@@Z
	?Sqrt@TMath@@YANN@Z
	?BoundsOk@TArray@@IBE_NPBDH@Z
	?GetArray@TArrayI@@QAEPAHXZ
	??ATArrayI@@QAEAAHH@Z
	?Reset@TArrayF@@QAEXM@Z
	??ATArrayF@@QAEAAMH@Z
	??ATArrayF@@QBEMH@Z
	??0EdbH1@@QAE@HMM@Z
	?IsA@EdbH1@@UBEPAVTClass@@XZ
	??0EdbH2@@QAE@XZ
	??0EdbH2@@QAE@ABV0@@Z
	??1EdbH2@@UAE@XZ
	?Set0@EdbH2@@QAEXXZ
	?Copy@EdbH2@@QAEXABV1@@Z
	?InitH2@EdbH2@@QAEHABV1@@Z
	?InitH2@EdbH2@@QAEHQAHQAM1@Z
	?InitH2@EdbH2@@QAEHHMMHMM@Z
	?CleanCells@EdbH2@@QAEXXZ
	?PrintStat@EdbH2@@QAEXXZ
	?Delete@EdbH2@@QAEXXZ
	?DiscardHighCells@EdbH2@@QAEHH@Z
	?Ncell@EdbH2@@QBEHXZ
	?NX@EdbH2@@QBEHXZ
	?NY@EdbH2@@QBEHXZ
	?IX@EdbH2@@QBEHM@Z
	?IY@EdbH2@@QBEHM@Z
	?IX@EdbH2@@QBEHH@Z
	?IY@EdbH2@@QBEHH@Z
	?Jcell@EdbH2@@QBEHHH@Z
	?Jcell@EdbH2@@QBEHMM@Z
	?X@EdbH2@@QBEMH@Z
	?Y@EdbH2@@QBEMH@Z
	?Xmin@EdbH2@@QBEMXZ
	?Xmax@EdbH2@@QBEMXZ
	?Ymin@EdbH2@@QBEMXZ
	?Ymax@EdbH2@@QBEMXZ
	?XminA@EdbH2@@QAEMM@Z
	?XmaxA@EdbH2@@QAEMM@Z
	?YminA@EdbH2@@QAEMM@Z
	?YmaxA@EdbH2@@QAEMM@Z
	?ProjectionX@EdbH2@@QAEPAVEdbH1@@XZ
	?ProjectionY@EdbH2@@QAEPAVEdbH1@@XZ
	?Bin@EdbH2@@QBEHHH@Z
	?Bin@EdbH2@@QBEHQAH@Z
	?MaxBin@EdbH2@@QAEHXZ
	?Fill@EdbH2@@QAEHMMH@Z
	?SetBin@EdbH2@@QAEXHHH@Z
	?Integral@EdbH2@@QAEJXZ
	?Integral@EdbH2@@QAEJQAH0@Z
	?DrawSpectrum@EdbH2@@QAEPAVTH1I@@PBD0@Z
	?DrawH2@EdbH2@@QAEPAVTH2F@@PBD0@Z
	?IsA@EdbH2@@UBEPAVTClass@@XZ
	?Delete@EdbPeak2@@QAEXXZ
	?Init@EdbPeak2@@QAEXABVEdbH2@@H@Z
	?Print@EdbPeak2@@QAEXXZ
	?InitPeaks@EdbPeak2@@QAEXH@Z
	?FindPeak@EdbPeak2@@QAEHQAH@Z
	?FindPeak@EdbPeak2@@QAEHQAM@Z
	?FindPeak@EdbPeak2@@QAEHAAM0@Z
	?FindPeak9@EdbPeak2@@QAEMAAM0@Z
	?FindGlobalPeak@EdbPeak2@@QAEMAAM0M@Z
	?ProbPeak@EdbPeak2@@QAEMXZ
	?ProbPeak@EdbPeak2@@QAEMAAM0@Z
	?ProbPeak@EdbPeak2@@QAEMQAH0@Z
	?WipePeak@EdbPeak2@@QAEHQAH0@Z
	?ProbPeaks@EdbPeak2@@QAEHH@Z
	?ProbPeaks@EdbPeak2@@QAEHHQAH@Z
	?EstimatePeakVolume@EdbPeak2@@QAEMH@Z
	?EstimatePeakVolumeSafe@EdbPeak2@@QAEMH@Z
	?EstimatePeakMeanPosition@EdbPeak2@@QAEMQAH0AAM1@Z
	?Smooth@EdbPeak2@@QAEMPBD@Z
	?Xmean@EdbPeak2@@QAEMXZ
	?Ymean@EdbPeak2@@QAEMXZ
	?Mean@EdbPeak2@@QBEMH@Z
	??0EdbCell2@@QAE@XZ
	??1EdbCell2@@UAE@XZ
	?Set0@EdbCell2@@QAEXXZ
	?Copy@EdbCell2@@QAEXABV1@@Z
	?InitEPC@EdbCell2@@QAEXXZ
	?InitCell@EdbCell2@@QAEHHMMHMMH@Z
	?InitCell@EdbCell2@@QAEHHQAHQAM1@Z
	?Delete@EdbCell2@@QAEXXZ
	?AddObject@EdbCell2@@QAE_NMMPAVTObject@@@Z
	?AddObject@EdbCell2@@QAE_NHHPAVTObject@@@Z
	?AddObject@EdbCell2@@QAE_NHPAVTObject@@@Z
	?SelectObjects@EdbCell2@@QAEHAAVTObjArray@@@Z
	?SelectObjects@EdbCell2@@QAEHQAH0AAVTObjArray@@@Z
	?SelectObjects@EdbCell2@@QAEHQAM0AAVTObjArray@@@Z
	?SelectObjectsC@EdbCell2@@QAEHQAH0AAVTObjArray@@@Z
	?GetObject@EdbCell2@@QBEPAVTObject@@HH@Z
	?PrintStat@EdbCell2@@QAEXXZ
	?IsA@EdbCell2@@UBEPAVTClass@@XZ
	?Streamer@EdbCell2@@UAEXAAVTBuffer@@@Z
	??0_Ignore@std@@QAE@XZ
	??$Sort@HH@TMath@@YAXHPBHPAH_N@Z
	??$construct@PADAAPAD@?$_Wrap_alloc@V?$allocator@D@std@@@std@@QAEXPAPADAAPAD@Z
	??$destroy@PAD@?$_Wrap_alloc@V?$allocator@D@std@@@std@@QAEXPAPAD@Z
	??$addressof@D@std@@YAPADAAD@Z
	??$_Allocate@D@std@@YAPADIPAD@Z
	??$_Move@AAH@std@@YA$$QAHAAH@Z
	??0?$CompareDesc@PBH@@QAE@PBH@Z
	??$sort@PAHU?$CompareDesc@PBH@@@std@@YAXPAH0U?$CompareDesc@PBH@@@Z
	??0?$CompareAsc@PBH@@QAE@PBH@Z
	??$sort@PAHU?$CompareAsc@PBH@@@std@@YAXPAH0U?$CompareAsc@PBH@@@Z
	??$forward@AAPAD@std@@YAAAPADAAPAD@Z
	??$construct@PADAAPAD@?$allocator_traits@V?$allocator@D@std@@@std@@SAXAAV?$allocator@D@1@PAPADAAPAD@Z
	??$destroy@PAD@?$allocator_traits@V?$allocator@D@std@@@std@@SAXAAV?$allocator@D@1@PAPAD@Z
	??$_Unchecked@PAH@std@@YAPAHPAH@Z
	??$_Sort@PAHHU?$CompareDesc@PBH@@@std@@YAXPAH0HU?$CompareDesc@PBH@@@Z
	??$_Sort@PAHHU?$CompareAsc@PBH@@@std@@YAXPAH0HU?$CompareAsc@PBH@@@Z
	??$construct@PADAAPAD@?$allocator@D@std@@QAEXPAPADAAPAD@Z
	??$destroy@PAD@?$allocator@D@std@@QAEXPAPAD@Z
	??$_Unguarded_partition@PAHU?$CompareDesc@PBH@@@std@@YA?AU?$pair@PAHPAH@0@PAH0U?$CompareDesc@PBH@@@Z
	??$make_heap@PAHU?$CompareDesc@PBH@@@std@@YAXPAH0U?$CompareDesc@PBH@@@Z
	??$sort_heap@PAHU?$CompareDesc@PBH@@@std@@YAXPAH0U?$CompareDesc@PBH@@@Z
	??$_Insertion_sort@PAHU?$CompareDesc@PBH@@@std@@YAXPAH0U?$CompareDesc@PBH@@@Z
	??$_Unguarded_partition@PAHU?$CompareAsc@PBH@@@std@@YA?AU?$pair@PAHPAH@0@PAH0U?$CompareAsc@PBH@@@Z
	??$make_heap@PAHU?$CompareAsc@PBH@@@std@@YAXPAH0U?$CompareAsc@PBH@@@Z
	??$sort_heap@PAHU?$CompareAsc@PBH@@@std@@YAXPAH0U?$CompareAsc@PBH@@@Z
	??$_Insertion_sort@PAHU?$CompareAsc@PBH@@@std@@YAXPAH0U?$CompareAsc@PBH@@@Z
	??$_Median@PAHU?$CompareDesc@PBH@@@std@@YAXPAH00U?$CompareDesc@PBH@@@Z
	??$?RH@?$CompareDesc@PBH@@QAE_NHH@Z
	??$iter_swap@PAHPAH@std@@YAXPAH0@Z
	??$?0AAPAHAAPAHX@?$pair@PAHPAH@std@@QAE@AAPAH0@Z
	??$_Dist_type@PAH@std@@YAPAHPAH@Z
	??$_Val_type@PAH@std@@YAPAHPAH@Z
	??$_Make_heap@PAHHHU?$CompareDesc@PBH@@@std@@YAXPAH0U?$CompareDesc@PBH@@00@Z
	??$_Sort_heap@PAHU?$CompareDesc@PBH@@@std@@YAXPAH0U?$CompareDesc@PBH@@@Z
	??$_Insertion_sort1@PAHU?$CompareDesc@PBH@@H@std@@YAXPAH0U?$CompareDesc@PBH@@0@Z
	??$_Median@PAHU?$CompareAsc@PBH@@@std@@YAXPAH00U?$CompareAsc@PBH@@@Z
	??$?RH@?$CompareAsc@PBH@@QAE_NHH@Z
	??$_Make_heap@PAHHHU?$CompareAsc@PBH@@@std@@YAXPAH0U?$CompareAsc@PBH@@00@Z
	??$_Sort_heap@PAHU?$CompareAsc@PBH@@@std@@YAXPAH0U?$CompareAsc@PBH@@@Z
	??$_Insertion_sort1@PAHU?$CompareAsc@PBH@@H@std@@YAXPAH0U?$CompareAsc@PBH@@0@Z
	??$_Med3@PAHU?$CompareDesc@PBH@@@std@@YAXPAH00U?$CompareDesc@PBH@@@Z
	??$forward@AAPAH@std@@YAAAPAHAAPAH@Z
	??$_Adjust_heap@PAHHHU?$CompareDesc@PBH@@@std@@YAXPAHHH$$QAHU?$CompareDesc@PBH@@@Z
	??$_Pop_heap@PAHU?$CompareDesc@PBH@@@std@@YAXPAH0U?$CompareDesc@PBH@@@Z
	??$_Move_backward@PAHPAH@std@@YAPAHPAH00@Z
	??$_Med3@PAHU?$CompareAsc@PBH@@@std@@YAXPAH00U?$CompareAsc@PBH@@@Z
	??$_Adjust_heap@PAHHHU?$CompareAsc@PBH@@@std@@YAXPAHHH$$QAHU?$CompareAsc@PBH@@@Z
	??$_Pop_heap@PAHU?$CompareAsc@PBH@@@std@@YAXPAH0U?$CompareAsc@PBH@@@Z
	??$_Push_heap@PAHHHU?$CompareDesc@PBH@@@std@@YAXPAHHH$$QAHU?$CompareDesc@PBH@@@Z
	??$_Pop_heap_0@PAHHU?$CompareDesc@PBH@@@std@@YAXPAH0U?$CompareDesc@PBH@@0@Z
	??$_Ptr_cat@HH@std@@YA?AU_Scalar_ptr_iterator_tag@0@PAH0@Z
	??$_Move_backward@PAHPAH@std@@YAPAHPAH00U_Scalar_ptr_iterator_tag@0@@Z
	??$_Push_heap@PAHHHU?$CompareAsc@PBH@@@std@@YAXPAHHH$$QAHU?$CompareAsc@PBH@@@Z
	??$_Pop_heap_0@PAHHU?$CompareAsc@PBH@@@std@@YAXPAH0U?$CompareAsc@PBH@@0@Z
	??$_Pop_heap@PAHHHU?$CompareDesc@PBH@@@std@@YAXPAH00$$QAHU?$CompareDesc@PBH@@0@Z
	??$_Pop_heap@PAHHHU?$CompareAsc@PBH@@@std@@YAXPAH00$$QAHU?$CompareAsc@PBH@@0@Z
	?_Generic_object@?$_Error_objects@H@std@@2V_Generic_error_category@2@A 	 DATA
	?_Iostream_object@?$_Error_objects@H@std@@2V_Iostream_error_category@2@A 	 DATA
	?_System_object@?$_Error_objects@H@std@@2V_System_error_category@2@A 	 DATA
	?id@?$num_put@DV?$back_insert_iterator@V?$basic_string@DU?$char_traits@D@std@@V?$allocator@D@2@@std@@@std@@@std@@2V0locale@2@A 	 DATA
	?id@?$num_put@_WV?$back_insert_iterator@V?$basic_string@_WU?$char_traits@_W@std@@V?$allocator@_W@2@@std@@@std@@@std@@2V0locale@2@A 	 DATA
	??_R0?AVTObject@@@8 	 DATA
	??_R0?AVerror_category@std@@@8 	 DATA
	??_R0?AV_Generic_error_category@std@@@8 	 DATA
	??_R0?AV_Iostream_error_category@std@@@8 	 DATA
	??_R0?AV_System_error_category@std@@@8 	 DATA
	??_R0?AVEdbH1@@@8 	 DATA
	??_R0?AVEdbH2@@@8 	 DATA
	??_R0?AVEdbCell2@@@8 	 DATA
	__isa_available_default 	 DATA
	hypot
	??2@YAPAXIPAX@Z
	??3@YAXPAX0@Z
	?length@?$char_traits@D@std@@SAIPBD@Z
	?copy@?$char_traits@D@std@@SAPADPADPBDI@Z
	?move@?$char_traits@D@std@@SAPADPADPBDI@Z
	?assign@?$char_traits@D@std@@SAXAADABD@Z
	??0?$allocator@D@std@@QAE@XZ
	?deallocate@?$allocator@D@std@@QAEXPADI@Z
	?allocate@?$allocator@D@std@@QAEPADI@Z
	?max_size@?$allocator@D@std@@QBEIXZ
	?max_size@?$allocator_traits@V?$allocator@D@std@@@std@@SAIABV?$allocator@D@2@@Z
	??0?$_Wrap_alloc@V?$allocator@D@std@@@std@@QAE@XZ
	?allocate@?$_Wrap_alloc@V?$allocator@D@std@@@std@@QAEPADI@Z
	?deallocate@?$_Wrap_alloc@V?$allocator@D@std@@@std@@QAEXPADI@Z
	?max_size@?$_Wrap_alloc@V?$allocator@D@std@@@std@@QBEIXZ
	??0?$_String_val@U?$_Simple_types@D@std@@@std@@QAE@XZ
	?_Myptr@?$_String_val@U?$_Simple_types@D@std@@@std@@QAEPADXZ
	?_Myptr@?$_String_val@U?$_Simple_types@D@std@@@std@@QBEPBDXZ
	??0?$_String_alloc@$0A@U?$_String_base_types@DV?$allocator@D@std@@@std@@@std@@QAE@ABV?$allocator@D@1@@Z
	?_Getal@?$_String_alloc@$0A@U?$_String_base_types@DV?$allocator@D@std@@@std@@@std@@QBE?AU?$_Wrap_alloc@V?$allocator@D@std@@@2@XZ
	??0?$basic_string@DU?$char_traits@D@std@@V?$allocator@D@2@@std@@QAE@PBD@Z
	??1?$basic_string@DU?$char_traits@D@std@@V?$allocator@D@2@@std@@QAE@XZ
	?assign@?$basic_string@DU?$char_traits@D@std@@V?$allocator@D@2@@std@@QAEAAV12@ABV12@II@Z
	?assign@?$basic_string@DU?$char_traits@D@std@@V?$allocator@D@2@@std@@QAEAAV12@PBDI@Z
	?assign@?$basic_string@DU?$char_traits@D@std@@V?$allocator@D@2@@std@@QAEAAV12@PBD@Z
	?erase@?$basic_string@DU?$char_traits@D@std@@V?$allocator@D@2@@std@@QAEAAV12@I@Z
	?erase@?$basic_string@DU?$char_traits@D@std@@V?$allocator@D@2@@std@@QAEAAV12@II@Z
	?size@?$basic_string@DU?$char_traits@D@std@@V?$allocator@D@2@@std@@QBEIXZ
	?max_size@?$basic_string@DU?$char_traits@D@std@@V?$allocator@D@2@@std@@QBEIXZ
	?_Copy@?$basic_string@DU?$char_traits@D@std@@V?$allocator@D@2@@std@@QAEXII@Z
	?_Eos@?$basic_string@DU?$char_traits@D@std@@V?$allocator@D@2@@std@@QAEXI@Z
	?_Grow@?$basic_string@DU?$char_traits@D@std@@V?$allocator@D@2@@std@@QAE_NI_N@Z
	?_Inside@?$basic_string@DU?$char_traits@D@std@@V?$allocator@D@2@@std@@QAE_NPBD@Z
	?_Tidy@?$basic_string@DU?$char_traits@D@std@@V?$allocator@D@2@@std@@QAEX_NI@Z
	?_Xlen@?$basic_string@DU?$char_traits@D@std@@V?$allocator@D@2@@std@@QBEXXZ
	?_Xran@?$basic_string@DU?$char_traits@D@std@@V?$allocator@D@2@@std@@QBEXXZ
	?generic_category@std@@YAABVerror_category@1@XZ
	?system_category@std@@YAABVerror_category@1@XZ
	??0error_category@std@@QAE@XZ
	??1error_category@std@@UAE@XZ
	?default_error_condition@error_category@std@@UBE?AVerror_condition@2@H@Z
	?equivalent@error_category@std@@UBE_NHABVerror_condition@2@@Z
	?equivalent@error_category@std@@UBE_NABVerror_code@2@H@Z
	??8error_category@std@@QBE_NABV01@@Z
	?value@error_code@std@@QBEHXZ
	?category@error_code@std@@QBEABVerror_category@2@XZ
	??0error_condition@std@@QAE@HABVerror_category@1@@Z
	?value@error_condition@std@@QBEHXZ
	?category@error_condition@std@@QBEABVerror_category@2@XZ
	??8error_condition@std@@QBE_NABV01@@Z
	??0_Generic_error_category@std@@QAE@XZ
	?name@_Generic_error_category@std@@UBEPBDXZ
	?message@_Generic_error_category@std@@UBE?AV?$basic_string@DU?$char_traits@D@std@@V?$allocator@D@2@@2@H@Z
	??1_Generic_error_category@std@@UAE@XZ
	??0_Iostream_error_category@std@@QAE@XZ
	?name@_Iostream_error_category@std@@UBEPBDXZ
	?message@_Iostream_error_category@std@@UBE?AV?$basic_string@DU?$char_traits@D@std@@V?$allocator@D@2@@2@H@Z
	??1_Iostream_error_category@std@@UAE@XZ
	??0_System_error_category@std@@QAE@XZ
	?name@_System_error_category@std@@UBEPBDXZ
	?message@_System_error_category@std@@UBE?AV?$basic_string@DU?$char_traits@D@std@@V?$allocator@D@2@@2@H@Z
	?default_error_condition@_System_error_category@std@@UBE?AVerror_condition@2@H@Z
	??1_System_error_category@std@@UAE@XZ
	?Clear@TObject@@UAEXPBD@Z
	?GetOption@TObject@@UBEPBDXZ
	?IsSortable@TObject@@UBE_NXZ
	??2TObject@@SAPAXI@Z
	?Min@TMath@@YAHHH@Z
	?Max@TMath@@YAHHH@Z
	??0EdbH1@@QAE@XZ
	??0EdbH1@@QAE@ABV0@@Z
	??1EdbH1@@UAE@XZ
	?Set0@EdbH1@@QAEXXZ
	?Copy@EdbH1@@QAEXABV1@@Z
	?InitH1@EdbH1@@QAEHHMM@Z
	?CleanCells@EdbH1@@QAEXXZ
	?PrintStat@EdbH1@@QAEXXZ
	?Print@EdbH1@@QAEXXZ
	?Delete@EdbH1@@QAEXXZ
	?DiscardHighCells@EdbH1@@QAEHH@Z
	?N@EdbH1@@QBEHXZ
	?IX@EdbH1@@QBEHM@Z
	?Jcell@EdbH1@@QBEHH@Z
	?Jcell@EdbH1@@QBEHM@Z
	?X@EdbH1@@QBEMH@Z
	?Bin@EdbH1@@QBEHH@Z
	?MaxBin@EdbH1@@QAEHXZ
	?XminA@EdbH1@@QAEMM@Z
	?XmaxA@EdbH1@@QAEMM@Z
	?Fill@EdbH1@@QAEHMH@Z
	?Integral@EdbH1@@QAEJXZ
	?Integral@EdbH1@@QAEJHH@Z
	?DrawSpectrum@EdbH1@@QAEPAVTH1I@@PBD@Z
	?DrawH1@EdbH1@@QAEPAVTH1F@@PBD0@Z
	?IsA@EdbH1@@UBEPAVTClass@@XZ
	??0EdbCell1@@QAE@XZ
	??1EdbCell1@@UAE@XZ
	?InitCell@EdbCell1@@QAEHHHMM@Z
	?Delete@EdbCell1@@QAEXXZ
	?AddObject@EdbCell1@@QAE_NMPAVTObject@@@Z
	?AddObject@EdbCell1@@QAE_NHPAVTObject@@@Z
	?SelectObjects@EdbCell1@@QAEHAAVTObjArray@@@Z
	?SelectObjects@EdbCell1@@QAEHHHAAVTObjArray@@@Z
	?SelectObjects@EdbCell1@@QAEHMMAAVTObjArray@@@Z
	?SelectObjectsC@EdbCell1@@QAEHHHAAVTObjArray@@@Z
	?PrintStat@EdbCell1@@QAEXXZ
	?IsA@EdbCell1@@UBEPAVTClass@@XZ
	??0_Ignore@std@@QAE@XZ
	??$construct@PADAAPAD@?$_Wrap_alloc@V?$allocator@D@std@@@std@@QAEXPAPADAAPAD@Z
	??$destroy@PAD@?$_Wrap_alloc@V?$allocator@D@std@@@std@@QAEXPAPAD@Z
	??$addressof@D@std@@YAPADAAD@Z
	??$_Allocate@D@std@@YAPADIPAD@Z
	??$forward@AAPAD@std@@YAAAPADAAPAD@Z
	??$construct@PADAAPAD@?$allocator_traits@V?$allocator@D@std@@@std@@SAXAAV?$allocator@D@1@PAPADAAPAD@Z
	??$destroy@PAD@?$allocator_traits@V?$allocator@D@std@@@std@@SAXAAV?$allocator@D@1@PAPAD@Z
	??$construct@PADAAPAD@?$allocator@D@std@@QAEXPAPADAAPAD@Z
	??$destroy@PAD@?$allocator@D@std@@QAEXPAPAD@Z
	?_Generic_object@?$_Error_objects@H@std@@2V_Generic_error_category@2@A 	 DATA
	?_Iostream_object@?$_Error_objects@H@std@@2V_Iostream_error_category@2@A 	 DATA
	?_System_object@?$_Error_objects@H@std@@2V_System_error_category@2@A 	 DATA
	?id@?$num_put@DV?$back_insert_iterator@V?$basic_string@DU?$char_traits@D@std@@V?$allocator@D@2@@std@@@std@@@std@@2V0locale@2@A 	 DATA
	?id@?$num_put@_WV?$back_insert_iterator@V?$basic_string@_WU?$char_traits@_W@std@@V?$allocator@_W@2@@std@@@std@@@std@@2V0locale@2@A 	 DATA
	??_R0?AVTObject@@@8 	 DATA
	??_R0?AVerror_category@std@@@8 	 DATA
	??_R0?AV_Generic_error_category@std@@@8 	 DATA
	??_R0?AV_Iostream_error_category@std@@@8 	 DATA
	??_R0?AV_System_error_category@std@@@8 	 DATA
	??_R0?AVEdbH1@@@8 	 DATA
	??_R0?AVEdbCell1@@@8 	 DATA
	__isa_available_default 	 DATA
	hypot
	??2@YAPAXIPAX@Z
	??3@YAXPAX0@Z
	?length@?$char_traits@D@std@@SAIPBD@Z
	?copy@?$char_traits@D@std@@SAPADPADPBDI@Z
	?move@?$char_traits@D@std@@SAPADPADPBDI@Z
	?assign@?$char_traits@D@std@@SAXAADABD@Z
	??0?$allocator@D@std@@QAE@XZ
	?deallocate@?$allocator@D@std@@QAEXPADI@Z
	?allocate@?$allocator@D@std@@QAEPADI@Z
	?max_size@?$allocator@D@std@@QBEIXZ
	?max_size@?$allocator_traits@V?$allocator@D@std@@@std@@SAIABV?$allocator@D@2@@Z
	??0?$_Wrap_alloc@V?$allocator@D@std@@@std@@QAE@XZ
	?allocate@?$_Wrap_alloc@V?$allocator@D@std@@@std@@QAEPADI@Z
	?deallocate@?$_Wrap_alloc@V?$allocator@D@std@@@std@@QAEXPADI@Z
	?max_size@?$_Wrap_alloc@V?$allocator@D@std@@@std@@QBEIXZ
	??0?$_String_val@U?$_Simple_types@D@std@@@std@@QAE@XZ
	?_Myptr@?$_String_val@U?$_Simple_types@D@std@@@std@@QAEPADXZ
	?_Myptr@?$_String_val@U?$_Simple_types@D@std@@@std@@QBEPBDXZ
	??0?$_String_alloc@$0A@U?$_String_base_types@DV?$allocator@D@std@@@std@@@std@@QAE@ABV?$allocator@D@1@@Z
	?_Getal@?$_String_alloc@$0A@U?$_String_base_types@DV?$allocator@D@std@@@std@@@std@@QBE?AU?$_Wrap_alloc@V?$allocator@D@std@@@2@XZ
	??0?$basic_string@DU?$char_traits@D@std@@V?$allocator@D@2@@std@@QAE@PBD@Z
	??1?$basic_string@DU?$char_traits@D@std@@V?$allocator@D@2@@std@@QAE@XZ
	?assign@?$basic_string@DU?$char_traits@D@std@@V?$allocator@D@2@@std@@QAEAAV12@ABV12@II@Z
	?assign@?$basic_string@DU?$char_traits@D@std@@V?$allocator@D@2@@std@@QAEAAV12@PBDI@Z
	?assign@?$basic_string@DU?$char_traits@D@std@@V?$allocator@D@2@@std@@QAEAAV12@PBD@Z
	?erase@?$basic_string@DU?$char_traits@D@std@@V?$allocator@D@2@@std@@QAEAAV12@I@Z
	?erase@?$basic_string@DU?$char_traits@D@std@@V?$allocator@D@2@@std@@QAEAAV12@II@Z
	?size@?$basic_string@DU?$char_traits@D@std@@V?$allocator@D@2@@std@@QBEIXZ
	?max_size@?$basic_string@DU?$char_traits@D@std@@V?$allocator@D@2@@std@@QBEIXZ
	?_Copy@?$basic_string@DU?$char_traits@D@std@@V?$allocator@D@2@@std@@QAEXII@Z
	?_Eos@?$basic_string@DU?$char_traits@D@std@@V?$allocator@D@2@@std@@QAEXI@Z
	?_Grow@?$basic_string@DU?$char_traits@D@std@@V?$allocator@D@2@@std@@QAE_NI_N@Z
	?_Inside@?$basic_string@DU?$char_traits@D@std@@V?$allocator@D@2@@std@@QAE_NPBD@Z
	?_Tidy@?$basic_string@DU?$char_traits@D@std@@V?$allocator@D@2@@std@@QAEX_NI@Z
	?_Xlen@?$basic_string@DU?$char_traits@D@std@@V?$allocator@D@2@@std@@QBEXXZ
	?_Xran@?$basic_string@DU?$char_traits@D@std@@V?$allocator@D@2@@std@@QBEXXZ
	?generic_category@std@@YAABVerror_category@1@XZ
	?system_category@std@@YAABVerror_category@1@XZ
	??0error_category@std@@QAE@XZ
	??1error_category@std@@UAE@XZ
	?default_error_condition@error_category@std@@UBE?AVerror_condition@2@H@Z
	?equivalent@error_category@std@@UBE_NHABVerror_condition@2@@Z
	?equivalent@error_category@std@@UBE_NABVerror_code@2@H@Z
	??8error_category@std@@QBE_NABV01@@Z
	?value@error_code@std@@QBEHXZ
	?category@error_code@std@@QBEABVerror_category@2@XZ
	??0error_condition@std@@QAE@HABVerror_category@1@@Z
	?value@error_condition@std@@QBEHXZ
	?category@error_condition@std@@QBEABVerror_category@2@XZ
	??8error_condition@std@@QBE_NABV01@@Z
	??0_Generic_error_category@std@@QAE@XZ
	?name@_Generic_error_category@std@@UBEPBDXZ
	?message@_Generic_error_category@std@@UBE?AV?$basic_string@DU?$char_traits@D@std@@V?$allocator@D@2@@2@H@Z
	??1_Generic_error_category@std@@UAE@XZ
	??0_Iostream_error_category@std@@QAE@XZ
	?name@_Iostream_error_category@std@@UBEPBDXZ
	?message@_Iostream_error_category@std@@UBE?AV?$basic_string@DU?$char_traits@D@std@@V?$allocator@D@2@@2@H@Z
	??1_Iostream_error_category@std@@UAE@XZ
	??0_System_error_category@std@@QAE@XZ
	?name@_System_error_category@std@@UBEPBDXZ
	?message@_System_error_category@std@@UBE?AV?$basic_string@DU?$char_traits@D@std@@V?$allocator@D@2@@2@H@Z
	?default_error_condition@_System_error_category@std@@UBE?AVerror_condition@2@H@Z
	??1_System_error_category@std@@UAE@XZ
	?BoundsOk@TArray@@IBE_NPBDH@Z
	?GetSize@TArray@@QBEHXZ
	??ATArrayC@@QAEAADH@Z
	?Print@EdbMask@@QAEXXZ
	??$construct@PADAAPAD@?$_Wrap_alloc@V?$allocator@D@std@@@std@@QAEXPAPADAAPAD@Z
	??$destroy@PAD@?$_Wrap_alloc@V?$allocator@D@std@@@std@@QAEXPAPAD@Z
	??$addressof@D@std@@YAPADAAD@Z
	??$_Allocate@D@std@@YAPADIPAD@Z
	??$forward@AAPAD@std@@YAAAPADAAPAD@Z
	??$construct@PADAAPAD@?$allocator_traits@V?$allocator@D@std@@@std@@SAXAAV?$allocator@D@1@PAPADAAPAD@Z
	??$destroy@PAD@?$allocator_traits@V?$allocator@D@std@@@std@@SAXAAV?$allocator@D@1@PAPAD@Z
	??$construct@PADAAPAD@?$allocator@D@std@@QAEXPAPADAAPAD@Z
	??$destroy@PAD@?$allocator@D@std@@QAEXPAPAD@Z
	?_Generic_object@?$_Error_objects@H@std@@2V_Generic_error_category@2@A 	 DATA
	?_Iostream_object@?$_Error_objects@H@std@@2V_Iostream_error_category@2@A 	 DATA
	?_System_object@?$_Error_objects@H@std@@2V_System_error_category@2@A 	 DATA
	?id@?$num_put@DV?$back_insert_iterator@V?$basic_string@DU?$char_traits@D@std@@V?$allocator@D@2@@std@@@std@@@std@@2V0locale@2@A 	 DATA
	?id@?$num_put@_WV?$back_insert_iterator@V?$basic_string@_WU?$char_traits@_W@std@@V?$allocator@_W@2@@std@@@std@@@std@@2V0locale@2@A 	 DATA
	??_R0?AVerror_category@std@@@8 	 DATA
	??_R0?AV_Generic_error_category@std@@@8 	 DATA
	??_R0?AV_Iostream_error_category@std@@@8 	 DATA
	??_R0?AV_System_error_category@std@@@8 	 DATA
	hypot
	??2@YAPAXIPAX@Z
	??3@YAXPAX0@Z
	?length@?$char_traits@D@std@@SAIPBD@Z
	?copy@?$char_traits@D@std@@SAPADPADPBDI@Z
	?move@?$char_traits@D@std@@SAPADPADPBDI@Z
	?assign@?$char_traits@D@std@@SAXAADABD@Z
	?_Adopt@_Iterator_base0@std@@QAEXPBX@Z
	?_Getcont@_Iterator_base0@std@@QBEPBU_Container_base0@2@XZ
	??0?$allocator@D@std@@QAE@XZ
	?deallocate@?$allocator@D@std@@QAEXPADI@Z
	?allocate@?$allocator@D@std@@QAEPADI@Z
	?max_size@?$allocator@D@std@@QBEIXZ
	?max_size@?$allocator_traits@V?$allocator@D@std@@@std@@SAIABV?$allocator@D@2@@Z
	??0?$_Wrap_alloc@V?$allocator@D@std@@@std@@QAE@XZ
	?allocate@?$_Wrap_alloc@V?$allocator@D@std@@@std@@QAEPADI@Z
	?deallocate@?$_Wrap_alloc@V?$allocator@D@std@@@std@@QAEXPADI@Z
	?max_size@?$_Wrap_alloc@V?$allocator@D@std@@@std@@QBEIXZ
	??0?$_String_val@U?$_Simple_types@D@std@@@std@@QAE@XZ
	?_Myptr@?$_String_val@U?$_Simple_types@D@std@@@std@@QAEPADXZ
	?_Myptr@?$_String_val@U?$_Simple_types@D@std@@@std@@QBEPBDXZ
	??0?$_String_alloc@$0A@U?$_String_base_types@DV?$allocator@D@std@@@std@@@std@@QAE@ABV?$allocator@D@1@@Z
	?_Getal@?$_String_alloc@$0A@U?$_String_base_types@DV?$allocator@D@std@@@std@@@std@@QBE?AU?$_Wrap_alloc@V?$allocator@D@std@@@2@XZ
	??0?$basic_string@DU?$char_traits@D@std@@V?$allocator@D@2@@std@@QAE@PBD@Z
	??1?$basic_string@DU?$char_traits@D@std@@V?$allocator@D@2@@std@@QAE@XZ
	?assign@?$basic_string@DU?$char_traits@D@std@@V?$allocator@D@2@@std@@QAEAAV12@ABV12@II@Z
	?assign@?$basic_string@DU?$char_traits@D@std@@V?$allocator@D@2@@std@@QAEAAV12@PBDI@Z
	?assign@?$basic_string@DU?$char_traits@D@std@@V?$allocator@D@2@@std@@QAEAAV12@PBD@Z
	?erase@?$basic_string@DU?$char_traits@D@std@@V?$allocator@D@2@@std@@QAEAAV12@I@Z
	?erase@?$basic_string@DU?$char_traits@D@std@@V?$allocator@D@2@@std@@QAEAAV12@II@Z
	?size@?$basic_string@DU?$char_traits@D@std@@V?$allocator@D@2@@std@@QBEIXZ
	?max_size@?$basic_string@DU?$char_traits@D@std@@V?$allocator@D@2@@std@@QBEIXZ
	?_Copy@?$basic_string@DU?$char_traits@D@std@@V?$allocator@D@2@@std@@QAEXII@Z
	?_Eos@?$basic_string@DU?$char_traits@D@std@@V?$allocator@D@2@@std@@QAEXI@Z
	?_Grow@?$basic_string@DU?$char_traits@D@std@@V?$allocator@D@2@@std@@QAE_NI_N@Z
	?_Inside@?$basic_string@DU?$char_traits@D@std@@V?$allocator@D@2@@std@@QAE_NPBD@Z
	?_Tidy@?$basic_string@DU?$char_traits@D@std@@V?$allocator@D@2@@std@@QAEX_NI@Z
	?_Xlen@?$basic_string@DU?$char_traits@D@std@@V?$allocator@D@2@@std@@QBEXXZ
	?_Xran@?$basic_string@DU?$char_traits@D@std@@V?$allocator@D@2@@std@@QBEXXZ
	?generic_category@std@@YAABVerror_category@1@XZ
	?system_category@std@@YAABVerror_category@1@XZ
	??0error_category@std@@QAE@XZ
	??1error_category@std@@UAE@XZ
	?default_error_condition@error_category@std@@UBE?AVerror_condition@2@H@Z
	?equivalent@error_category@std@@UBE_NHABVerror_condition@2@@Z
	?equivalent@error_category@std@@UBE_NABVerror_code@2@H@Z
	??8error_category@std@@QBE_NABV01@@Z
	?value@error_code@std@@QBEHXZ
	?category@error_code@std@@QBEABVerror_category@2@XZ
	??0error_condition@std@@QAE@HABVerror_category@1@@Z
	?value@error_condition@std@@QBEHXZ
	?category@error_condition@std@@QBEABVerror_category@2@XZ
	??8error_condition@std@@QBE_NABV01@@Z
	??0_Generic_error_category@std@@QAE@XZ
	?name@_Generic_error_category@std@@UBEPBDXZ
	?message@_Generic_error_category@std@@UBE?AV?$basic_string@DU?$char_traits@D@std@@V?$allocator@D@2@@2@H@Z
	??1_Generic_error_category@std@@UAE@XZ
	??0_Iostream_error_category@std@@QAE@XZ
	?name@_Iostream_error_category@std@@UBEPBDXZ
	?message@_Iostream_error_category@std@@UBE?AV?$basic_string@DU?$char_traits@D@std@@V?$allocator@D@2@@2@H@Z
	??1_Iostream_error_category@std@@UAE@XZ
	??0_System_error_category@std@@QAE@XZ
	?name@_System_error_category@std@@UBEPBDXZ
	?message@_System_error_category@std@@UBE?AV?$basic_string@DU?$char_traits@D@std@@V?$allocator@D@2@@2@H@Z
	?default_error_condition@_System_error_category@std@@UBE?AVerror_condition@2@H@Z
	??1_System_error_category@std@@UAE@XZ
	?Clear@TObject@@UAEXPBD@Z
	?GetOption@TObject@@UBEPBDXZ
	?IsSortable@TObject@@UBE_NXZ
	??0?$allocator@_N@std@@QAE@XZ
	??0?$allocator@I@std@@QAE@XZ
	?deallocate@?$allocator@I@std@@QAEXPAII@Z
	?allocate@?$allocator@I@std@@QAEPAII@Z
	?max_size@?$allocator@I@std@@QBEIXZ
	?max_size@?$allocator_traits@V?$allocator@I@std@@@std@@SAIABV?$allocator@I@2@@Z
	??0?$_Wrap_alloc@V?$allocator@I@std@@@std@@QAE@XZ
	?allocate@?$_Wrap_alloc@V?$allocator@I@std@@@std@@QAEPAII@Z
	?deallocate@?$_Wrap_alloc@V?$allocator@I@std@@@std@@QAEXPAII@Z
	?max_size@?$_Wrap_alloc@V?$allocator@I@std@@@std@@QBEIXZ
	??0?$_Vector_val@U?$_Simple_types@I@std@@@std@@QAE@XZ
	??0?$_Vector_alloc@$0A@U?$_Vec_base_types@IV?$allocator@_N@std@@@std@@@std@@QAE@ABV?$allocator@_N@1@@Z
	?_Getal@?$_Vector_alloc@$0A@U?$_Vec_base_types@IV?$allocator@_N@std@@@std@@@std@@QBE?AU?$_Wrap_alloc@V?$allocator@I@std@@@2@XZ
	??0?$vector@IV?$allocator@_N@std@@@std@@QAE@IABIABV?$allocator@_N@1@@Z
	?_Construct_n@?$vector@IV?$allocator@_N@std@@@std@@QAEXIPBI@Z
	??1?$vector@IV?$allocator@_N@std@@@std@@QAE@XZ
	?capacity@?$vector@IV?$allocator@_N@std@@@std@@QBEIXZ
	?_Unused_capacity@?$vector@IV?$allocator@_N@std@@@std@@QBEIXZ
	?begin@?$vector@IV?$allocator@_N@std@@@std@@QAE?AV?$_Vector_iterator@V?$_Vector_val@U?$_Simple_types@I@std@@@std@@@2@XZ
	?end@?$vector@IV?$allocator@_N@std@@@std@@QAE?AV?$_Vector_iterator@V?$_Vector_val@U?$_Simple_types@I@std@@@std@@@2@XZ
	?_Make_iter@?$vector@IV?$allocator@_N@std@@@std@@QBE?AV?$_Vector_iterator@V?$_Vector_val@U?$_Simple_types@I@std@@@std@@@2@V?$_Vector_const_iterator@V?$_Vector_val@U?$_Simple_types@I@std@@@std@@@2@@Z
	?resize@?$vector@IV?$allocator@_N@std@@@std@@QAEXIABI@Z
	?size@?$vector@IV?$allocator@_N@std@@@std@@QBEIXZ
	?max_size@?$vector@IV?$allocator@_N@std@@@std@@QBEIXZ
	??A?$vector@IV?$allocator@_N@std@@@std@@QAEAAII@Z
	?erase@?$vector@IV?$allocator@_N@std@@@std@@QAE?AV?$_Vector_iterator@V?$_Vector_val@U?$_Simple_types@I@std@@@std@@@2@V?$_Vector_const_iterator@V?$_Vector_val@U?$_Simple_types@I@std@@@std@@@2@0@Z
	?_Pop_back_n@?$vector@IV?$allocator@_N@std@@@std@@QAEXI@Z
	?clear@?$vector@IV?$allocator@_N@std@@@std@@QAEXXZ
	?_Buy@?$vector@IV?$allocator@_N@std@@@std@@IAE_NI@Z
	?_Destroy@?$vector@IV?$allocator@_N@std@@@std@@IAEXPAI0@Z
	?_Grow_to@?$vector@IV?$allocator@_N@std@@@std@@IBEII@Z
	?_Inside@?$vector@IV?$allocator@_N@std@@@std@@IBE_NPBI@Z
	?_Reallocate@?$vector@IV?$allocator@_N@std@@@std@@IAEXI@Z
	?_Reserve@?$vector@IV?$allocator@_N@std@@@std@@IAEXI@Z
	?_Tidy@?$vector@IV?$allocator@_N@std@@@std@@IAEXXZ
	?_Ufill@?$vector@IV?$allocator@_N@std@@@std@@IAEPAIPAIIPBI@Z
	?_Xlen@?$vector@IV?$allocator@_N@std@@@std@@IBEXXZ
	??0?$_Vb_val@V?$allocator@_N@std@@@std@@QAE@IAB_NABV?$allocator@_N@1@@Z
	??1?$_Vb_val@V?$allocator@_N@std@@@std@@QAE@XZ
	?_Alloc_proxy@?$_Vb_val@V?$allocator@_N@std@@@std@@QAEXXZ
	?_Free_proxy@?$_Vb_val@V?$allocator@_N@std@@@std@@QAEXXZ
	?_Nw@?$_Vb_val@V?$allocator@_N@std@@@std@@SAII@Z
	??0?$vector@_NV?$allocator@_N@std@@@std@@QAE@XZ
	??1?$vector@_NV?$allocator@_N@std@@@std@@QAE@XZ
	?begin@?$vector@_NV?$allocator@_N@std@@@std@@QAE?AV?$_Vb_iterator@U?$_Wrap_alloc@V?$allocator@I@std@@@std@@@2@XZ
	?end@?$vector@_NV?$allocator@_N@std@@@std@@QAE?AV?$_Vb_iterator@U?$_Wrap_alloc@V?$allocator@I@std@@@std@@@2@XZ
	?_Make_iter@?$vector@_NV?$allocator@_N@std@@@std@@QAE?AV?$_Vb_iterator@U?$_Wrap_alloc@V?$allocator@I@std@@@std@@@2@V?$_Vb_const_iterator@U?$_Wrap_alloc@V?$allocator@I@std@@@std@@@2@@Z
	?resize@?$vector@_NV?$allocator@_N@std@@@std@@QAEXI_N@Z
	?size@?$vector@_NV?$allocator@_N@std@@@std@@QBEIXZ
	?max_size@?$vector@_NV?$allocator@_N@std@@@std@@QBEIXZ
	?empty@?$vector@_NV?$allocator@_N@std@@@std@@QBE_NXZ
	??A?$vector@_NV?$allocator@_N@std@@@std@@QAE?AV?$_Vb_reference@U?$_Wrap_alloc@V?$allocator@I@std@@@std@@@1@I@Z
	?erase@?$vector@_NV?$allocator@_N@std@@@std@@QAE?AV?$_Vb_iterator@U?$_Wrap_alloc@V?$allocator@I@std@@@std@@@2@V?$_Vb_const_iterator@U?$_Wrap_alloc@V?$allocator@I@std@@@std@@@2@0@Z
	?_Insert_n@?$vector@_NV?$allocator@_N@std@@@std@@QAE?AV?$_Vb_iterator@U?$_Wrap_alloc@V?$allocator@I@std@@@std@@@2@V?$_Vb_const_iterator@U?$_Wrap_alloc@V?$allocator@I@std@@@std@@@2@IAB_N@Z
	?_Insert_x@?$vector@_NV?$allocator@_N@std@@@std@@QAEIV?$_Vb_const_iterator@U?$_Wrap_alloc@V?$allocator@I@std@@@std@@@2@I@Z
	?_Trim@?$vector@_NV?$allocator@_N@std@@@std@@QAEXI@Z
	?_Xlen@?$vector@_NV?$allocator@_N@std@@@std@@QBEXXZ
	??0EdbCombGen@@QAE@AAVTObjArray@@H@Z
	??1EdbCombGen@@UAE@XZ
	?NextCombination@EdbCombGen@@QAE_NAAVTObjArray@@0@Z
	?IsA@EdbCombGen@@UBEPAVTClass@@XZ
	??$min@H@std@@YAABHABH0@Z
	??0?$_Vb_iter_base@U?$_Wrap_alloc@V?$allocator@I@std@@@std@@@std@@QAE@PBIIPBU_Container_base0@1@@Z
	?_Advance@?$_Vb_iter_base@U?$_Wrap_alloc@V?$allocator@I@std@@@std@@@std@@QAEXI@Z
	??0?$_Vb_reference@U?$_Wrap_alloc@V?$allocator@I@std@@@std@@@std@@QAE@ABV?$_Vb_iter_base@U?$_Wrap_alloc@V?$allocator@I@std@@@std@@@1@@Z
	??4?$_Vb_reference@U?$_Wrap_alloc@V?$allocator@I@std@@@std@@@std@@QAEAAV01@ABV01@@Z
	??4?$_Vb_reference@U?$_Wrap_alloc@V?$allocator@I@std@@@std@@@std@@QAEAAV01@_N@Z
	??B?$_Vb_reference@U?$_Wrap_alloc@V?$allocator@I@std@@@std@@@std@@QBE_NXZ
	?_Getptr@?$_Vb_reference@U?$_Wrap_alloc@V?$allocator@I@std@@@std@@@std@@QBEPBIXZ
	?_Mask@?$_Vb_reference@U?$_Wrap_alloc@V?$allocator@I@std@@@std@@@std@@IBEIXZ
	??0?$_Vb_const_iterator@U?$_Wrap_alloc@V?$allocator@I@std@@@std@@@std@@QAE@PBIPBU_Container_base0@1@@Z
	??E?$_Vb_const_iterator@U?$_Wrap_alloc@V?$allocator@I@std@@@std@@@std@@QAEAAV01@XZ
	??F?$_Vb_const_iterator@U?$_Wrap_alloc@V?$allocator@I@std@@@std@@@std@@QAEAAV01@XZ
	??Y?$_Vb_const_iterator@U?$_Wrap_alloc@V?$allocator@I@std@@@std@@@std@@QAEAAV01@H@Z
	??G?$_Vb_const_iterator@U?$_Wrap_alloc@V?$allocator@I@std@@@std@@@std@@QBEHABV01@@Z
	??8?$_Vb_const_iterator@U?$_Wrap_alloc@V?$allocator@I@std@@@std@@@std@@QBE_NABV01@@Z
	??9?$_Vb_const_iterator@U?$_Wrap_alloc@V?$allocator@I@std@@@std@@@std@@QBE_NABV01@@Z
	?_Compat@?$_Vb_const_iterator@U?$_Wrap_alloc@V?$allocator@I@std@@@std@@@std@@QBEXABV12@@Z
	?_Dec@?$_Vb_const_iterator@U?$_Wrap_alloc@V?$allocator@I@std@@@std@@@std@@QAEXXZ
	?_Inc@?$_Vb_const_iterator@U?$_Wrap_alloc@V?$allocator@I@std@@@std@@@std@@QAEXXZ
	??0?$_Vb_iterator@U?$_Wrap_alloc@V?$allocator@I@std@@@std@@@std@@QAE@PAIPAU_Container_base0@1@@Z
	??D?$_Vb_iterator@U?$_Wrap_alloc@V?$allocator@I@std@@@std@@@std@@QBE?AV?$_Vb_reference@U?$_Wrap_alloc@V?$allocator@I@std@@@std@@@1@XZ
	??E?$_Vb_iterator@U?$_Wrap_alloc@V?$allocator@I@std@@@std@@@std@@QAEAAV01@XZ
	??F?$_Vb_iterator@U?$_Wrap_alloc@V?$allocator@I@std@@@std@@@std@@QAEAAV01@XZ
	??Y?$_Vb_iterator@U?$_Wrap_alloc@V?$allocator@I@std@@@std@@@std@@QAEAAV01@H@Z
	??H?$_Vb_iterator@U?$_Wrap_alloc@V?$allocator@I@std@@@std@@@std@@QBE?AV01@H@Z
	??G?$_Vb_iterator@U?$_Wrap_alloc@V?$allocator@I@std@@@std@@@std@@QBEHABV?$_Vb_const_iterator@U?$_Wrap_alloc@V?$allocator@I@std@@@std@@@1@@Z
	??$next_permutation@V?$_Vb_iterator@U?$_Wrap_alloc@V?$allocator@I@std@@@std@@@std@@@std@@YA_NV?$_Vb_iterator@U?$_Wrap_alloc@V?$allocator@I@std@@@std@@@0@0@Z
	??$construct@PADAAPAD@?$_Wrap_alloc@V?$allocator@D@std@@@std@@QAEXPAPADAAPAD@Z
	??$destroy@PAD@?$_Wrap_alloc@V?$allocator@D@std@@@std@@QAEXPAPAD@Z
	??$addressof@D@std@@YAPADAAD@Z
	??$copy@V?$_Vb_iterator@U?$_Wrap_alloc@V?$allocator@I@std@@@std@@@std@@V12@@std@@YA?AV?$_Vb_iterator@U?$_Wrap_alloc@V?$allocator@I@std@@@std@@@0@V10@00@Z
	??$fill@V?$_Vb_iterator@U?$_Wrap_alloc@V?$allocator@I@std@@@std@@@std@@_N@std@@YAXV?$_Vb_iterator@U?$_Wrap_alloc@V?$allocator@I@std@@@std@@@0@0AB_N@Z
	??$copy_backward@V?$_Vb_iterator@U?$_Wrap_alloc@V?$allocator@I@std@@@std@@@std@@V12@@std@@YA?AV?$_Vb_iterator@U?$_Wrap_alloc@V?$allocator@I@std@@@std@@@0@V10@00@Z
	??0?$_Vector_const_iterator@V?$_Vector_val@U?$_Simple_types@I@std@@@std@@@std@@QAE@PAIPBU_Container_base0@1@@Z
	??Y?$_Vector_const_iterator@V?$_Vector_val@U?$_Simple_types@I@std@@@std@@@std@@QAEAAV01@H@Z
	??8?$_Vector_const_iterator@V?$_Vector_val@U?$_Simple_types@I@std@@@std@@@std@@QBE_NABV01@@Z
	??9?$_Vector_const_iterator@V?$_Vector_val@U?$_Simple_types@I@std@@@std@@@std@@QBE_NABV01@@Z
	?_Compat@?$_Vector_const_iterator@V?$_Vector_val@U?$_Simple_types@I@std@@@std@@@std@@QBEXABV12@@Z
	??0?$_Vector_iterator@V?$_Vector_val@U?$_Simple_types@I@std@@@std@@@std@@QAE@PAIPBU_Container_base0@1@@Z
	??Y?$_Vector_iterator@V?$_Vector_val@U?$_Simple_types@I@std@@@std@@@std@@QAEAAV01@H@Z
	??H?$_Vector_iterator@V?$_Vector_val@U?$_Simple_types@I@std@@@std@@@std@@QBE?AV01@H@Z
	??$addressof@$$CBI@std@@YAPBIABI@Z
	??$addressof@I@std@@YAPAIAAI@Z
	??$_Move@PAIPAI@std@@YAPAIPAI00@Z
	??$_Destroy_range@U?$_Wrap_alloc@V?$allocator@I@std@@@std@@@std@@YAXPAI0AAU?$_Wrap_alloc@V?$allocator@I@std@@@0@@Z
	??$_Uninitialized_fill_n@PAIIIU?$_Wrap_alloc@V?$allocator@I@std@@@std@@@std@@YAXPAIIPBIAAU?$_Wrap_alloc@V?$allocator@I@std@@@0@@Z
	??$_Allocate@D@std@@YAPADIPAD@Z
	??$_Umove@PAI@?$vector@IV?$allocator@_N@std@@@std@@IAEPAIPAI00@Z
	??$_Allocate@I@std@@YAPAIIPAI@Z
	??$next_permutation@V?$_Vb_iterator@U?$_Wrap_alloc@V?$allocator@I@std@@@std@@@std@@U?$less@X@2@@std@@YA_NV?$_Vb_iterator@U?$_Wrap_alloc@V?$allocator@I@std@@@std@@@0@0U?$less@X@0@@Z
	??$forward@AAPAD@std@@YAAAPADAAPAD@Z
	??$construct@PADAAPAD@?$allocator_traits@V?$allocator@D@std@@@std@@SAXAAV?$allocator@D@1@PAPADAAPAD@Z
	??$destroy@PAD@?$allocator_traits@V?$allocator@D@std@@@std@@SAXAAV?$allocator@D@1@PAPAD@Z
	??$_Unchecked@V?$_Vb_iterator@U?$_Wrap_alloc@V?$allocator@I@std@@@std@@@std@@@std@@YA?AV?$_Vb_iterator@U?$_Wrap_alloc@V?$allocator@I@std@@@std@@@0@V10@@Z
	??$_Copy_impl@V?$_Vb_iterator@U?$_Wrap_alloc@V?$allocator@I@std@@@std@@@std@@V12@@std@@YA?AV?$_Vb_iterator@U?$_Wrap_alloc@V?$allocator@I@std@@@std@@@0@V10@00@Z
	??$_Rechecked@V?$_Vb_iterator@U?$_Wrap_alloc@V?$allocator@I@std@@@std@@@std@@V12@@std@@YAAAV?$_Vb_iterator@U?$_Wrap_alloc@V?$allocator@I@std@@@std@@@0@AAV10@V10@@Z
	??$_Fill@V?$_Vb_iterator@U?$_Wrap_alloc@V?$allocator@I@std@@@std@@@std@@_N@std@@YAXV?$_Vb_iterator@U?$_Wrap_alloc@V?$allocator@I@std@@@std@@@0@0AB_N@Z
	??$_Copy_backward@V?$_Vb_iterator@U?$_Wrap_alloc@V?$allocator@I@std@@@std@@@std@@V12@@std@@YA?AV?$_Vb_iterator@U?$_Wrap_alloc@V?$allocator@I@std@@@std@@@0@V10@00@Z
	??$_Ptr_cat@II@std@@YA?AU_Scalar_ptr_iterator_tag@0@PAI0@Z
	??$_Move@PAIPAI@std@@YAPAIPAI00U_Scalar_ptr_iterator_tag@0@@Z
	??$_Destroy_range@U?$_Wrap_alloc@V?$allocator@I@std@@@std@@@std@@YAXPAI0AAU?$_Wrap_alloc@V?$allocator@I@std@@@0@U_Scalar_ptr_iterator_tag@0@@Z
	??$_Val_type@PAI@std@@YAPAIPAI@Z
	??$_Uninit_fill_n@IIII@std@@YAXPAIIPBIAAU?$_Wrap_alloc@V?$allocator@I@std@@@0@0U_Scalar_ptr_iterator_tag@0@@Z
	??$_Uninitialized_move@PAIPAIU?$_Wrap_alloc@V?$allocator@I@std@@@std@@@std@@YAPAIPAI00AAU?$_Wrap_alloc@V?$allocator@I@std@@@0@@Z
	??$_Next_permutation@V?$_Vb_iterator@U?$_Wrap_alloc@V?$allocator@I@std@@@std@@@std@@U?$less@X@2@@std@@YA_NV?$_Vb_iterator@U?$_Wrap_alloc@V?$allocator@I@std@@@std@@@0@0U?$less@X@0@@Z
	??$construct@PADAAPAD@?$allocator@D@std@@QAEXPAPADAAPAD@Z
	??$destroy@PAD@?$allocator@D@std@@QAEXPAPAD@Z
	??$_Ptr_cat@V?$_Vb_iterator@U?$_Wrap_alloc@V?$allocator@I@std@@@std@@@std@@V12@@std@@YA?AU_Nonscalar_ptr_iterator_tag@0@AAV?$_Vb_iterator@U?$_Wrap_alloc@V?$allocator@I@std@@@std@@@0@0@Z
	??$_Copy_impl@V?$_Vb_iterator@U?$_Wrap_alloc@V?$allocator@I@std@@@std@@@std@@V12@@std@@YA?AV?$_Vb_iterator@U?$_Wrap_alloc@V?$allocator@I@std@@@std@@@0@V10@00U_Nonscalar_ptr_iterator_tag@0@@Z
	??$_Copy_backward@V?$_Vb_iterator@U?$_Wrap_alloc@V?$allocator@I@std@@@std@@@std@@V12@@std@@YA?AV?$_Vb_iterator@U?$_Wrap_alloc@V?$allocator@I@std@@@std@@@0@V10@00U_Nonscalar_ptr_iterator_tag@0@@Z
	??$_Fill_n@PAIII@std@@YAPAIPAIIABI@Z
	??$_Unchecked@PAI@std@@YAPAIPAI@Z
	??$_Uninit_move@PAIPAIU?$_Wrap_alloc@V?$allocator@I@std@@@std@@@std@@YAPAIPAI00AAU?$_Wrap_alloc@V?$allocator@I@std@@@0@@Z
	??$_Rechecked@PAIPAI@std@@YAAAPAIAAPAIPAI@Z
	??$?RV?$_Vb_reference@U?$_Wrap_alloc@V?$allocator@I@std@@@std@@@std@@V01@@?$less@X@std@@QBE_N$$QAV?$_Vb_reference@U?$_Wrap_alloc@V?$allocator@I@std@@@std@@@1@0@Z
	??$iter_swap@V?$_Vb_iterator@U?$_Wrap_alloc@V?$allocator@I@std@@@std@@@std@@V12@@std@@YAXV?$_Vb_iterator@U?$_Wrap_alloc@V?$allocator@I@std@@@std@@@0@0@Z
	??$reverse@V?$_Vb_iterator@U?$_Wrap_alloc@V?$allocator@I@std@@@std@@@std@@@std@@YAXV?$_Vb_iterator@U?$_Wrap_alloc@V?$allocator@I@std@@@std@@@0@0@Z
	??$_Uninit_move@III@std@@YAPAIPAI00AAU?$_Wrap_alloc@V?$allocator@I@std@@@0@0U_Scalar_ptr_iterator_tag@0@@Z
	??$swap@U?$_Wrap_alloc@V?$allocator@I@std@@@std@@@std@@YAXV?$_Vb_reference@U?$_Wrap_alloc@V?$allocator@I@std@@@std@@@0@0@Z
	??$_Iter_cat@V?$_Vb_iterator@U?$_Wrap_alloc@V?$allocator@I@std@@@std@@@std@@@std@@YA?AUrandom_access_iterator_tag@0@ABV?$_Vb_iterator@U?$_Wrap_alloc@V?$allocator@I@std@@@std@@@0@@Z
	??$_Reverse@V?$_Vb_iterator@U?$_Wrap_alloc@V?$allocator@I@std@@@std@@@std@@@std@@YAXV?$_Vb_iterator@U?$_Wrap_alloc@V?$allocator@I@std@@@std@@@0@0Ubidirectional_iterator_tag@0@@Z
	?_Generic_object@?$_Error_objects@H@std@@2V_Generic_error_category@2@A 	 DATA
	?_Iostream_object@?$_Error_objects@H@std@@2V_Iostream_error_category@2@A 	 DATA
	?_System_object@?$_Error_objects@H@std@@2V_System_error_category@2@A 	 DATA
	?id@?$num_put@DV?$back_insert_iterator@V?$basic_string@DU?$char_traits@D@std@@V?$allocator@D@2@@std@@@std@@@std@@2V0locale@2@A 	 DATA
	?id@?$num_put@_WV?$back_insert_iterator@V?$basic_string@_WU?$char_traits@_W@std@@V?$allocator@_W@2@@std@@@std@@@std@@2V0locale@2@A 	 DATA
	??_R0?AVerror_category@std@@@8 	 DATA
	??_R0?AV_Generic_error_category@std@@@8 	 DATA
	??_R0?AV_Iostream_error_category@std@@@8 	 DATA
	??_R0?AV_System_error_category@std@@@8 	 DATA
	??_R0?AVTObject@@@8 	 DATA
	??_R0?AVEdbCombGen@@@8 	 DATA
	?fgIsA@EdbMask@@0PAVTClass@@A 	 DATA
	?fgIsA@EdbMath@@0PAVTClass@@A 	 DATA
	?fgIsA@TIndex2@@0PAVTClass@@A 	 DATA
	?fgIsA@EdbFilter2D@@0PAVTClass@@A 	 DATA
	?fgIsA@EdbH1@@0PAVTClass@@A 	 DATA
	?fgIsA@EdbCell1@@0PAVTClass@@A 	 DATA
	?fgIsA@TIndexCell@@0PAVTClass@@A 	 DATA
	?fgIsA@EdbH2@@0PAVTClass@@A 	 DATA
	?fgIsA@EdbCombGen@@0PAVTClass@@A 	 DATA
	?fgIsA@TIndexCellIter@@0PAVTClass@@A 	 DATA
	?G__EmathDictLN_TClass@@3UG__linked_taginfo@@A 	 DATA
	?G__EmathDictLN_TBuffer@@3UG__linked_taginfo@@A 	 DATA
	?G__EmathDictLN_TMemberInspector@@3UG__linked_taginfo@@A 	 DATA
	?G__EmathDictLN_TObject@@3UG__linked_taginfo@@A 	 DATA
	?G__EmathDictLN_iteratorlErandom_access_iterator_tagcOcharcOlongcOcharmUcOcharaNgR@@3UG__linked_taginfo@@A 	 DATA
	?G__EmathDictLN_vectorlEboolcOallocatorlEboolgRsPgR@@3UG__linked_taginfo@@A 	 DATA
	?G__EmathDictLN_vectorlEROOTcLcLTSchemaHelpercOallocatorlEROOTcLcLTSchemaHelpergRsPgR@@3UG__linked_taginfo@@A 	 DATA
	?G__EmathDictLN_reverse_iteratorlEvectorlEROOTcLcLTSchemaHelpercOallocatorlEROOTcLcLTSchemaHelpergRsPgRcLcLiteratorgR@@3UG__linked_taginfo@@A 	 DATA
	?G__EmathDictLN_iteratorlErandom_access_iterator_tagcOROOTcLcLTSchemaHelpercOlongcOROOTcLcLTSchemaHelpermUcOROOTcLcLTSchemaHelperaNgR@@3UG__linked_taginfo@@A 	 DATA
	?G__EmathDictLN_reverse_iteratorlEvectorlEROOTcLcLTSchemaHelpercOallocatorlEROOTcLcLTSchemaHelpergRsPgRcLcLconst_iteratorgR@@3UG__linked_taginfo@@A 	 DATA
	?G__EmathDictLN_TObjArray@@3UG__linked_taginfo@@A 	 DATA
	?G__EmathDictLN_vectorlETVirtualArraymUcOallocatorlETVirtualArraymUgRsPgR@@3UG__linked_taginfo@@A 	 DATA
	?G__EmathDictLN_reverse_iteratorlEvectorlETVirtualArraymUcOallocatorlETVirtualArraymUgRsPgRcLcLiteratorgR@@3UG__linked_taginfo@@A 	 DATA
	?G__EmathDictLN_iteratorlErandom_access_iterator_tagcOTVirtualArraymUcOlongcOTVirtualArraymUmUcOTVirtualArraymUaNgR@@3UG__linked_taginfo@@A 	 DATA
	?G__EmathDictLN_reverse_iteratorlEvectorlETVirtualArraymUcOallocatorlETVirtualArraymUgRsPgRcLcLconst_iteratorgR@@3UG__linked_taginfo@@A 	 DATA
	?G__EmathDictLN_iteratorlEbidirectional_iterator_tagcOTObjectmUcOlongcOconstsPTObjectmUmUcOconstsPTObjectmUaNgR@@3UG__linked_taginfo@@A 	 DATA
	?G__EmathDictLN_TIndexCell@@3UG__linked_taginfo@@A 	 DATA
	?G__EmathDictLN_TIndexCellIter@@3UG__linked_taginfo@@A 	 DATA
	?G__EmathDictLN_TIndexCellIterV@@3UG__linked_taginfo@@A 	 DATA
	?G__EmathDictLN_TArray@@3UG__linked_taginfo@@A 	 DATA
	?G__EmathDictLN_TArrayI@@3UG__linked_taginfo@@A 	 DATA
	?G__EmathDictLN_TArrayD@@3UG__linked_taginfo@@A 	 DATA
	?G__EmathDictLN_TArrayC@@3UG__linked_taginfo@@A 	 DATA
	?G__EmathDictLN_TArrayF@@3UG__linked_taginfo@@A 	 DATA
	?G__EmathDictLN_TVectorTlEfloatgR@@3UG__linked_taginfo@@A 	 DATA
	?G__EmathDictLN_TVectorTlEdoublegR@@3UG__linked_taginfo@@A 	 DATA
	?G__EmathDictLN_TH1I@@3UG__linked_taginfo@@A 	 DATA
	?fgIsA@TIndexCellIterV@@0PAVTClass@@A 	 DATA
	?G__EmathDictLN_TH1F@@3UG__linked_taginfo@@A 	 DATA
	?G__EmathDictLN_TMatrixTBaselEfloatgR@@3UG__linked_taginfo@@A 	 DATA
	?G__EmathDictLN_TMatrixTBaselEdoublegR@@3UG__linked_taginfo@@A 	 DATA
	?G__EmathDictLN_TH2F@@3UG__linked_taginfo@@A 	 DATA
	?G__EmathDictLN_TH2D@@3UG__linked_taginfo@@A 	 DATA
	?G__EmathDictLN_EdbMath@@3UG__linked_taginfo@@A 	 DATA
	?G__EmathDictLN_TIndex2@@3UG__linked_taginfo@@A 	 DATA
	?G__EmathDictLN_EdbFilter2D@@3UG__linked_taginfo@@A 	 DATA
	?G__EmathDictLN_EdbH1@@3UG__linked_taginfo@@A 	 DATA
	?G__EmathDictLN_EdbCell1@@3UG__linked_taginfo@@A 	 DATA
	?G__EmathDictLN_EdbH2@@3UG__linked_taginfo@@A 	 DATA
	?G__EmathDictLN_EdbPeak2@@3UG__linked_taginfo@@A 	 DATA
	?G__EmathDictLN_EdbCell2@@3UG__linked_taginfo@@A 	 DATA
	?G__EmathDictLN_EdbMask@@3UG__linked_taginfo@@A 	 DATA
	?G__EmathDictLN_EdbCombGen@@3UG__linked_taginfo@@A 	 DATA
	?fgIsA@EdbPeak2@@0PAVTClass@@A 	 DATA
	?fgIsA@EdbCell2@@0PAVTClass@@A 	 DATA
	hypot
	??0funcptr_and_voidptr@G__func2void@@QAE@PAX@Z
	??BG__func2void@@QBEPAXXZ
	G__cpp_dllrevEmathDict
	G__set_cpp_environmentEmathDict
	G__cpp_setup_tagtableEmathDict
	G__cpp_setup_inheritanceEmathDict
	G__cpp_setup_typetableEmathDict
	G__cpp_setup_memvarEmathDict
	G__cpp_setup_globalEmathDict
	G__cpp_setup_memfuncEmathDict
	G__cpp_setup_funcEmathDict
	G__cpp_setupEmathDict
	??2@YAPAXIPAX@Z
	??3@YAXPAX0@Z
	??_U@YAPAXIPAX@Z
	??_V@YAXPAX0@Z
	?length@?$char_traits@D@std@@SAIPBD@Z
	?copy@?$char_traits@D@std@@SAPADPADPBDI@Z
	?move@?$char_traits@D@std@@SAPADPADPBDI@Z
	?assign@?$char_traits@D@std@@SAXAADABD@Z
	?_Adopt@_Iterator_base0@std@@QAEXPBX@Z
	?_Getcont@_Iterator_base0@std@@QBEPBU_Container_base0@2@XZ
	??0?$allocator@D@std@@QAE@XZ
	?deallocate@?$allocator@D@std@@QAEXPADI@Z
	?allocate@?$allocator@D@std@@QAEPADI@Z
	?max_size@?$allocator@D@std@@QBEIXZ
	?max_size@?$allocator_traits@V?$allocator@D@std@@@std@@SAIABV?$allocator@D@2@@Z
	??0?$_Wrap_alloc@V?$allocator@D@std@@@std@@QAE@XZ
	?allocate@?$_Wrap_alloc@V?$allocator@D@std@@@std@@QAEPADI@Z
	?deallocate@?$_Wrap_alloc@V?$allocator@D@std@@@std@@QAEXPADI@Z
	?max_size@?$_Wrap_alloc@V?$allocator@D@std@@@std@@QBEIXZ
	??0?$_String_val@U?$_Simple_types@D@std@@@std@@QAE@XZ
	?_Myptr@?$_String_val@U?$_Simple_types@D@std@@@std@@QAEPADXZ
	?_Myptr@?$_String_val@U?$_Simple_types@D@std@@@std@@QBEPBDXZ
	??0?$_String_alloc@$0A@U?$_String_base_types@DV?$allocator@D@std@@@std@@@std@@QAE@ABV?$allocator@D@1@@Z
	?_Getal@?$_String_alloc@$0A@U?$_String_base_types@DV?$allocator@D@std@@@std@@@std@@QBE?AU?$_Wrap_alloc@V?$allocator@D@std@@@2@XZ
	??0?$basic_string@DU?$char_traits@D@std@@V?$allocator@D@2@@std@@QAE@PBD@Z
	??1?$basic_string@DU?$char_traits@D@std@@V?$allocator@D@2@@std@@QAE@XZ
	?assign@?$basic_string@DU?$char_traits@D@std@@V?$allocator@D@2@@std@@QAEAAV12@ABV12@II@Z
	?assign@?$basic_string@DU?$char_traits@D@std@@V?$allocator@D@2@@std@@QAEAAV12@PBDI@Z
	?assign@?$basic_string@DU?$char_traits@D@std@@V?$allocator@D@2@@std@@QAEAAV12@PBD@Z
	?erase@?$basic_string@DU?$char_traits@D@std@@V?$allocator@D@2@@std@@QAEAAV12@I@Z
	?erase@?$basic_string@DU?$char_traits@D@std@@V?$allocator@D@2@@std@@QAEAAV12@II@Z
	?size@?$basic_string@DU?$char_traits@D@std@@V?$allocator@D@2@@std@@QBEIXZ
	?max_size@?$basic_string@DU?$char_traits@D@std@@V?$allocator@D@2@@std@@QBEIXZ
	?_Copy@?$basic_string@DU?$char_traits@D@std@@V?$allocator@D@2@@std@@QAEXII@Z
	?_Eos@?$basic_string@DU?$char_traits@D@std@@V?$allocator@D@2@@std@@QAEXI@Z
	?_Grow@?$basic_string@DU?$char_traits@D@std@@V?$allocator@D@2@@std@@QAE_NI_N@Z
	?_Inside@?$basic_string@DU?$char_traits@D@std@@V?$allocator@D@2@@std@@QAE_NPBD@Z
	?_Tidy@?$basic_string@DU?$char_traits@D@std@@V?$allocator@D@2@@std@@QAEX_NI@Z
	?_Xlen@?$basic_string@DU?$char_traits@D@std@@V?$allocator@D@2@@std@@QBEXXZ
	?_Xran@?$basic_string@DU?$char_traits@D@std@@V?$allocator@D@2@@std@@QBEXXZ
	?generic_category@std@@YAABVerror_category@1@XZ
	?system_category@std@@YAABVerror_category@1@XZ
	??0error_category@std@@QAE@XZ
	??1error_category@std@@UAE@XZ
	?default_error_condition@error_category@std@@UBE?AVerror_condition@2@H@Z
	?equivalent@error_category@std@@UBE_NHABVerror_condition@2@@Z
	?equivalent@error_category@std@@UBE_NABVerror_code@2@H@Z
	??8error_category@std@@QBE_NABV01@@Z
	?value@error_code@std@@QBEHXZ
	?category@error_code@std@@QBEABVerror_category@2@XZ
	??0error_condition@std@@QAE@HABVerror_category@1@@Z
	?value@error_condition@std@@QBEHXZ
	?category@error_condition@std@@QBEABVerror_category@2@XZ
	??8error_condition@std@@QBE_NABV01@@Z
	??0_Generic_error_category@std@@QAE@XZ
	?name@_Generic_error_category@std@@UBEPBDXZ
	?message@_Generic_error_category@std@@UBE?AV?$basic_string@DU?$char_traits@D@std@@V?$allocator@D@2@@2@H@Z
	??1_Generic_error_category@std@@UAE@XZ
	??0_Iostream_error_category@std@@QAE@XZ
	?name@_Iostream_error_category@std@@UBEPBDXZ
	?message@_Iostream_error_category@std@@UBE?AV?$basic_string@DU?$char_traits@D@std@@V?$allocator@D@2@@2@H@Z
	??1_Iostream_error_category@std@@UAE@XZ
	??0_System_error_category@std@@QAE@XZ
	?name@_System_error_category@std@@UBEPBDXZ
	?message@_System_error_category@std@@UBE?AV?$basic_string@DU?$char_traits@D@std@@V?$allocator@D@2@@2@H@Z
	?default_error_condition@_System_error_category@std@@UBE?AVerror_condition@2@H@Z
	??1_System_error_category@std@@UAE@XZ
	?Clear@TObject@@UAEXPBD@Z
	?GetOption@TObject@@UBEPBDXZ
	?IsSortable@TObject@@UBE_NXZ
	??2TObject@@SAPAXI@Z
	??_UTObject@@SAPAXI@Z
	??2TObject@@SAPAXIPAX@Z
	??_UTObject@@SAPAXIPAX@Z
	?IsReading@TBuffer@@QBE_NXZ
	??5@YAAAVTBuffer@@AAV0@AA_N@Z
	??5@YAAAVTBuffer@@AAV0@AAH@Z
	??5@YAAAVTBuffer@@AAV0@AAJ@Z
	??5@YAAAVTBuffer@@AAV0@AAM@Z
	??6@YAAAVTBuffer@@AAV0@_N@Z
	??6@YAAAVTBuffer@@AAV0@H@Z
	??6@YAAAVTBuffer@@AAV0@J@Z
	??6@YAAAVTBuffer@@AAV0@M@Z
	?GetEntriesFast@TObjArray@@QBEHXZ
	??0TIndexCell@@QAE@XZ
	??0TIndexCell@@QAE@J@Z
	?Shift@TIndexCell@@QAEXJ@Z
	?At@TIndexCell@@QBEPAV1@H@Z
	?List@TIndexCell@@QBEPAVTObjArray@@XZ
	?Value@TIndexCell@@QBEJXZ
	?GetEntriesFast@TIndexCell@@QBEHXZ
	?SetValue@TIndexCell@@QAEXJ@Z
	?Hash@TIndexCell@@UBEKXZ
	?IsEqual@TIndexCell@@UBE_NPBVTObject@@@Z
	?IsSortable@TIndexCell@@UBE_NXZ
	?Compare@TIndexCell@@UBEHPBVTObject@@@Z
	?Class@TIndexCell@@SAPAVTClass@@XZ
	?Class_Name@TIndexCell@@SAPBDXZ
	?Class_Version@TIndexCell@@SAFXZ
	?Dictionary@TIndexCell@@SAXXZ
	?IsA@TIndexCell@@UBEPAVTClass@@XZ
	?ShowMembers@TIndexCell@@UAEXAAVTMemberInspector@@@Z
	?Streamer@TIndexCell@@UAEXAAVTBuffer@@@Z
	?StreamerNVirtual@TIndexCell@@QAEXAAVTBuffer@@@Z
	?DeclFileName@TIndexCell@@SAPBDXZ
	?ImplFileLine@TIndexCell@@SAHXZ
	?ImplFileName@TIndexCell@@SAPBDXZ
	?DeclFileLine@TIndexCell@@SAHXZ
	??4TIndexCell@@QAEAAV0@ABV0@@Z
	?GetCell@TIndexCellIter@@QBEPBVTIndexCell@@XZ
	?Class@TIndexCellIter@@SAPAVTClass@@XZ
	?Class_Name@TIndexCellIter@@SAPBDXZ
	?Class_Version@TIndexCellIter@@SAFXZ
	?Dictionary@TIndexCellIter@@SAXXZ
	?IsA@TIndexCellIter@@UBEPAVTClass@@XZ
	?ShowMembers@TIndexCellIter@@UAEXAAVTMemberInspector@@@Z
	?Streamer@TIndexCellIter@@UAEXAAVTBuffer@@@Z
	?StreamerNVirtual@TIndexCellIter@@QAEXAAVTBuffer@@@Z
	?DeclFileName@TIndexCellIter@@SAPBDXZ
	?ImplFileLine@TIndexCellIter@@SAHXZ
	?ImplFileName@TIndexCellIter@@SAPBDXZ
	?DeclFileLine@TIndexCellIter@@SAHXZ
	??0TIndexCellIter@@QAE@ABV0@@Z
	??1TIndexCellIterV@@UAE@XZ
	?GetCell@TIndexCellIterV@@QBEPBVTIndexCell@@XZ
	?Class@TIndexCellIterV@@SAPAVTClass@@XZ
	?Class_Name@TIndexCellIterV@@SAPBDXZ
	?Class_Version@TIndexCellIterV@@SAFXZ
	?Dictionary@TIndexCellIterV@@SAXXZ
	?IsA@TIndexCellIterV@@UBEPAVTClass@@XZ
	?ShowMembers@TIndexCellIterV@@UAEXAAVTMemberInspector@@@Z
	?Streamer@TIndexCellIterV@@UAEXAAVTBuffer@@@Z
	?StreamerNVirtual@TIndexCellIterV@@QAEXAAVTBuffer@@@Z
	?DeclFileName@TIndexCellIterV@@SAPBDXZ
	?ImplFileLine@TIndexCellIterV@@SAHXZ
	?ImplFileName@TIndexCellIterV@@SAPBDXZ
	?DeclFileLine@TIndexCellIterV@@SAHXZ
	??0TIndexCellIterV@@QAE@ABV0@@Z
	?BoundsOk@TArray@@IBE_NPBDH@Z
	?At@TArrayD@@QBENH@Z
	?GetAt@TArrayD@@UBENH@Z
	?SetAt@TArrayD@@UAEXNH@Z
	??ATArrayD@@QAEAANH@Z
	??ATArrayC@@QAEAADH@Z
	??ATArrayF@@QBEMH@Z
	??0EdbMath@@QAE@XZ
	??1EdbMath@@UAE@XZ
	?Class@EdbMath@@SAPAVTClass@@XZ
	?Class_Name@EdbMath@@SAPBDXZ
	?Class_Version@EdbMath@@SAFXZ
	?Dictionary@EdbMath@@SAXXZ
	?IsA@EdbMath@@UBEPAVTClass@@XZ
	?ShowMembers@EdbMath@@UAEXAAVTMemberInspector@@@Z
	?Streamer@EdbMath@@UAEXAAVTBuffer@@@Z
	?StreamerNVirtual@EdbMath@@QAEXAAVTBuffer@@@Z
	?DeclFileName@EdbMath@@SAPBDXZ
	?ImplFileLine@EdbMath@@SAHXZ
	?ImplFileName@EdbMath@@SAPBDXZ
	?DeclFileLine@EdbMath@@SAHXZ
	??0EdbMath@@QAE@ABV0@@Z
	??4EdbMath@@QAEAAV0@ABV0@@Z
	??0TIndex2@@QAE@XZ
	??0TIndex2@@QAE@H@Z
	??1TIndex2@@UAE@XZ
	?BuildValue@TIndex2@@SANHH@Z
	?SetMinor@TIndex2@@QAEXHH@Z
	?Major@TIndex2@@QAEHH@Z
	?Minor@TIndex2@@QAEHH@Z
	?Class@TIndex2@@SAPAVTClass@@XZ
	?Class_Name@TIndex2@@SAPBDXZ
	?Class_Version@TIndex2@@SAFXZ
	?Dictionary@TIndex2@@SAXXZ
	?IsA@TIndex2@@UBEPAVTClass@@XZ
	?ShowMembers@TIndex2@@UAEXAAVTMemberInspector@@@Z
	?Streamer@TIndex2@@UAEXAAVTBuffer@@@Z
	?StreamerNVirtual@TIndex2@@QAEXAAVTBuffer@@@Z
	?DeclFileName@TIndex2@@SAPBDXZ
	?ImplFileLine@TIndex2@@SAHXZ
	?ImplFileName@TIndex2@@SAPBDXZ
	?DeclFileLine@TIndex2@@SAHXZ
	??0TIndex2@@QAE@ABV0@@Z
	??4TIndex2@@QAEAAV0@ABV0@@Z
	??0EdbFilter2D@@QAE@XZ
	??1EdbFilter2D@@UAE@XZ
	?Class@EdbFilter2D@@SAPAVTClass@@XZ
	?Class_Name@EdbFilter2D@@SAPBDXZ
	?Class_Version@EdbFilter2D@@SAFXZ
	?Dictionary@EdbFilter2D@@SAXXZ
	?IsA@EdbFilter2D@@UBEPAVTClass@@XZ
	?ShowMembers@EdbFilter2D@@UAEXAAVTMemberInspector@@@Z
	?Streamer@EdbFilter2D@@UAEXAAVTBuffer@@@Z
	?StreamerNVirtual@EdbFilter2D@@QAEXAAVTBuffer@@@Z
	?DeclFileName@EdbFilter2D@@SAPBDXZ
	?ImplFileLine@EdbFilter2D@@SAHXZ
	?ImplFileName@EdbFilter2D@@SAPBDXZ
	?DeclFileLine@EdbFilter2D@@SAHXZ
	??0EdbFilter2D@@QAE@ABV0@@Z
	??4EdbFilter2D@@QAEAAV0@ABV0@@Z
	??0EdbH1@@QAE@HMM@Z
	?InitH1@EdbH1@@QAEHABV1@@Z
	?Ncell@EdbH1@@QBEHXZ
	?N@EdbH1@@QBEHXZ
	?IX@EdbH1@@QBEHM@Z
	?Jcell@EdbH1@@QBEHH@Z
	?Jcell@EdbH1@@QBEHM@Z
	?X@EdbH1@@QBEMH@Z
	?Xmin@EdbH1@@QBEMXZ
	?Xmax@EdbH1@@QBEMXZ
	?Xbin@EdbH1@@QBEMXZ
	?Bin@EdbH1@@QBEHH@Z
	?AddBin@EdbH1@@QAEXHH@Z
	?Fill@EdbH1@@QAEHM@Z
	?SetBin@EdbH1@@QAEXHH@Z
	?Mean@EdbH1@@QAEMXZ
	?Class@EdbH1@@SAPAVTClass@@XZ
	?Class_Name@EdbH1@@SAPBDXZ
	?Class_Version@EdbH1@@SAFXZ
	?Dictionary@EdbH1@@SAXXZ
	?IsA@EdbH1@@UBEPAVTClass@@XZ
	?ShowMembers@EdbH1@@UAEXAAVTMemberInspector@@@Z
	?Streamer@EdbH1@@UAEXAAVTBuffer@@@Z
	?StreamerNVirtual@EdbH1@@QAEXAAVTBuffer@@@Z
	?DeclFileName@EdbH1@@SAPBDXZ
	?ImplFileLine@EdbH1@@SAHXZ
	?ImplFileName@EdbH1@@SAPBDXZ
	?DeclFileLine@EdbH1@@SAHXZ
	??4EdbH1@@QAEAAV0@ABV0@@Z
	?Reset@EdbCell1@@QAEXXZ
	?SelectObjectsC@EdbCell1@@QAEHMHAAVTObjArray@@@Z
	?GetObject@EdbCell1@@QBEPAVTObject@@HH@Z
	?Class@EdbCell1@@SAPAVTClass@@XZ
	?Class_Name@EdbCell1@@SAPBDXZ
	?Class_Version@EdbCell1@@SAFXZ
	?Dictionary@EdbCell1@@SAXXZ
	?IsA@EdbCell1@@UBEPAVTClass@@XZ
	?ShowMembers@EdbCell1@@UAEXAAVTMemberInspector@@@Z
	?Streamer@EdbCell1@@UAEXAAVTBuffer@@@Z
	?StreamerNVirtual@EdbCell1@@QAEXAAVTBuffer@@@Z
	?DeclFileName@EdbCell1@@SAPBDXZ
	?ImplFileLine@EdbCell1@@SAHXZ
	?ImplFileName@EdbCell1@@SAPBDXZ
	?DeclFileLine@EdbCell1@@SAHXZ
	??0EdbCell1@@QAE@ABV0@@Z
	??4EdbCell1@@QAEAAV0@ABV0@@Z
	??0EdbH2@@QAE@HMMHMM@Z
	?Ncell@EdbH2@@QBEHXZ
	?NX@EdbH2@@QBEHXZ
	?NY@EdbH2@@QBEHXZ
	?IX@EdbH2@@QBEHM@Z
	?IY@EdbH2@@QBEHM@Z
	?IX@EdbH2@@QBEHH@Z
	?IY@EdbH2@@QBEHH@Z
	?Jcell@EdbH2@@QBEHHH@Z
	?Jcell@EdbH2@@QBEHMM@Z
	?Jcell@EdbH2@@QBEHQAM@Z
	?X@EdbH2@@QBEMH@Z
	?Y@EdbH2@@QBEMH@Z
	?Xj@EdbH2@@QBEMH@Z
	?Yj@EdbH2@@QBEMH@Z
	?Xmin@EdbH2@@QBEMXZ
	?Xmax@EdbH2@@QBEMXZ
	?Ymin@EdbH2@@QBEMXZ
	?Ymax@EdbH2@@QBEMXZ
	?Xbin@EdbH2@@QBEMXZ
	?Ybin@EdbH2@@QBEMXZ
	?Bin@EdbH2@@QBEHMM@Z
	?Bin@EdbH2@@QBEHHH@Z
	?Bin@EdbH2@@QBEHQAH@Z
	?Bin@EdbH2@@QBEHH@Z
	?AddBin@EdbH2@@QAEXHH@Z
	?Fill@EdbH2@@QAEHMM@Z
	?SetBin@EdbH2@@QAEXHHH@Z
	?SetBin@EdbH2@@QAEXHH@Z
	?Mean@EdbH2@@QAEMXZ
	?Class@EdbH2@@SAPAVTClass@@XZ
	?Class_Name@EdbH2@@SAPBDXZ
	?Class_Version@EdbH2@@SAFXZ
	?Dictionary@EdbH2@@SAXXZ
	?IsA@EdbH2@@UBEPAVTClass@@XZ
	?ShowMembers@EdbH2@@UAEXAAVTMemberInspector@@@Z
	?Streamer@EdbH2@@UAEXAAVTBuffer@@@Z
	?StreamerNVirtual@EdbH2@@QAEXAAVTBuffer@@@Z
	?DeclFileName@EdbH2@@SAPBDXZ
	?ImplFileLine@EdbH2@@SAHXZ
	?ImplFileName@EdbH2@@SAPBDXZ
	?DeclFileLine@EdbH2@@SAHXZ
	??4EdbH2@@QAEAAV0@ABV0@@Z
	??0EdbPeak2@@QAE@XZ
	??0EdbPeak2@@QAE@ABVEdbH2@@@Z
	??1EdbPeak2@@UAE@XZ
	?Peak@EdbPeak2@@QBEMH@Z
	?Mean3@EdbPeak2@@QBEMH@Z
	?Mean@EdbPeak2@@QBEMH@Z
	?Class@EdbPeak2@@SAPAVTClass@@XZ
	?Class_Name@EdbPeak2@@SAPBDXZ
	?Class_Version@EdbPeak2@@SAFXZ
	?Dictionary@EdbPeak2@@SAXXZ
	?IsA@EdbPeak2@@UBEPAVTClass@@XZ
	?ShowMembers@EdbPeak2@@UAEXAAVTMemberInspector@@@Z
	?Streamer@EdbPeak2@@UAEXAAVTBuffer@@@Z
	?StreamerNVirtual@EdbPeak2@@QAEXAAVTBuffer@@@Z
	?DeclFileName@EdbPeak2@@SAPBDXZ
	?ImplFileLine@EdbPeak2@@SAHXZ
	?ImplFileName@EdbPeak2@@SAPBDXZ
	?DeclFileLine@EdbPeak2@@SAHXZ
	??0EdbPeak2@@QAE@ABV0@@Z
	??4EdbPeak2@@QAEAAV0@ABV0@@Z
	??0EdbCell2@@QAE@ABV0@@Z
	?CellLim@EdbCell2@@QAEHXZ
	?InitCell@EdbCell2@@QAEHAAV1@@Z
	?Reset@EdbCell2@@QAEXXZ
	?AddObject@EdbCell2@@QAE_NQAMPAVTObject@@@Z
	?SelectObjectsCJ@EdbCell2@@QAEHHHAAVTObjArray@@@Z
	?SelectObjectsC@EdbCell2@@QAEHQAMQAHAAVTObjArray@@@Z
	?SelectObjectsC@EdbCell2@@QAEHQAMMAAVTObjArray@@@Z
	?GetObject@EdbCell2@@QBEPAVTObject@@MMH@Z
	?GetObject@EdbCell2@@QBEPAVTObject@@HHH@Z
	?GetObject@EdbCell2@@QBEPAVTObject@@HH@Z
	?Class@EdbCell2@@SAPAVTClass@@XZ
	?Class_Name@EdbCell2@@SAPBDXZ
	?Class_Version@EdbCell2@@SAFXZ
	?Dictionary@EdbCell2@@SAXXZ
	?IsA@EdbCell2@@UBEPAVTClass@@XZ
	?ShowMembers@EdbCell2@@UAEXAAVTMemberInspector@@@Z
	?StreamerNVirtual@EdbCell2@@QAEXAAVTBuffer@@@Z
	?DeclFileName@EdbCell2@@SAPBDXZ
	?ImplFileLine@EdbCell2@@SAHXZ
	?ImplFileName@EdbCell2@@SAPBDXZ
	?DeclFileLine@EdbCell2@@SAHXZ
	??4EdbCell2@@QAEAAV0@ABV0@@Z
	??0EdbMask@@QAE@XZ
	??0EdbMask@@QAE@H@Z
	??1EdbMask@@UAE@XZ
	?N@EdbMask@@QAEHXZ
	?At@EdbMask@@QAEHH@Z
	?SetAt@EdbMask@@QAEXHH@Z
	?Class@EdbMask@@SAPAVTClass@@XZ
	?Class_Name@EdbMask@@SAPBDXZ
	?Class_Version@EdbMask@@SAFXZ
	?Dictionary@EdbMask@@SAXXZ
	?IsA@EdbMask@@UBEPAVTClass@@XZ
	?ShowMembers@EdbMask@@UAEXAAVTMemberInspector@@@Z
	?Streamer@EdbMask@@UAEXAAVTBuffer@@@Z
	?StreamerNVirtual@EdbMask@@QAEXAAVTBuffer@@@Z
	?DeclFileName@EdbMask@@SAPBDXZ
	?ImplFileLine@EdbMask@@SAHXZ
	?ImplFileName@EdbMask@@SAPBDXZ
	?DeclFileLine@EdbMask@@SAHXZ
	??0EdbMask@@QAE@ABV0@@Z
	??4EdbMask@@QAEAAV0@ABV0@@Z
	??0?$allocator@_N@std@@QAE@XZ
	??0?$allocator@I@std@@QAE@XZ
	?deallocate@?$allocator@I@std@@QAEXPAII@Z
	?allocate@?$allocator@I@std@@QAEPAII@Z
	?max_size@?$allocator@I@std@@QBEIXZ
	?max_size@?$allocator_traits@V?$allocator@I@std@@@std@@SAIABV?$allocator@I@2@@Z
	??0?$_Wrap_alloc@V?$allocator@I@std@@@std@@QAE@XZ
	?allocate@?$_Wrap_alloc@V?$allocator@I@std@@@std@@QAEPAII@Z
	?deallocate@?$_Wrap_alloc@V?$allocator@I@std@@@std@@QAEXPAII@Z
	?max_size@?$_Wrap_alloc@V?$allocator@I@std@@@std@@QBEIXZ
	??0?$_Vector_val@U?$_Simple_types@I@std@@@std@@QAE@XZ
	??0?$_Vector_alloc@$0A@U?$_Vec_base_types@IV?$allocator@_N@std@@@std@@@std@@QAE@ABV?$allocator@_N@1@@Z
	?_Getal@?$_Vector_alloc@$0A@U?$_Vec_base_types@IV?$allocator@_N@std@@@std@@@std@@QBE?AU?$_Wrap_alloc@V?$allocator@I@std@@@2@XZ
	??0?$vector@IV?$allocator@_N@std@@@std@@QAE@IABIABV?$allocator@_N@1@@Z
	?_Construct_n@?$vector@IV?$allocator@_N@std@@@std@@QAEXIPBI@Z
	??1?$vector@IV?$allocator@_N@std@@@std@@QAE@XZ
	?reserve@?$vector@IV?$allocator@_N@std@@@std@@QAEXI@Z
	?capacity@?$vector@IV?$allocator@_N@std@@@std@@QBEIXZ
	?_Unused_capacity@?$vector@IV?$allocator@_N@std@@@std@@QBEIXZ
	?begin@?$vector@IV?$allocator@_N@std@@@std@@QAE?AV?$_Vector_iterator@V?$_Vector_val@U?$_Simple_types@I@std@@@std@@@2@XZ
	?end@?$vector@IV?$allocator@_N@std@@@std@@QAE?AV?$_Vector_iterator@V?$_Vector_val@U?$_Simple_types@I@std@@@std@@@2@XZ
	?_Make_iter@?$vector@IV?$allocator@_N@std@@@std@@QBE?AV?$_Vector_iterator@V?$_Vector_val@U?$_Simple_types@I@std@@@std@@@2@V?$_Vector_const_iterator@V?$_Vector_val@U?$_Simple_types@I@std@@@std@@@2@@Z
	?resize@?$vector@IV?$allocator@_N@std@@@std@@QAEXIABI@Z
	?size@?$vector@IV?$allocator@_N@std@@@std@@QBEIXZ
	?max_size@?$vector@IV?$allocator@_N@std@@@std@@QBEIXZ
	??A?$vector@IV?$allocator@_N@std@@@std@@QAEAAII@Z
	?erase@?$vector@IV?$allocator@_N@std@@@std@@QAE?AV?$_Vector_iterator@V?$_Vector_val@U?$_Simple_types@I@std@@@std@@@2@V?$_Vector_const_iterator@V?$_Vector_val@U?$_Simple_types@I@std@@@std@@@2@0@Z
	?_Pop_back_n@?$vector@IV?$allocator@_N@std@@@std@@QAEXI@Z
	?clear@?$vector@IV?$allocator@_N@std@@@std@@QAEXXZ
	?_Buy@?$vector@IV?$allocator@_N@std@@@std@@IAE_NI@Z
	?_Destroy@?$vector@IV?$allocator@_N@std@@@std@@IAEXPAI0@Z
	?_Grow_to@?$vector@IV?$allocator@_N@std@@@std@@IBEII@Z
	?_Inside@?$vector@IV?$allocator@_N@std@@@std@@IBE_NPBI@Z
	?_Reallocate@?$vector@IV?$allocator@_N@std@@@std@@IAEXI@Z
	?_Reserve@?$vector@IV?$allocator@_N@std@@@std@@IAEXI@Z
	?_Tidy@?$vector@IV?$allocator@_N@std@@@std@@IAEXXZ
	?_Ufill@?$vector@IV?$allocator@_N@std@@@std@@IAEPAIPAIIPBI@Z
	?_Xlen@?$vector@IV?$allocator@_N@std@@@std@@IBEXXZ
	??0?$_Vb_val@V?$allocator@_N@std@@@std@@QAE@IAB_NABV?$allocator@_N@1@@Z
	??1?$_Vb_val@V?$allocator@_N@std@@@std@@QAE@XZ
	?_Alloc_proxy@?$_Vb_val@V?$allocator@_N@std@@@std@@QAEXXZ
	?_Free_proxy@?$_Vb_val@V?$allocator@_N@std@@@std@@QAEXXZ
	?_Nw@?$_Vb_val@V?$allocator@_N@std@@@std@@SAII@Z
	??0?$vector@_NV?$allocator@_N@std@@@std@@QAE@XZ
	??1?$vector@_NV?$allocator@_N@std@@@std@@QAE@XZ
	?reserve@?$vector@_NV?$allocator@_N@std@@@std@@QAEXI@Z
	?begin@?$vector@_NV?$allocator@_N@std@@@std@@QAE?AV?$_Vb_iterator@U?$_Wrap_alloc@V?$allocator@I@std@@@std@@@2@XZ
	?end@?$vector@_NV?$allocator@_N@std@@@std@@QAE?AV?$_Vb_iterator@U?$_Wrap_alloc@V?$allocator@I@std@@@std@@@2@XZ
	?_Make_iter@?$vector@_NV?$allocator@_N@std@@@std@@QAE?AV?$_Vb_iterator@U?$_Wrap_alloc@V?$allocator@I@std@@@std@@@2@V?$_Vb_const_iterator@U?$_Wrap_alloc@V?$allocator@I@std@@@std@@@2@@Z
	?resize@?$vector@_NV?$allocator@_N@std@@@std@@QAEXI_N@Z
	?size@?$vector@_NV?$allocator@_N@std@@@std@@QBEIXZ
	?max_size@?$vector@_NV?$allocator@_N@std@@@std@@QBEIXZ
	?empty@?$vector@_NV?$allocator@_N@std@@@std@@QBE_NXZ
	?push_back@?$vector@_NV?$allocator@_N@std@@@std@@QAEXAB_N@Z
	?insert@?$vector@_NV?$allocator@_N@std@@@std@@QAE?AV?$_Vb_iterator@U?$_Wrap_alloc@V?$allocator@I@std@@@std@@@2@V?$_Vb_const_iterator@U?$_Wrap_alloc@V?$allocator@I@std@@@std@@@2@AB_N@Z
	?erase@?$vector@_NV?$allocator@_N@std@@@std@@QAE?AV?$_Vb_iterator@U?$_Wrap_alloc@V?$allocator@I@std@@@std@@@2@V?$_Vb_const_iterator@U?$_Wrap_alloc@V?$allocator@I@std@@@std@@@2@0@Z
	?clear@?$vector@_NV?$allocator@_N@std@@@std@@QAEXXZ
	?_Insert_n@?$vector@_NV?$allocator@_N@std@@@std@@QAE?AV?$_Vb_iterator@U?$_Wrap_alloc@V?$allocator@I@std@@@std@@@2@V?$_Vb_const_iterator@U?$_Wrap_alloc@V?$allocator@I@std@@@std@@@2@IAB_N@Z
	?_Insert_x@?$vector@_NV?$allocator@_N@std@@@std@@QAEIV?$_Vb_const_iterator@U?$_Wrap_alloc@V?$allocator@I@std@@@std@@@2@I@Z
	?_Trim@?$vector@_NV?$allocator@_N@std@@@std@@QAEXI@Z
	?_Xlen@?$vector@_NV?$allocator@_N@std@@@std@@QBEXXZ
	??0EdbCombGen@@QAE@XZ
	??1EdbCombGen@@UAE@XZ
	?Class@EdbCombGen@@SAPAVTClass@@XZ
	?Class_Name@EdbCombGen@@SAPBDXZ
	?Class_Version@EdbCombGen@@SAFXZ
	?Dictionary@EdbCombGen@@SAXXZ
	?IsA@EdbCombGen@@UBEPAVTClass@@XZ
	?ShowMembers@EdbCombGen@@UAEXAAVTMemberInspector@@@Z
	?Streamer@EdbCombGen@@UAEXAAVTBuffer@@@Z
	?StreamerNVirtual@EdbCombGen@@QAEXAAVTBuffer@@@Z
	?DeclFileName@EdbCombGen@@SAPBDXZ
	?ImplFileLine@EdbCombGen@@SAHXZ
	?ImplFileName@EdbCombGen@@SAPBDXZ
	?DeclFileLine@EdbCombGen@@SAHXZ
	??0EnvironBase@TCollectionProxyInfo@ROOT@@QAE@XZ
	??1EnvironBase@TCollectionProxyInfo@ROOT@@UAE@XZ
	??0TCollectionProxyInfo@ROOT@@QAE@ABVtype_info@@IIHP6APAXPAX@ZP6AX1I@Z222P6APAX1I@Z3P6APAX11I@ZP6APAX11@ZP6APAXXZP6AX1PAPAX8PAVTVirtualCollectionProxy@@@ZP6APAX1PBX@ZP6APAX1PBX@ZP6AX1@ZP6AX11@Z@Z
	??1?$Address@_N@TCollectionProxyInfo@ROOT@@UAE@XZ
	??0?$Address@_N@TCollectionProxyInfo@ROOT@@QAE@XZ
	??1?$Type@V?$vector@_NV?$allocator@_N@std@@@std@@@TCollectionProxyInfo@ROOT@@UAE@XZ
	?object@?$Type@V?$vector@_NV?$allocator@_N@std@@@std@@@TCollectionProxyInfo@ROOT@@SAPAV?$vector@_NV?$allocator@_N@std@@@std@@PAX@Z
	?size@?$Type@V?$vector@_NV?$allocator@_N@std@@@std@@@TCollectionProxyInfo@ROOT@@SAPAXPAX@Z
	?clear@?$Type@V?$vector@_NV?$allocator@_N@std@@@std@@@TCollectionProxyInfo@ROOT@@SAPAXPAX@Z
	?first@?$Type@V?$vector@_NV?$allocator@_N@std@@@std@@@TCollectionProxyInfo@ROOT@@SAPAXPAX@Z
	?next@?$Type@V?$vector@_NV?$allocator@_N@std@@@std@@@TCollectionProxyInfo@ROOT@@SAPAXPAX@Z
	?construct@?$Type@V?$vector@_NV?$allocator@_N@std@@@std@@@TCollectionProxyInfo@ROOT@@SAPAXPAXI@Z
	?collect@?$Type@V?$vector@_NV?$allocator@_N@std@@@std@@@TCollectionProxyInfo@ROOT@@SAPAXPAX0@Z
	?destruct@?$Type@V?$vector@_NV?$allocator@_N@std@@@std@@@TCollectionProxyInfo@ROOT@@SAXPAXI@Z
	?create@Iterators@?$Type@V?$vector@_NV?$allocator@_N@std@@@std@@@TCollectionProxyInfo@ROOT@@SAXPAXPAPAX1PAVTVirtualCollectionProxy@@@Z
	?copy@Iterators@?$Type@V?$vector@_NV?$allocator@_N@std@@@std@@@TCollectionProxyInfo@ROOT@@SAPAXPAXPBX@Z
	?next@Iterators@?$Type@V?$vector@_NV?$allocator@_N@std@@@std@@@TCollectionProxyInfo@ROOT@@SAPAXPAXPBX@Z
	?destruct1@Iterators@?$Type@V?$vector@_NV?$allocator@_N@std@@@std@@@TCollectionProxyInfo@ROOT@@SAXPAX@Z
	?destruct2@Iterators@?$Type@V?$vector@_NV?$allocator@_N@std@@@std@@@TCollectionProxyInfo@ROOT@@SAXPAX0@Z
	??0?$Type@V?$vector@_NV?$allocator@_N@std@@@std@@@TCollectionProxyInfo@ROOT@@QAE@XZ
	??0?$_Vb_iter_base@U?$_Wrap_alloc@V?$allocator@I@std@@@std@@@std@@QAE@XZ
	??0?$_Vb_iter_base@U?$_Wrap_alloc@V?$allocator@I@std@@@std@@@std@@QAE@PBIIPBU_Container_base0@1@@Z
	??0?$_Vb_const_iterator@U?$_Wrap_alloc@V?$allocator@I@std@@@std@@@std@@QAE@XZ
	??0?$_Vb_const_iterator@U?$_Wrap_alloc@V?$allocator@I@std@@@std@@@std@@QAE@PBIPBU_Container_base0@1@@Z
	??E?$_Vb_const_iterator@U?$_Wrap_alloc@V?$allocator@I@std@@@std@@@std@@QAEAAV01@XZ
	??F?$_Vb_const_iterator@U?$_Wrap_alloc@V?$allocator@I@std@@@std@@@std@@QAEAAV01@XZ
	??Y?$_Vb_const_iterator@U?$_Wrap_alloc@V?$allocator@I@std@@@std@@@std@@QAEAAV01@H@Z
	??G?$_Vb_const_iterator@U?$_Wrap_alloc@V?$allocator@I@std@@@std@@@std@@QBEHABV01@@Z
	??8?$_Vb_const_iterator@U?$_Wrap_alloc@V?$allocator@I@std@@@std@@@std@@QBE_NABV01@@Z
	??9?$_Vb_const_iterator@U?$_Wrap_alloc@V?$allocator@I@std@@@std@@@std@@QBE_NABV01@@Z
	?_Compat@?$_Vb_const_iterator@U?$_Wrap_alloc@V?$allocator@I@std@@@std@@@std@@QBEXABV12@@Z
	?_Dec@?$_Vb_const_iterator@U?$_Wrap_alloc@V?$allocator@I@std@@@std@@@std@@QAEXXZ
	?_Inc@?$_Vb_const_iterator@U?$_Wrap_alloc@V?$allocator@I@std@@@std@@@std@@QAEXXZ
	??0?$_Vb_iterator@U?$_Wrap_alloc@V?$allocator@I@std@@@std@@@std@@QAE@XZ
	??0?$_Vb_iterator@U?$_Wrap_alloc@V?$allocator@I@std@@@std@@@std@@QAE@PAIPAU_Container_base0@1@@Z
	??D?$_Vb_iterator@U?$_Wrap_alloc@V?$allocator@I@std@@@std@@@std@@QBE?AV?$_Vb_reference@U?$_Wrap_alloc@V?$allocator@I@std@@@std@@@1@XZ
	??E?$_Vb_iterator@U?$_Wrap_alloc@V?$allocator@I@std@@@std@@@std@@QAEAAV01@XZ
	??F?$_Vb_iterator@U?$_Wrap_alloc@V?$allocator@I@std@@@std@@@std@@QAEAAV01@XZ
	??Y?$_Vb_iterator@U?$_Wrap_alloc@V?$allocator@I@std@@@std@@@std@@QAEAAV01@H@Z
	??H?$_Vb_iterator@U?$_Wrap_alloc@V?$allocator@I@std@@@std@@@std@@QBE?AV01@H@Z
	??G?$_Vb_iterator@U?$_Wrap_alloc@V?$allocator@I@std@@@std@@@std@@QBEHABV?$_Vb_const_iterator@U?$_Wrap_alloc@V?$allocator@I@std@@@std@@@1@@Z
	?iter@?$Environ@V?$_Vb_iterator@U?$_Wrap_alloc@V?$allocator@I@std@@@std@@@std@@@TCollectionProxyInfo@ROOT@@QAEAAV?$_Vb_iterator@U?$_Wrap_alloc@V?$allocator@I@std@@@std@@@std@@XZ
	?Create@?$Environ@V?$_Vb_iterator@U?$_Wrap_alloc@V?$allocator@I@std@@@std@@@std@@@TCollectionProxyInfo@ROOT@@SAPAXXZ
	??0?$Environ@V?$_Vb_iterator@U?$_Wrap_alloc@V?$allocator@I@std@@@std@@@std@@@TCollectionProxyInfo@ROOT@@QAE@XZ
	??1?$Environ@V?$_Vb_iterator@U?$_Wrap_alloc@V?$allocator@I@std@@@std@@@std@@@TCollectionProxyInfo@ROOT@@UAE@XZ
	??0?$_Vb_reference@U?$_Wrap_alloc@V?$allocator@I@std@@@std@@@std@@QAE@ABV?$_Vb_iter_base@U?$_Wrap_alloc@V?$allocator@I@std@@@std@@@1@@Z
	??4?$_Vb_reference@U?$_Wrap_alloc@V?$allocator@I@std@@@std@@@std@@QAEAAV01@ABV01@@Z
	??4?$_Vb_reference@U?$_Wrap_alloc@V?$allocator@I@std@@@std@@@std@@QAEAAV01@_N@Z
	??B?$_Vb_reference@U?$_Wrap_alloc@V?$allocator@I@std@@@std@@@std@@QBE_NXZ
	?_Getptr@?$_Vb_reference@U?$_Wrap_alloc@V?$allocator@I@std@@@std@@@std@@QBEPBIXZ
	?_Mask@?$_Vb_reference@U?$_Wrap_alloc@V?$allocator@I@std@@@std@@@std@@IBEIXZ
	?resize@?$Pushback@V?$vector@_NV?$allocator@_N@std@@@std@@@TCollectionProxyInfo@ROOT@@SAXPAXI@Z
	?feed@?$Pushback@V?$vector@_NV?$allocator@_N@std@@@std@@@TCollectionProxyInfo@ROOT@@SAPAXPAX0I@Z
	?value_offset@?$Pushback@V?$vector@_NV?$allocator@_N@std@@@std@@@TCollectionProxyInfo@ROOT@@SAHXZ
	??0?$Pushback@V?$vector@_NV?$allocator@_N@std@@@std@@@TCollectionProxyInfo@ROOT@@QAE@XZ
	??1?$Pushback@V?$vector@_NV?$allocator@_N@std@@@std@@@TCollectionProxyInfo@ROOT@@UAE@XZ
	??0_Ignore@std@@QAE@XZ
	??0TLockGuard@@QAE@PAVTVirtualMutex@@@Z
	??1TLockGuard@@UAE@XZ
	?IsA@TLockGuard@@UBEPAVTClass@@XZ
	??2@YAPAXIPAVTOperatorNewHelper@ROOT@@@Z
	??3@YAXPAXPAVTOperatorNewHelper@ROOT@@@Z
	??1TVirtualIsAProxy@@UAE@XZ
	??0TVirtualIsAProxy@@QAE@XZ
	??0DictInit@?A0x6b61e3da@@QAE@XZ
	??0?$TInstrumentedIsAProxy@VTIndexCell@@@@QAE@PAVTClass@@@Z
	??1?$TInstrumentedIsAProxy@VTIndexCell@@@@UAE@XZ
	?SetClass@?$TInstrumentedIsAProxy@VTIndexCell@@@@UAEXPAVTClass@@@Z
	??R?$TInstrumentedIsAProxy@VTIndexCell@@@@UAEPAVTClass@@PBX@Z
	?GenerateInitInstance@ROOTDict@@YAPAVTGenericClassInfo@ROOT@@PBVTIndexCell@@@Z
	??0?$TInstrumentedIsAProxy@VTIndexCellIter@@@@QAE@PAVTClass@@@Z
	??1?$TInstrumentedIsAProxy@VTIndexCellIter@@@@UAE@XZ
	?SetClass@?$TInstrumentedIsAProxy@VTIndexCellIter@@@@UAEXPAVTClass@@@Z
	??R?$TInstrumentedIsAProxy@VTIndexCellIter@@@@UAEPAVTClass@@PBX@Z
	?GenerateInitInstance@ROOTDict@@YAPAVTGenericClassInfo@ROOT@@PBVTIndexCellIter@@@Z
	??0?$TInstrumentedIsAProxy@VTIndexCellIterV@@@@QAE@PAVTClass@@@Z
	??1?$TInstrumentedIsAProxy@VTIndexCellIterV@@@@UAE@XZ
	?SetClass@?$TInstrumentedIsAProxy@VTIndexCellIterV@@@@UAEXPAVTClass@@@Z
	??R?$TInstrumentedIsAProxy@VTIndexCellIterV@@@@UAEPAVTClass@@PBX@Z
	?GenerateInitInstance@ROOTDict@@YAPAVTGenericClassInfo@ROOT@@PBVTIndexCellIterV@@@Z
	??0?$TInstrumentedIsAProxy@VEdbMath@@@@QAE@PAVTClass@@@Z
	??1?$TInstrumentedIsAProxy@VEdbMath@@@@UAE@XZ
	?SetClass@?$TInstrumentedIsAProxy@VEdbMath@@@@UAEXPAVTClass@@@Z
	??R?$TInstrumentedIsAProxy@VEdbMath@@@@UAEPAVTClass@@PBX@Z
	?GenerateInitInstance@ROOTDict@@YAPAVTGenericClassInfo@ROOT@@PBVEdbMath@@@Z
	??0?$TInstrumentedIsAProxy@VTIndex2@@@@QAE@PAVTClass@@@Z
	??1?$TInstrumentedIsAProxy@VTIndex2@@@@UAE@XZ
	?SetClass@?$TInstrumentedIsAProxy@VTIndex2@@@@UAEXPAVTClass@@@Z
	??R?$TInstrumentedIsAProxy@VTIndex2@@@@UAEPAVTClass@@PBX@Z
	?GenerateInitInstance@ROOTDict@@YAPAVTGenericClassInfo@ROOT@@PBVTIndex2@@@Z
	??0?$TInstrumentedIsAProxy@VEdbFilter2D@@@@QAE@PAVTClass@@@Z
	??1?$TInstrumentedIsAProxy@VEdbFilter2D@@@@UAE@XZ
	?SetClass@?$TInstrumentedIsAProxy@VEdbFilter2D@@@@UAEXPAVTClass@@@Z
	??R?$TInstrumentedIsAProxy@VEdbFilter2D@@@@UAEPAVTClass@@PBX@Z
	?GenerateInitInstance@ROOTDict@@YAPAVTGenericClassInfo@ROOT@@PBVEdbFilter2D@@@Z
	??0?$TInstrumentedIsAProxy@VEdbH1@@@@QAE@PAVTClass@@@Z
	??1?$TInstrumentedIsAProxy@VEdbH1@@@@UAE@XZ
	?SetClass@?$TInstrumentedIsAProxy@VEdbH1@@@@UAEXPAVTClass@@@Z
	??R?$TInstrumentedIsAProxy@VEdbH1@@@@UAEPAVTClass@@PBX@Z
	?GenerateInitInstance@ROOTDict@@YAPAVTGenericClassInfo@ROOT@@PBVEdbH1@@@Z
	??0?$TInstrumentedIsAProxy@VEdbCell1@@@@QAE@PAVTClass@@@Z
	??1?$TInstrumentedIsAProxy@VEdbCell1@@@@UAE@XZ
	?SetClass@?$TInstrumentedIsAProxy@VEdbCell1@@@@UAEXPAVTClass@@@Z
	??R?$TInstrumentedIsAProxy@VEdbCell1@@@@UAEPAVTClass@@PBX@Z
	?GenerateInitInstance@ROOTDict@@YAPAVTGenericClassInfo@ROOT@@PBVEdbCell1@@@Z
	??0?$TInstrumentedIsAProxy@VEdbH2@@@@QAE@PAVTClass@@@Z
	??1?$TInstrumentedIsAProxy@VEdbH2@@@@UAE@XZ
	?SetClass@?$TInstrumentedIsAProxy@VEdbH2@@@@UAEXPAVTClass@@@Z
	??R?$TInstrumentedIsAProxy@VEdbH2@@@@UAEPAVTClass@@PBX@Z
	?GenerateInitInstance@ROOTDict@@YAPAVTGenericClassInfo@ROOT@@PBVEdbH2@@@Z
	??0?$TInstrumentedIsAProxy@VEdbPeak2@@@@QAE@PAVTClass@@@Z
	??1?$TInstrumentedIsAProxy@VEdbPeak2@@@@UAE@XZ
	?SetClass@?$TInstrumentedIsAProxy@VEdbPeak2@@@@UAEXPAVTClass@@@Z
	??R?$TInstrumentedIsAProxy@VEdbPeak2@@@@UAEPAVTClass@@PBX@Z
	?GenerateInitInstance@ROOTDict@@YAPAVTGenericClassInfo@ROOT@@PBVEdbPeak2@@@Z
	??0?$TInstrumentedIsAProxy@VEdbCell2@@@@QAE@PAVTClass@@@Z
	??1?$TInstrumentedIsAProxy@VEdbCell2@@@@UAE@XZ
	?SetClass@?$TInstrumentedIsAProxy@VEdbCell2@@@@UAEXPAVTClass@@@Z
	??R?$TInstrumentedIsAProxy@VEdbCell2@@@@UAEPAVTClass@@PBX@Z
	?GenerateInitInstance@ROOTDict@@YAPAVTGenericClassInfo@ROOT@@PBVEdbCell2@@@Z
	??0?$TInstrumentedIsAProxy@VEdbMask@@@@QAE@PAVTClass@@@Z
	??1?$TInstrumentedIsAProxy@VEdbMask@@@@UAE@XZ
	?SetClass@?$TInstrumentedIsAProxy@VEdbMask@@@@UAEXPAVTClass@@@Z
	??R?$TInstrumentedIsAProxy@VEdbMask@@@@UAEPAVTClass@@PBX@Z
	?GenerateInitInstance@ROOTDict@@YAPAVTGenericClassInfo@ROOT@@PBVEdbMask@@@Z
	??0?$TInstrumentedIsAProxy@VEdbCombGen@@@@QAE@PAVTClass@@@Z
	??1?$TInstrumentedIsAProxy@VEdbCombGen@@@@UAE@XZ
	?SetClass@?$TInstrumentedIsAProxy@VEdbCombGen@@@@UAEXPAVTClass@@@Z
	??R?$TInstrumentedIsAProxy@VEdbCombGen@@@@UAEPAVTClass@@PBX@Z
	?GenerateInitInstance@ROOTDict@@YAPAVTGenericClassInfo@ROOT@@PBVEdbCombGen@@@Z
	??$?5VTObjArray@@@@YAAAVTBuffer@@AAV0@AAPAVTObjArray@@@Z
	??$?6VTObjArray@@@@YAAAVTBuffer@@AAV0@PBVTObjArray@@@Z
	??$InspectMember@VTArrayF@@@TMemberInspector@@QAEXAAVTArrayF@@PBD@Z
	??$InspectMember@VTArrayC@@@TMemberInspector@@QAEXAAVTArrayC@@PBD@Z
	??$InspectMember@VTObjArray@@@TMemberInspector@@QAEXAAVTObjArray@@PBD@Z
	??$Generate@U?$Pushback@V?$vector@_NV?$allocator@_N@std@@@std@@@TCollectionProxyInfo@ROOT@@@TCollectionProxyInfo@ROOT@@SAPAV01@ABU?$Pushback@V?$vector@_NV?$allocator@_N@std@@@std@@@01@@Z
	G__cpp_reset_tagtableEmathDict
	??0G__Sizep2memfuncEmathDict@@QAE@XZ
	?sizep2memfunc@G__Sizep2memfuncEmathDict@@QAEIXZ
	?G__get_sizep2memfuncEmathDict@@YAIXZ
	??$?0P6APAVTClass@@XZ@G__func2void@@QAE@P6APAVTClass@@XZ@Z
	??$?0P6APBDXZ@G__func2void@@QAE@P6APBDXZ@Z
	??$?0P6AFXZ@G__func2void@@QAE@P6AFXZ@Z
	??$?0P6AXXZ@G__func2void@@QAE@P6AXXZ@Z
	??$?0P6AHXZ@G__func2void@@QAE@P6AHXZ@Z
	??$?0P6ANPAM0@Z@G__func2void@@QAE@P6ANPAM0@Z@Z
	??$?0P6ANPAM00_N@Z@G__func2void@@QAE@P6ANPAM00_N@Z@Z
	??$?0P6ANMMMM@Z@G__func2void@@QAE@P6ANMMMM@Z@Z
	??$?0P6A_NPAM00000AAN1@Z@G__func2void@@QAE@P6A_NPAM00000AAN1@Z@Z
	??$?0P6A_NHPAM000PAPAM0@Z@G__func2void@@QAE@P6A_NHPAM000PAPAM0@Z@Z
	??$?0P6A_NHPAM0PAN000@Z@G__func2void@@QAE@P6A_NHPAM0PAN000@Z@Z
	??$?0P6AXPAM00HHAAM11@Z@G__func2void@@QAE@P6AXPAM00HHAAM11@Z@Z
	??$?0P6AHPAM000HAAM111111@Z@G__func2void@@QAE@P6AHPAM000HAAM111111@Z@Z
	??$?0P6AHHPAM0@Z@G__func2void@@QAE@P6AHHPAM0@Z@Z
	??$?0P6ANHH@Z@G__func2void@@QAE@P6ANHH@Z@Z
	??0G__cpp_setup_initEmathDict@@QAE@XZ
	??1G__cpp_setup_initEmathDict@@QAE@XZ
	??$construct@PADAAPAD@?$_Wrap_alloc@V?$allocator@D@std@@@std@@QAEXPAPADAAPAD@Z
	??$destroy@PAD@?$_Wrap_alloc@V?$allocator@D@std@@@std@@QAEXPAPAD@Z
	??$addressof@D@std@@YAPADAAD@Z
	??$copy@V?$_Vb_iterator@U?$_Wrap_alloc@V?$allocator@I@std@@@std@@@std@@V12@@std@@YA?AV?$_Vb_iterator@U?$_Wrap_alloc@V?$allocator@I@std@@@std@@@0@V10@00@Z
	??$fill@V?$_Vb_iterator@U?$_Wrap_alloc@V?$allocator@I@std@@@std@@@std@@_N@std@@YAXV?$_Vb_iterator@U?$_Wrap_alloc@V?$allocator@I@std@@@std@@@0@0AB_N@Z
	??$copy_backward@V?$_Vb_iterator@U?$_Wrap_alloc@V?$allocator@I@std@@@std@@@std@@V12@@std@@YA?AV?$_Vb_iterator@U?$_Wrap_alloc@V?$allocator@I@std@@@std@@@0@V10@00@Z
	??0?$_Vector_const_iterator@V?$_Vector_val@U?$_Simple_types@I@std@@@std@@@std@@QAE@PAIPBU_Container_base0@1@@Z
	??Y?$_Vector_const_iterator@V?$_Vector_val@U?$_Simple_types@I@std@@@std@@@std@@QAEAAV01@H@Z
	??8?$_Vector_const_iterator@V?$_Vector_val@U?$_Simple_types@I@std@@@std@@@std@@QBE_NABV01@@Z
	??9?$_Vector_const_iterator@V?$_Vector_val@U?$_Simple_types@I@std@@@std@@@std@@QBE_NABV01@@Z
	?_Compat@?$_Vector_const_iterator@V?$_Vector_val@U?$_Simple_types@I@std@@@std@@@std@@QBEXABV12@@Z
	??0?$_Vector_iterator@V?$_Vector_val@U?$_Simple_types@I@std@@@std@@@std@@QAE@PAIPBU_Container_base0@1@@Z
	??Y?$_Vector_iterator@V?$_Vector_val@U?$_Simple_types@I@std@@@std@@@std@@QAEAAV01@H@Z
	??H?$_Vector_iterator@V?$_Vector_val@U?$_Simple_types@I@std@@@std@@@std@@QBE?AV01@H@Z
	??$addressof@$$CBI@std@@YAPBIABI@Z
	??$_Umove@PAI@?$vector@IV?$allocator@_N@std@@@std@@IAEPAIPAI00@Z
	??$addressof@I@std@@YAPAIAAI@Z
	??$_Move@PAIPAI@std@@YAPAIPAI00@Z
	??$_Destroy_range@U?$_Wrap_alloc@V?$allocator@I@std@@@std@@@std@@YAXPAI0AAU?$_Wrap_alloc@V?$allocator@I@std@@@0@@Z
	??$_Uninitialized_fill_n@PAIIIU?$_Wrap_alloc@V?$allocator@I@std@@@std@@@std@@YAXPAIIPBIAAU?$_Wrap_alloc@V?$allocator@I@std@@@0@@Z
	??$_Allocate@I@std@@YAPAIIPAI@Z
	??$_Allocate@D@std@@YAPADIPAD@Z
	??$forward@AAPAD@std@@YAAAPADAAPAD@Z
	??$construct@PADAAPAD@?$allocator_traits@V?$allocator@D@std@@@std@@SAXAAV?$allocator@D@1@PAPADAAPAD@Z
	??$destroy@PAD@?$allocator_traits@V?$allocator@D@std@@@std@@SAXAAV?$allocator@D@1@PAPAD@Z
	??$_Unchecked@V?$_Vb_iterator@U?$_Wrap_alloc@V?$allocator@I@std@@@std@@@std@@@std@@YA?AV?$_Vb_iterator@U?$_Wrap_alloc@V?$allocator@I@std@@@std@@@0@V10@@Z
	??$_Copy_impl@V?$_Vb_iterator@U?$_Wrap_alloc@V?$allocator@I@std@@@std@@@std@@V12@@std@@YA?AV?$_Vb_iterator@U?$_Wrap_alloc@V?$allocator@I@std@@@std@@@0@V10@00@Z
	??$_Rechecked@V?$_Vb_iterator@U?$_Wrap_alloc@V?$allocator@I@std@@@std@@@std@@V12@@std@@YAAAV?$_Vb_iterator@U?$_Wrap_alloc@V?$allocator@I@std@@@std@@@0@AAV10@V10@@Z
	??$_Fill@V?$_Vb_iterator@U?$_Wrap_alloc@V?$allocator@I@std@@@std@@@std@@_N@std@@YAXV?$_Vb_iterator@U?$_Wrap_alloc@V?$allocator@I@std@@@std@@@0@0AB_N@Z
	??$_Copy_backward@V?$_Vb_iterator@U?$_Wrap_alloc@V?$allocator@I@std@@@std@@@std@@V12@@std@@YA?AV?$_Vb_iterator@U?$_Wrap_alloc@V?$allocator@I@std@@@std@@@0@V10@00@Z
	??$_Uninitialized_move@PAIPAIU?$_Wrap_alloc@V?$allocator@I@std@@@std@@@std@@YAPAIPAI00AAU?$_Wrap_alloc@V?$allocator@I@std@@@0@@Z
	??$_Ptr_cat@II@std@@YA?AU_Scalar_ptr_iterator_tag@0@PAI0@Z
	??$_Move@PAIPAI@std@@YAPAIPAI00U_Scalar_ptr_iterator_tag@0@@Z
	??$_Destroy_range@U?$_Wrap_alloc@V?$allocator@I@std@@@std@@@std@@YAXPAI0AAU?$_Wrap_alloc@V?$allocator@I@std@@@0@U_Scalar_ptr_iterator_tag@0@@Z
	??$_Val_type@PAI@std@@YAPAIPAI@Z
	??$_Uninit_fill_n@IIII@std@@YAXPAIIPBIAAU?$_Wrap_alloc@V?$allocator@I@std@@@0@0U_Scalar_ptr_iterator_tag@0@@Z
	??$construct@PADAAPAD@?$allocator@D@std@@QAEXPAPADAAPAD@Z
	??$destroy@PAD@?$allocator@D@std@@QAEXPAPAD@Z
	??$_Ptr_cat@V?$_Vb_iterator@U?$_Wrap_alloc@V?$allocator@I@std@@@std@@@std@@V12@@std@@YA?AU_Nonscalar_ptr_iterator_tag@0@AAV?$_Vb_iterator@U?$_Wrap_alloc@V?$allocator@I@std@@@std@@@0@0@Z
	??$_Copy_impl@V?$_Vb_iterator@U?$_Wrap_alloc@V?$allocator@I@std@@@std@@@std@@V12@@std@@YA?AV?$_Vb_iterator@U?$_Wrap_alloc@V?$allocator@I@std@@@std@@@0@V10@00U_Nonscalar_ptr_iterator_tag@0@@Z
	??$_Copy_backward@V?$_Vb_iterator@U?$_Wrap_alloc@V?$allocator@I@std@@@std@@@std@@V12@@std@@YA?AV?$_Vb_iterator@U?$_Wrap_alloc@V?$allocator@I@std@@@std@@@0@V10@00U_Nonscalar_ptr_iterator_tag@0@@Z
	??$_Unchecked@PAI@std@@YAPAIPAI@Z
	??$_Uninit_move@PAIPAIU?$_Wrap_alloc@V?$allocator@I@std@@@std@@@std@@YAPAIPAI00AAU?$_Wrap_alloc@V?$allocator@I@std@@@0@@Z
	??$_Rechecked@PAIPAI@std@@YAAAPAIAAPAIPAI@Z
	??$_Fill_n@PAIII@std@@YAPAIPAIIABI@Z
	??$_Uninit_move@III@std@@YAPAIPAI00AAU?$_Wrap_alloc@V?$allocator@I@std@@@0@0U_Scalar_ptr_iterator_tag@0@@Z
	?_Generic_object@?$_Error_objects@H@std@@2V_Generic_error_category@2@A 	 DATA
	?_Iostream_object@?$_Error_objects@H@std@@2V_Iostream_error_category@2@A 	 DATA
	?_System_object@?$_Error_objects@H@std@@2V_System_error_category@2@A 	 DATA
	?id@?$num_put@DV?$back_insert_iterator@V?$basic_string@DU?$char_traits@D@std@@V?$allocator@D@2@@std@@@std@@@std@@2V0locale@2@A 	 DATA
	?id@?$num_put@_WV?$back_insert_iterator@V?$basic_string@_WU?$char_traits@_W@std@@V?$allocator@_W@2@@std@@@std@@@std@@2V0locale@2@A 	 DATA
	??_R0?AVTIndexCell@@@8 	 DATA
	??_R0?AVTIndexCellIter@@@8 	 DATA
	??_R0?AVTIndexCellIterV@@@8 	 DATA
	??_R0?AVEdbMath@@@8 	 DATA
	??_R0?AVTIndex2@@@8 	 DATA
	??_R0?AVEdbFilter2D@@@8 	 DATA
	??_R0?AVEdbH1@@@8 	 DATA
	??_R0?AVEdbCell1@@@8 	 DATA
	??_R0?AVEdbH2@@@8 	 DATA
	??_R0?AVEdbPeak2@@@8 	 DATA
	??_R0?AVEdbCell2@@@8 	 DATA
	??_R0?AVEdbMask@@@8 	 DATA
	??_R0?AVEdbCombGen@@@8 	 DATA
	??_R0?AV?$vector@_NV?$allocator@_N@std@@@std@@@8 	 DATA
	?G__cpp_setup_initializerEmathDict@@3VG__cpp_setup_initEmathDict@@A 	 DATA
	??_R0?AVTObjArray@@@8 	 DATA
	??_R0?AVTObject@@@8 	 DATA
	??_R0?AVTVirtualIsAProxy@@@8 	 DATA
	??_R0?AVerror_category@std@@@8 	 DATA
	??_R0?AV_Generic_error_category@std@@@8 	 DATA
	??_R0?AV_Iostream_error_category@std@@@8 	 DATA
	??_R0?AV_System_error_category@std@@@8 	 DATA
	??_R0?AVTArray@@@8 	 DATA
	??_R0?AVTArrayD@@@8 	 DATA
	??_R0?AUEnvironBase@TCollectionProxyInfo@ROOT@@@8 	 DATA
	??_R0?AU?$Type@V?$vector@_NV?$allocator@_N@std@@@std@@@TCollectionProxyInfo@ROOT@@@8 	 DATA
	??_R0?AU?$Address@_N@TCollectionProxyInfo@ROOT@@@8 	 DATA
	??_R0?AU?$Environ@V?$_Vb_iterator@U?$_Wrap_alloc@V?$allocator@I@std@@@std@@@std@@@TCollectionProxyInfo@ROOT@@@8 	 DATA
	??_R0?AU?$Pushback@V?$vector@_NV?$allocator@_N@std@@@std@@@TCollectionProxyInfo@ROOT@@@8 	 DATA
	??_R0?AVTLockGuard@@@8 	 DATA
	??_R0?AV?$TInstrumentedIsAProxy@VTIndexCell@@@@@8 	 DATA
	??_R0?AV?$TInstrumentedIsAProxy@VTIndexCellIter@@@@@8 	 DATA
	??_R0?AV?$TInstrumentedIsAProxy@VTIndexCellIterV@@@@@8 	 DATA
	??_R0?AV?$TInstrumentedIsAProxy@VEdbMath@@@@@8 	 DATA
	??_R0?AV?$TInstrumentedIsAProxy@VTIndex2@@@@@8 	 DATA
	??_R0?AV?$TInstrumentedIsAProxy@VEdbFilter2D@@@@@8 	 DATA
	??_R0?AV?$TInstrumentedIsAProxy@VEdbH1@@@@@8 	 DATA
	??_R0?AV?$TInstrumentedIsAProxy@VEdbCell1@@@@@8 	 DATA
	??_R0?AV?$TInstrumentedIsAProxy@VEdbH2@@@@@8 	 DATA
	??_R0?AV?$TInstrumentedIsAProxy@VEdbPeak2@@@@@8 	 DATA
	??_R0?AV?$TInstrumentedIsAProxy@VEdbCell2@@@@@8 	 DATA
	??_R0?AV?$TInstrumentedIsAProxy@VEdbMask@@@@@8 	 DATA
	??_R0?AV?$TInstrumentedIsAProxy@VEdbCombGen@@@@@8 	 DATA
