LIBRARY    C:\Users\User\Downloads\Fedra/lib/libEmr
EXPORTS 
	hypot
	??2@YAPAXIPAX@Z
	??3@YAXPAX0@Z
	?length@?$char_traits@D@std@@SAIPBD@Z
	?copy@?$char_traits@D@std@@SAPADPADPBDI@Z
	?move@?$char_traits@D@std@@SAPADPADPBDI@Z
	?assign@?$char_traits@D@std@@SAXAADABD@Z
	??0?$allocator@D@std@@QAE@XZ
	?deallocate@?$allocator@D@std@@QAEXPADI@Z
	?allocate@?$allocator@D@std@@QAEPADI@Z
	?max_size@?$allocator@D@std@@QBEIXZ
	?max_size@?$allocator_traits@V?$allocator@D@std@@@std@@SAIABV?$allocator@D@2@@Z
	??0?$_Wrap_alloc@V?$allocator@D@std@@@std@@QAE@XZ
	?allocate@?$_Wrap_alloc@V?$allocator@D@std@@@std@@QAEPADI@Z
	?deallocate@?$_Wrap_alloc@V?$allocator@D@std@@@std@@QAEXPADI@Z
	?max_size@?$_Wrap_alloc@V?$allocator@D@std@@@std@@QBEIXZ
	??0?$_String_val@U?$_Simple_types@D@std@@@std@@QAE@XZ
	?_Myptr@?$_String_val@U?$_Simple_types@D@std@@@std@@QAEPADXZ
	?_Myptr@?$_String_val@U?$_Simple_types@D@std@@@std@@QBEPBDXZ
	??0?$_String_alloc@$0A@U?$_String_base_types@DV?$allocator@D@std@@@std@@@std@@QAE@ABV?$allocator@D@1@@Z
	?_Getal@?$_String_alloc@$0A@U?$_String_base_types@DV?$allocator@D@std@@@std@@@std@@QBE?AU?$_Wrap_alloc@V?$allocator@D@std@@@2@XZ
	??0?$basic_string@DU?$char_traits@D@std@@V?$allocator@D@2@@std@@QAE@PBD@Z
	??1?$basic_string@DU?$char_traits@D@std@@V?$allocator@D@2@@std@@QAE@XZ
	?assign@?$basic_string@DU?$char_traits@D@std@@V?$allocator@D@2@@std@@QAEAAV12@ABV12@II@Z
	?assign@?$basic_string@DU?$char_traits@D@std@@V?$allocator@D@2@@std@@QAEAAV12@PBDI@Z
	?assign@?$basic_string@DU?$char_traits@D@std@@V?$allocator@D@2@@std@@QAEAAV12@PBD@Z
	?erase@?$basic_string@DU?$char_traits@D@std@@V?$allocator@D@2@@std@@QAEAAV12@I@Z
	?erase@?$basic_string@DU?$char_traits@D@std@@V?$allocator@D@2@@std@@QAEAAV12@II@Z
	?size@?$basic_string@DU?$char_traits@D@std@@V?$allocator@D@2@@std@@QBEIXZ
	?max_size@?$basic_string@DU?$char_traits@D@std@@V?$allocator@D@2@@std@@QBEIXZ
	?_Copy@?$basic_string@DU?$char_traits@D@std@@V?$allocator@D@2@@std@@QAEXII@Z
	?_Eos@?$basic_string@DU?$char_traits@D@std@@V?$allocator@D@2@@std@@QAEXI@Z
	?_Grow@?$basic_string@DU?$char_traits@D@std@@V?$allocator@D@2@@std@@QAE_NI_N@Z
	?_Inside@?$basic_string@DU?$char_traits@D@std@@V?$allocator@D@2@@std@@QAE_NPBD@Z
	?_Tidy@?$basic_string@DU?$char_traits@D@std@@V?$allocator@D@2@@std@@QAEX_NI@Z
	?_Xlen@?$basic_string@DU?$char_traits@D@std@@V?$allocator@D@2@@std@@QBEXXZ
	?_Xran@?$basic_string@DU?$char_traits@D@std@@V?$allocator@D@2@@std@@QBEXXZ
	?generic_category@std@@YAABVerror_category@1@XZ
	?system_category@std@@YAABVerror_category@1@XZ
	??0error_category@std@@QAE@XZ
	??1error_category@std@@UAE@XZ
	?default_error_condition@error_category@std@@UBE?AVerror_condition@2@H@Z
	?equivalent@error_category@std@@UBE_NHABVerror_condition@2@@Z
	?equivalent@error_category@std@@UBE_NABVerror_code@2@H@Z
	??8error_category@std@@QBE_NABV01@@Z
	?value@error_code@std@@QBEHXZ
	?category@error_code@std@@QBEABVerror_category@2@XZ
	??0error_condition@std@@QAE@HABVerror_category@1@@Z
	?value@error_condition@std@@QBEHXZ
	?category@error_condition@std@@QBEABVerror_category@2@XZ
	??8error_condition@std@@QBE_NABV01@@Z
	??0_Generic_error_category@std@@QAE@XZ
	?name@_Generic_error_category@std@@UBEPBDXZ
	?message@_Generic_error_category@std@@UBE?AV?$basic_string@DU?$char_traits@D@std@@V?$allocator@D@2@@2@H@Z
	??1_Generic_error_category@std@@UAE@XZ
	??0_Iostream_error_category@std@@QAE@XZ
	?name@_Iostream_error_category@std@@UBEPBDXZ
	?message@_Iostream_error_category@std@@UBE?AV?$basic_string@DU?$char_traits@D@std@@V?$allocator@D@2@@2@H@Z
	??1_Iostream_error_category@std@@UAE@XZ
	??0_System_error_category@std@@QAE@XZ
	?name@_System_error_category@std@@UBEPBDXZ
	?message@_System_error_category@std@@UBE?AV?$basic_string@DU?$char_traits@D@std@@V?$allocator@D@2@@2@H@Z
	?default_error_condition@_System_error_category@std@@UBE?AVerror_condition@2@H@Z
	??1_System_error_category@std@@UAE@XZ
	?Clear@TObject@@UAEXPBD@Z
	?GetOption@TObject@@UBEPBDXZ
	?IsSortable@TObject@@UBE_NXZ
	??2TObject@@SAPAXI@Z
	?BoundsOk@TArray@@IBE_NPBDH@Z
	??ATArrayI@@QAEAAHH@Z
	??0_Ignore@std@@QAE@XZ
	??1EdbPoint@@UAE@XZ
	?Transform@EdbPoint@@UAEXPBVEdbAffine2D@@@Z
	?Transform@EdbPoint@@UAEXPBVEdbAffine3D@@@Z
	?Test@EdbPoint@@UBEXXZ
	?IsA@EdbPoint@@UBEPAVTClass@@XZ
	??1EdbAngle2D@@UAE@XZ
	?Test@EdbAngle2D@@UBEXXZ
	?IsA@EdbAngle2D@@UBEPAVTClass@@XZ
	??1EdbPoint2D@@UAE@XZ
	?TestPoint2D@EdbPoint2D@@UBEXXZ
	??1EdbTrack2D@@UAE@XZ
	?Test@EdbTrack2D@@UBEXXZ
	??1EdbID@@UAE@XZ
	?IsA@EdbID@@UBEPAVTClass@@XZ
	??1EdbSegP@@UAE@XZ
	?SetZ@EdbSegP@@UAEXM@Z
	?SetAid@EdbSegP@@QAEXHHH@Z
	?ID@EdbSegP@@QBEHXZ
	?Z@EdbSegP@@UBEMXZ
	?X@EdbSegP@@UBEMXZ
	?Y@EdbSegP@@UBEMXZ
	?TX@EdbSegP@@UBEMXZ
	?TY@EdbSegP@@UBEMXZ
	?SetX@EdbSegP@@UAEXM@Z
	?SetY@EdbSegP@@UAEXM@Z
	?SetTX@EdbSegP@@UAEXM@Z
	?SetTY@EdbSegP@@UAEXM@Z
	?IsSortable@EdbSegP@@UBE_NXZ
	?IsA@EdbSegP@@UBEPAVTClass@@XZ
	?GetSegment@EdbSegmentsBox@@QBEPAVEdbSegP@@H@Z
	?TrackEdb2Emr@EdbEmrIO@@QAEXAAVEdbTrackP@@@Z
	?TrackEmr2Edb@EdbEmrIO@@QAEXAAVEdbTrackP@@@Z
	?VertexEdb2Emr@EdbEmrIO@@QAEXAAVEdbVertex@@@Z
	?VertexEmr2Edb@EdbEmrIO@@QAEXAAVEdbVertex@@@Z
	?Print@EdbEmrIO@@QAEXXZ
	?PlateID@EdbEmrFileAccess@@QAEHH@Z
	?SideID@EdbEmrFileAccess@@QAEHH@Z
	?AddEntry@EdbEmrFileAccess@@QAEPAVEdbSegP@@HHHHHMMM@Z
	?GetPlateEntries@EdbEmrFileAccess@@QAEHHHAAVTArrayI@@@Z
	?FirstPlate@EdbEmrFileAccess@@QAEHXZ
	?LastPlate@EdbEmrFileAccess@@QAEHXZ
	?PrintStat@EdbEmrFileAccess@@QAEXXZ
	?SideID@EdbEmrFileAccess@@QAEHHH@Z
	??$construct@PADAAPAD@?$_Wrap_alloc@V?$allocator@D@std@@@std@@QAEXPAPADAAPAD@Z
	??$destroy@PAD@?$_Wrap_alloc@V?$allocator@D@std@@@std@@QAEXPAPAD@Z
	??$addressof@D@std@@YAPADAAD@Z
	??$_Allocate@D@std@@YAPADIPAD@Z
	??$forward@AAPAD@std@@YAAAPADAAPAD@Z
	??$construct@PADAAPAD@?$allocator_traits@V?$allocator@D@std@@@std@@SAXAAV?$allocator@D@1@PAPADAAPAD@Z
	??$destroy@PAD@?$allocator_traits@V?$allocator@D@std@@@std@@SAXAAV?$allocator@D@1@PAPAD@Z
	??$construct@PADAAPAD@?$allocator@D@std@@QAEXPAPADAAPAD@Z
	??$destroy@PAD@?$allocator@D@std@@QAEXPAPAD@Z
	?Transform@EdbTrack2D@@W3AEXPBVEdbAffine2D@@@Z
	?Test@EdbTrack2D@@W3BEXXZ
	?IsA@EdbSegP@@WM@BEPAVTClass@@XZ
	?ShowMembers@EdbSegP@@WM@AEXAAVTMemberInspector@@@Z
	?Streamer@EdbSegP@@WM@AEXAAVTBuffer@@@Z
	?Print@EdbSegP@@WM@BEXPBD@Z
	?Print@EdbSegP@@WBA@BEXPBD@Z
	?IsA@EdbSegP@@WBA@BEPAVTClass@@XZ
	?ShowMembers@EdbSegP@@WBA@AEXAAVTMemberInspector@@@Z
	?Streamer@EdbSegP@@WBA@AEXAAVTBuffer@@@Z
	?_Generic_object@?$_Error_objects@H@std@@2V_Generic_error_category@2@A 	 DATA
	?_Iostream_object@?$_Error_objects@H@std@@2V_Iostream_error_category@2@A 	 DATA
	?_System_object@?$_Error_objects@H@std@@2V_System_error_category@2@A 	 DATA
	?id@?$num_put@DV?$back_insert_iterator@V?$basic_string@DU?$char_traits@D@std@@V?$allocator@D@2@@std@@@std@@@std@@2V0locale@2@A 	 DATA
	?id@?$num_put@_WV?$back_insert_iterator@V?$basic_string@_WU?$char_traits@_W@std@@V?$allocator@_W@2@@std@@@std@@@std@@2V0locale@2@A 	 DATA
	??_R0?AVTObject@@@8 	 DATA
	??_R0?AVerror_category@std@@@8 	 DATA
	??_R0?AV_Generic_error_category@std@@@8 	 DATA
	??_R0?AV_Iostream_error_category@std@@@8 	 DATA
	??_R0?AV_System_error_category@std@@@8 	 DATA
	??_R0?AVEdbPoint@@@8 	 DATA
	??_R0?AVEdbPoint2D@@@8 	 DATA
	??_R0?AVEdbAngle2D@@@8 	 DATA
	??_R0?AVEdbTrack2D@@@8 	 DATA
	??_R0?AVEdbID@@@8 	 DATA
	??_R0?AVEdbSegP@@@8 	 DATA
	?fgIsA@EdbEmrFileAccess@@0PAVTClass@@A 	 DATA
	?G__EmrDictLN_TClass@@3UG__linked_taginfo@@A 	 DATA
	?G__EmrDictLN_TBuffer@@3UG__linked_taginfo@@A 	 DATA
	?G__EmrDictLN_TMemberInspector@@3UG__linked_taginfo@@A 	 DATA
	?G__EmrDictLN_TObject@@3UG__linked_taginfo@@A 	 DATA
	?G__EmrDictLN_iteratorlErandom_access_iterator_tagcOcharcOlongcOcharmUcOcharaNgR@@3UG__linked_taginfo@@A 	 DATA
	?G__EmrDictLN_vectorlEROOTcLcLTSchemaHelpercOallocatorlEROOTcLcLTSchemaHelpergRsPgR@@3UG__linked_taginfo@@A 	 DATA
	?G__EmrDictLN_reverse_iteratorlEvectorlEROOTcLcLTSchemaHelpercOallocatorlEROOTcLcLTSchemaHelpergRsPgRcLcLiteratorgR@@3UG__linked_taginfo@@A 	 DATA
	?G__EmrDictLN_iteratorlErandom_access_iterator_tagcOROOTcLcLTSchemaHelpercOlongcOROOTcLcLTSchemaHelpermUcOROOTcLcLTSchemaHelperaNgR@@3UG__linked_taginfo@@A 	 DATA
	?G__EmrDictLN_reverse_iteratorlEvectorlEROOTcLcLTSchemaHelpercOallocatorlEROOTcLcLTSchemaHelpergRsPgRcLcLconst_iteratorgR@@3UG__linked_taginfo@@A 	 DATA
	?G__EmrDictLN_TObjArray@@3UG__linked_taginfo@@A 	 DATA
	?G__EmrDictLN_vectorlETVirtualArraymUcOallocatorlETVirtualArraymUgRsPgR@@3UG__linked_taginfo@@A 	 DATA
	?G__EmrDictLN_reverse_iteratorlEvectorlETVirtualArraymUcOallocatorlETVirtualArraymUgRsPgRcLcLiteratorgR@@3UG__linked_taginfo@@A 	 DATA
	?G__EmrDictLN_iteratorlErandom_access_iterator_tagcOTVirtualArraymUcOlongcOTVirtualArraymUmUcOTVirtualArraymUaNgR@@3UG__linked_taginfo@@A 	 DATA
	?G__EmrDictLN_reverse_iteratorlEvectorlETVirtualArraymUcOallocatorlETVirtualArraymUgRsPgRcLcLconst_iteratorgR@@3UG__linked_taginfo@@A 	 DATA
	?G__EmrDictLN_TArrayI@@3UG__linked_taginfo@@A 	 DATA
	?G__EmrDictLN_iteratorlEbidirectional_iterator_tagcOTObjectmUcOlongcOconstsPTObjectmUmUcOconstsPTObjectmUaNgR@@3UG__linked_taginfo@@A 	 DATA
	?G__EmrDictLN_maplEstringcOTObjArraymUcOlesslEstringgRcOallocatorlEpairlEconstsPstringcOTObjArraymUgRsPgRsPgR@@3UG__linked_taginfo@@A 	 DATA
	?G__EmrDictLN_TMatrixTBaselEfloatgR@@3UG__linked_taginfo@@A 	 DATA
	?G__EmrDictLN_TMatrixTBaselEdoublegR@@3UG__linked_taginfo@@A 	 DATA
	?G__EmrDictLN_TVectorTlEfloatgR@@3UG__linked_taginfo@@A 	 DATA
	?G__EmrDictLN_TVectorTlEdoublegR@@3UG__linked_taginfo@@A 	 DATA
	?G__EmrDictLN_TElementActionTlEdoublegR@@3UG__linked_taginfo@@A 	 DATA
	?G__EmrDictLN_TElementPosActionTlEdoublegR@@3UG__linked_taginfo@@A 	 DATA
	?G__EmrDictLN_TMatrixTlEdoublegR@@3UG__linked_taginfo@@A 	 DATA
	?G__EmrDictLN_TMatrixTRow_constlEdoublegR@@3UG__linked_taginfo@@A 	 DATA
	?G__EmrDictLN_TMatrixTRowlEdoublegR@@3UG__linked_taginfo@@A 	 DATA
	?G__EmrDictLN_TMatrixTDiag_constlEdoublegR@@3UG__linked_taginfo@@A 	 DATA
	?G__EmrDictLN_TMatrixTColumn_constlEdoublegR@@3UG__linked_taginfo@@A 	 DATA
	?G__EmrDictLN_TMatrixTFlat_constlEdoublegR@@3UG__linked_taginfo@@A 	 DATA
	?G__EmrDictLN_TMatrixTSub_constlEdoublegR@@3UG__linked_taginfo@@A 	 DATA
	?G__EmrDictLN_TMatrixTSparseRow_constlEdoublegR@@3UG__linked_taginfo@@A 	 DATA
	?G__EmrDictLN_TMatrixTSparseDiag_constlEdoublegR@@3UG__linked_taginfo@@A 	 DATA
	?G__EmrDictLN_TMatrixTColumnlEdoublegR@@3UG__linked_taginfo@@A 	 DATA
	?G__EmrDictLN_TMatrixTDiaglEdoublegR@@3UG__linked_taginfo@@A 	 DATA
	?G__EmrDictLN_TMatrixTFlatlEdoublegR@@3UG__linked_taginfo@@A 	 DATA
	?G__EmrDictLN_TMatrixTSublEdoublegR@@3UG__linked_taginfo@@A 	 DATA
	?G__EmrDictLN_TMatrixTSparseRowlEdoublegR@@3UG__linked_taginfo@@A 	 DATA
	?G__EmrDictLN_TMatrixTSparseDiaglEdoublegR@@3UG__linked_taginfo@@A 	 DATA
	?G__EmrDictLN_EdbSegP@@3UG__linked_taginfo@@A 	 DATA
	?G__EmrDictLN_EdbVertex@@3UG__linked_taginfo@@A 	 DATA
	?G__EmrDictLN_EdbTrackP@@3UG__linked_taginfo@@A 	 DATA
	?G__EmrDictLN_EdbEmrIO@@3UG__linked_taginfo@@A 	 DATA
	?G__EmrDictLN_EdbEmrFileAccess@@3UG__linked_taginfo@@A 	 DATA
	?fgIsA@EdbEmrIO@@0PAVTClass@@A 	 DATA
	hypot
	??0funcptr_and_voidptr@G__func2void@@QAE@PAX@Z
	??BG__func2void@@QBEPAXXZ
	G__cpp_dllrevEmrDict
	G__set_cpp_environmentEmrDict
	G__cpp_setup_tagtableEmrDict
	G__cpp_setup_inheritanceEmrDict
	G__cpp_setup_typetableEmrDict
	G__cpp_setup_memvarEmrDict
	G__cpp_setup_globalEmrDict
	G__cpp_setup_memfuncEmrDict
	G__cpp_setup_funcEmrDict
	G__cpp_setupEmrDict
	??2@YAPAXIPAX@Z
	??3@YAXPAX0@Z
	?length@?$char_traits@D@std@@SAIPBD@Z
	?copy@?$char_traits@D@std@@SAPADPADPBDI@Z
	?move@?$char_traits@D@std@@SAPADPADPBDI@Z
	?assign@?$char_traits@D@std@@SAXAADABD@Z
	??0?$allocator@D@std@@QAE@XZ
	?deallocate@?$allocator@D@std@@QAEXPADI@Z
	?allocate@?$allocator@D@std@@QAEPADI@Z
	?max_size@?$allocator@D@std@@QBEIXZ
	?max_size@?$allocator_traits@V?$allocator@D@std@@@std@@SAIABV?$allocator@D@2@@Z
	??0?$_Wrap_alloc@V?$allocator@D@std@@@std@@QAE@XZ
	?allocate@?$_Wrap_alloc@V?$allocator@D@std@@@std@@QAEPADI@Z
	?deallocate@?$_Wrap_alloc@V?$allocator@D@std@@@std@@QAEXPADI@Z
	?max_size@?$_Wrap_alloc@V?$allocator@D@std@@@std@@QBEIXZ
	??0?$_String_val@U?$_Simple_types@D@std@@@std@@QAE@XZ
	?_Myptr@?$_String_val@U?$_Simple_types@D@std@@@std@@QAEPADXZ
	?_Myptr@?$_String_val@U?$_Simple_types@D@std@@@std@@QBEPBDXZ
	??0?$_String_alloc@$0A@U?$_String_base_types@DV?$allocator@D@std@@@std@@@std@@QAE@ABV?$allocator@D@1@@Z
	?_Getal@?$_String_alloc@$0A@U?$_String_base_types@DV?$allocator@D@std@@@std@@@std@@QBE?AU?$_Wrap_alloc@V?$allocator@D@std@@@2@XZ
	??0?$basic_string@DU?$char_traits@D@std@@V?$allocator@D@2@@std@@QAE@PBD@Z
	??1?$basic_string@DU?$char_traits@D@std@@V?$allocator@D@2@@std@@QAE@XZ
	?assign@?$basic_string@DU?$char_traits@D@std@@V?$allocator@D@2@@std@@QAEAAV12@ABV12@II@Z
	?assign@?$basic_string@DU?$char_traits@D@std@@V?$allocator@D@2@@std@@QAEAAV12@PBDI@Z
	?assign@?$basic_string@DU?$char_traits@D@std@@V?$allocator@D@2@@std@@QAEAAV12@PBD@Z
	?erase@?$basic_string@DU?$char_traits@D@std@@V?$allocator@D@2@@std@@QAEAAV12@I@Z
	?erase@?$basic_string@DU?$char_traits@D@std@@V?$allocator@D@2@@std@@QAEAAV12@II@Z
	?size@?$basic_string@DU?$char_traits@D@std@@V?$allocator@D@2@@std@@QBEIXZ
	?max_size@?$basic_string@DU?$char_traits@D@std@@V?$allocator@D@2@@std@@QBEIXZ
	?_Copy@?$basic_string@DU?$char_traits@D@std@@V?$allocator@D@2@@std@@QAEXII@Z
	?_Eos@?$basic_string@DU?$char_traits@D@std@@V?$allocator@D@2@@std@@QAEXI@Z
	?_Grow@?$basic_string@DU?$char_traits@D@std@@V?$allocator@D@2@@std@@QAE_NI_N@Z
	?_Inside@?$basic_string@DU?$char_traits@D@std@@V?$allocator@D@2@@std@@QAE_NPBD@Z
	?_Tidy@?$basic_string@DU?$char_traits@D@std@@V?$allocator@D@2@@std@@QAEX_NI@Z
	?_Xlen@?$basic_string@DU?$char_traits@D@std@@V?$allocator@D@2@@std@@QBEXXZ
	?_Xran@?$basic_string@DU?$char_traits@D@std@@V?$allocator@D@2@@std@@QBEXXZ
	?generic_category@std@@YAABVerror_category@1@XZ
	?system_category@std@@YAABVerror_category@1@XZ
	??0error_category@std@@QAE@XZ
	??1error_category@std@@UAE@XZ
	?default_error_condition@error_category@std@@UBE?AVerror_condition@2@H@Z
	?equivalent@error_category@std@@UBE_NHABVerror_condition@2@@Z
	?equivalent@error_category@std@@UBE_NABVerror_code@2@H@Z
	??8error_category@std@@QBE_NABV01@@Z
	?value@error_code@std@@QBEHXZ
	?category@error_code@std@@QBEABVerror_category@2@XZ
	??0error_condition@std@@QAE@HABVerror_category@1@@Z
	?value@error_condition@std@@QBEHXZ
	?category@error_condition@std@@QBEABVerror_category@2@XZ
	??8error_condition@std@@QBE_NABV01@@Z
	??0_Generic_error_category@std@@QAE@XZ
	?name@_Generic_error_category@std@@UBEPBDXZ
	?message@_Generic_error_category@std@@UBE?AV?$basic_string@DU?$char_traits@D@std@@V?$allocator@D@2@@2@H@Z
	??1_Generic_error_category@std@@UAE@XZ
	??0_Iostream_error_category@std@@QAE@XZ
	?name@_Iostream_error_category@std@@UBEPBDXZ
	?message@_Iostream_error_category@std@@UBE?AV?$basic_string@DU?$char_traits@D@std@@V?$allocator@D@2@@2@H@Z
	??1_Iostream_error_category@std@@UAE@XZ
	??0_System_error_category@std@@QAE@XZ
	?name@_System_error_category@std@@UBEPBDXZ
	?message@_System_error_category@std@@UBE?AV?$basic_string@DU?$char_traits@D@std@@V?$allocator@D@2@@2@H@Z
	?default_error_condition@_System_error_category@std@@UBE?AVerror_condition@2@H@Z
	??1_System_error_category@std@@UAE@XZ
	?Clear@TObject@@UAEXPBD@Z
	?GetOption@TObject@@UBEPBDXZ
	?IsSortable@TObject@@UBE_NXZ
	??2TObject@@SAPAXI@Z
	??_UTObject@@SAPAXI@Z
	??2TObject@@SAPAXIPAX@Z
	??_UTObject@@SAPAXIPAX@Z
	?IsReading@TBuffer@@QBE_NXZ
	??0_Ignore@std@@QAE@XZ
	??0EdbEmrIO@@QAE@XZ
	??1EdbEmrIO@@UAE@XZ
	?Class@EdbEmrIO@@SAPAVTClass@@XZ
	?Class_Name@EdbEmrIO@@SAPBDXZ
	?Class_Version@EdbEmrIO@@SAFXZ
	?Dictionary@EdbEmrIO@@SAXXZ
	?IsA@EdbEmrIO@@UBEPAVTClass@@XZ
	?ShowMembers@EdbEmrIO@@UAEXAAVTMemberInspector@@@Z
	?Streamer@EdbEmrIO@@UAEXAAVTBuffer@@@Z
	?StreamerNVirtual@EdbEmrIO@@QAEXAAVTBuffer@@@Z
	?DeclFileName@EdbEmrIO@@SAPBDXZ
	?ImplFileLine@EdbEmrIO@@SAHXZ
	?ImplFileName@EdbEmrIO@@SAPBDXZ
	?DeclFileLine@EdbEmrIO@@SAHXZ
	??0EdbEmrIO@@QAE@ABV0@@Z
	??4EdbEmrIO@@QAEAAV0@ABV0@@Z
	??0EdbEmrFileAccess@@QAE@XZ
	??1EdbEmrFileAccess@@UAE@XZ
	?PlateID@EdbEmrFileAccess@@QAEHH@Z
	?SideID@EdbEmrFileAccess@@QAEHH@Z
	?SideID@EdbEmrFileAccess@@QAEHHH@Z
	?Class@EdbEmrFileAccess@@SAPAVTClass@@XZ
	?Class_Name@EdbEmrFileAccess@@SAPBDXZ
	?Class_Version@EdbEmrFileAccess@@SAFXZ
	?Dictionary@EdbEmrFileAccess@@SAXXZ
	?IsA@EdbEmrFileAccess@@UBEPAVTClass@@XZ
	?ShowMembers@EdbEmrFileAccess@@UAEXAAVTMemberInspector@@@Z
	?Streamer@EdbEmrFileAccess@@UAEXAAVTBuffer@@@Z
	?StreamerNVirtual@EdbEmrFileAccess@@QAEXAAVTBuffer@@@Z
	?DeclFileName@EdbEmrFileAccess@@SAPBDXZ
	?ImplFileLine@EdbEmrFileAccess@@SAHXZ
	?ImplFileName@EdbEmrFileAccess@@SAPBDXZ
	?DeclFileLine@EdbEmrFileAccess@@SAHXZ
	??0TLockGuard@@QAE@PAVTVirtualMutex@@@Z
	??1TLockGuard@@UAE@XZ
	?IsA@TLockGuard@@UBEPAVTClass@@XZ
	??1TVirtualIsAProxy@@UAE@XZ
	??0TVirtualIsAProxy@@QAE@XZ
	??0DictInit@?A0x5119fb1a@@QAE@XZ
	??0?$TInstrumentedIsAProxy@VEdbEmrIO@@@@QAE@PAVTClass@@@Z
	??1?$TInstrumentedIsAProxy@VEdbEmrIO@@@@UAE@XZ
	?SetClass@?$TInstrumentedIsAProxy@VEdbEmrIO@@@@UAEXPAVTClass@@@Z
	??R?$TInstrumentedIsAProxy@VEdbEmrIO@@@@UAEPAVTClass@@PBX@Z
	?GenerateInitInstance@ROOTDict@@YAPAVTGenericClassInfo@ROOT@@PBVEdbEmrIO@@@Z
	??0?$TInstrumentedIsAProxy@VEdbEmrFileAccess@@@@QAE@PAVTClass@@@Z
	??1?$TInstrumentedIsAProxy@VEdbEmrFileAccess@@@@UAE@XZ
	?SetClass@?$TInstrumentedIsAProxy@VEdbEmrFileAccess@@@@UAEXPAVTClass@@@Z
	??R?$TInstrumentedIsAProxy@VEdbEmrFileAccess@@@@UAEPAVTClass@@PBX@Z
	?GenerateInitInstance@ROOTDict@@YAPAVTGenericClassInfo@ROOT@@PBVEdbEmrFileAccess@@@Z
	??$InspectMember@VTObjArray@@@TMemberInspector@@QAEXAAVTObjArray@@PBD@Z
	G__cpp_reset_tagtableEmrDict
	??0G__Sizep2memfuncEmrDict@@QAE@XZ
	?sizep2memfunc@G__Sizep2memfuncEmrDict@@QAEIXZ
	?G__get_sizep2memfuncEmrDict@@YAIXZ
	??$?0P6APAVTClass@@XZ@G__func2void@@QAE@P6APAVTClass@@XZ@Z
	??$?0P6APBDXZ@G__func2void@@QAE@P6APBDXZ@Z
	??$?0P6AFXZ@G__func2void@@QAE@P6AFXZ@Z
	??$?0P6AXXZ@G__func2void@@QAE@P6AXXZ@Z
	??$?0P6AHXZ@G__func2void@@QAE@P6AHXZ@Z
	??0G__cpp_setup_initEmrDict@@QAE@XZ
	??1G__cpp_setup_initEmrDict@@QAE@XZ
	??$construct@PADAAPAD@?$_Wrap_alloc@V?$allocator@D@std@@@std@@QAEXPAPADAAPAD@Z
	??$destroy@PAD@?$_Wrap_alloc@V?$allocator@D@std@@@std@@QAEXPAPAD@Z
	??$addressof@D@std@@YAPADAAD@Z
	??$_Allocate@D@std@@YAPADIPAD@Z
	??$forward@AAPAD@std@@YAAAPADAAPAD@Z
	??$construct@PADAAPAD@?$allocator_traits@V?$allocator@D@std@@@std@@SAXAAV?$allocator@D@1@PAPADAAPAD@Z
	??$destroy@PAD@?$allocator_traits@V?$allocator@D@std@@@std@@SAXAAV?$allocator@D@1@PAPAD@Z
	??$construct@PADAAPAD@?$allocator@D@std@@QAEXPAPADAAPAD@Z
	??$destroy@PAD@?$allocator@D@std@@QAEXPAPAD@Z
	?_Generic_object@?$_Error_objects@H@std@@2V_Generic_error_category@2@A 	 DATA
	?_Iostream_object@?$_Error_objects@H@std@@2V_Iostream_error_category@2@A 	 DATA
	?_System_object@?$_Error_objects@H@std@@2V_System_error_category@2@A 	 DATA
	?id@?$num_put@DV?$back_insert_iterator@V?$basic_string@DU?$char_traits@D@std@@V?$allocator@D@2@@std@@@std@@@std@@2V0locale@2@A 	 DATA
	?id@?$num_put@_WV?$back_insert_iterator@V?$basic_string@_WU?$char_traits@_W@std@@V?$allocator@_W@2@@std@@@std@@@std@@2V0locale@2@A 	 DATA
	??_R0?AVEdbEmrIO@@@8 	 DATA
	??_R0?AVEdbEmrFileAccess@@@8 	 DATA
	?G__cpp_setup_initializerEmrDict@@3VG__cpp_setup_initEmrDict@@A 	 DATA
	??_R0?AVTObject@@@8 	 DATA
	??_R0?AVTVirtualIsAProxy@@@8 	 DATA
	??_R0?AVerror_category@std@@@8 	 DATA
	??_R0?AV_Generic_error_category@std@@@8 	 DATA
	??_R0?AV_Iostream_error_category@std@@@8 	 DATA
	??_R0?AV_System_error_category@std@@@8 	 DATA
	??_R0?AVTLockGuard@@@8 	 DATA
	??_R0?AV?$TInstrumentedIsAProxy@VEdbEmrIO@@@@@8 	 DATA
	??_R0?AV?$TInstrumentedIsAProxy@VEdbEmrFileAccess@@@@@8 	 DATA
