LIBRARY    C:\Users\User\Downloads\Fedra/lib/libScan
EXPORTS 
	hypot
	??2@YAPAXIPAX@Z
	??3@YAXPAX0@Z
	?length@?$char_traits@D@std@@SAIPBD@Z
	?copy@?$char_traits@D@std@@SAPADPADPBDI@Z
	?move@?$char_traits@D@std@@SAPADPADPBDI@Z
	?assign@?$char_traits@D@std@@SAXAADABD@Z
	?_Adopt@_Iterator_base0@std@@QAEXPBX@Z
	??0?$allocator@D@std@@QAE@XZ
	?deallocate@?$allocator@D@std@@QAEXPADI@Z
	?allocate@?$allocator@D@std@@QAEPADI@Z
	?max_size@?$allocator@D@std@@QBEIXZ
	?max_size@?$allocator_traits@V?$allocator@D@std@@@std@@SAIABV?$allocator@D@2@@Z
	??0?$_Wrap_alloc@V?$allocator@D@std@@@std@@QAE@XZ
	?allocate@?$_Wrap_alloc@V?$allocator@D@std@@@std@@QAEPADI@Z
	?deallocate@?$_Wrap_alloc@V?$allocator@D@std@@@std@@QAEXPADI@Z
	?max_size@?$_Wrap_alloc@V?$allocator@D@std@@@std@@QBEIXZ
	??0?$_String_val@U?$_Simple_types@D@std@@@std@@QAE@XZ
	?_Myptr@?$_String_val@U?$_Simple_types@D@std@@@std@@QAEPADXZ
	?_Myptr@?$_String_val@U?$_Simple_types@D@std@@@std@@QBEPBDXZ
	??0?$_String_alloc@$0A@U?$_String_base_types@DV?$allocator@D@std@@@std@@@std@@QAE@ABV?$allocator@D@1@@Z
	?_Getal@?$_String_alloc@$0A@U?$_String_base_types@DV?$allocator@D@std@@@std@@@std@@QBE?AU?$_Wrap_alloc@V?$allocator@D@std@@@2@XZ
	??0?$basic_string@DU?$char_traits@D@std@@V?$allocator@D@2@@std@@QAE@XZ
	??0?$basic_string@DU?$char_traits@D@std@@V?$allocator@D@2@@std@@QAE@PBD@Z
	??1?$basic_string@DU?$char_traits@D@std@@V?$allocator@D@2@@std@@QAE@XZ
	?assign@?$basic_string@DU?$char_traits@D@std@@V?$allocator@D@2@@std@@QAEAAV12@ABV12@II@Z
	?assign@?$basic_string@DU?$char_traits@D@std@@V?$allocator@D@2@@std@@QAEAAV12@PBDI@Z
	?assign@?$basic_string@DU?$char_traits@D@std@@V?$allocator@D@2@@std@@QAEAAV12@PBD@Z
	?erase@?$basic_string@DU?$char_traits@D@std@@V?$allocator@D@2@@std@@QAEAAV12@I@Z
	?erase@?$basic_string@DU?$char_traits@D@std@@V?$allocator@D@2@@std@@QAEAAV12@II@Z
	?size@?$basic_string@DU?$char_traits@D@std@@V?$allocator@D@2@@std@@QBEIXZ
	?max_size@?$basic_string@DU?$char_traits@D@std@@V?$allocator@D@2@@std@@QBEIXZ
	?_Copy@?$basic_string@DU?$char_traits@D@std@@V?$allocator@D@2@@std@@QAEXII@Z
	?_Eos@?$basic_string@DU?$char_traits@D@std@@V?$allocator@D@2@@std@@QAEXI@Z
	?_Grow@?$basic_string@DU?$char_traits@D@std@@V?$allocator@D@2@@std@@QAE_NI_N@Z
	?_Inside@?$basic_string@DU?$char_traits@D@std@@V?$allocator@D@2@@std@@QAE_NPBD@Z
	?_Tidy@?$basic_string@DU?$char_traits@D@std@@V?$allocator@D@2@@std@@QAEX_NI@Z
	?_Xlen@?$basic_string@DU?$char_traits@D@std@@V?$allocator@D@2@@std@@QBEXXZ
	?_Xran@?$basic_string@DU?$char_traits@D@std@@V?$allocator@D@2@@std@@QBEXXZ
	?generic_category@std@@YAABVerror_category@1@XZ
	?system_category@std@@YAABVerror_category@1@XZ
	??0error_category@std@@QAE@XZ
	??1error_category@std@@UAE@XZ
	?default_error_condition@error_category@std@@UBE?AVerror_condition@2@H@Z
	?equivalent@error_category@std@@UBE_NHABVerror_condition@2@@Z
	?equivalent@error_category@std@@UBE_NABVerror_code@2@H@Z
	??8error_category@std@@QBE_NABV01@@Z
	?value@error_code@std@@QBEHXZ
	?category@error_code@std@@QBEABVerror_category@2@XZ
	??0error_condition@std@@QAE@HABVerror_category@1@@Z
	?value@error_condition@std@@QBEHXZ
	?category@error_condition@std@@QBEABVerror_category@2@XZ
	??8error_condition@std@@QBE_NABV01@@Z
	??0_Generic_error_category@std@@QAE@XZ
	?name@_Generic_error_category@std@@UBEPBDXZ
	?message@_Generic_error_category@std@@UBE?AV?$basic_string@DU?$char_traits@D@std@@V?$allocator@D@2@@2@H@Z
	??1_Generic_error_category@std@@UAE@XZ
	??0_Iostream_error_category@std@@QAE@XZ
	?name@_Iostream_error_category@std@@UBEPBDXZ
	?message@_Iostream_error_category@std@@UBE?AV?$basic_string@DU?$char_traits@D@std@@V?$allocator@D@2@@2@H@Z
	??1_Iostream_error_category@std@@UAE@XZ
	??0_System_error_category@std@@QAE@XZ
	?name@_System_error_category@std@@UBEPBDXZ
	?message@_System_error_category@std@@UBE?AV?$basic_string@DU?$char_traits@D@std@@V?$allocator@D@2@@2@H@Z
	?default_error_condition@_System_error_category@std@@UBE?AVerror_condition@2@H@Z
	??1_System_error_category@std@@UAE@XZ
	??0TDatime@@QAE@I_N@Z
	??1TDatime@@UAE@XZ
	?IsA@TDatime@@UBEPAVTClass@@XZ
	??0_Ignore@std@@QAE@XZ
	??0EdbScanClientBase@@QAE@XZ
	??1EdbScanClientBase@@UAE@XZ
	?IsA@EdbScanClientBase@@UBEPAVTClass@@XZ
	?ShortBrick@EdbScanClientCommon@@UAEFH@Z
	??0EdbScanClient@@QAE@W4ScanClientType@0@@Z
	??1EdbScanClient@@UAE@XZ
	?InitializeSocket@EdbScanClient@@UAEHXZ
	?ScanPreloadAreaS@EdbScanClient@@UAEHHHHHMMMMPBDMMMM@Z
	?ScanAreas@EdbScanClient@@UAEHW4ScanType@EdbScanClientBase@@QAHAAVEdbPattern@@PAVEdbRun@@PBD@Z
	?AddRWC_@EdbScanClient@@UAEHPAVEdbRun@@PADHPBD@Z
	?ShortBrick@EdbScanClient@@UAEFH@Z
	?ConvertAreas@EdbScanClient@@UAEHQAHAAVEdbPattern@@AAVEdbRun@@PBD@Z
	?UnloadPlate@EdbScanClient@@UAEHXZ
	?LoadPlate@EdbScanClient@@UAEHHHPBDH@Z
	?SetParameter@EdbScanClient@@UAEXPBD00@Z
	?SetClusterThresholds@EdbScanClient@@UAEXHH@Z
	?SetOdysseyThresholds@EdbScanClient@@UAEXHHHHH@Z
	?SetFragmentSize@EdbScanClient@@UAEHHH@Z
	?AsyncScanAreaS@EdbScanClient@@UAEXHHHHMMMMPBD@Z
	?AsyncScanPreloadAreaS@EdbScanClient@@UAEXHHHHMMMMPBDMMMM@Z
	?AsyncWaitForScanResult@EdbScanClient@@UAEHXZ
	?Print@EdbScanClient@@UAEXXZ
	??0?$auto_ptr@VEdbScanClientCommon@@@std@@QAE@PAVEdbScanClientCommon@@@Z
	??4?$auto_ptr@VEdbScanClientCommon@@@std@@QAEAAV01@U?$auto_ptr_ref@VEdbScanClientCommon@@@1@@Z
	??1?$auto_ptr@VEdbScanClientCommon@@@std@@QAE@XZ
	??C?$auto_ptr@VEdbScanClientCommon@@@std@@QBEPAVEdbScanClientCommon@@XZ
	?get@?$auto_ptr@VEdbScanClientCommon@@@std@@QBEPAVEdbScanClientCommon@@XZ
	?reset@?$auto_ptr@VEdbScanClientCommon@@@std@@QAEXPAVEdbScanClientCommon@@@Z
	?IsA@EdbScanClient@@UBEPAVTClass@@XZ
	??1PAVProtocol@@UAE@XZ
	?ToElement@TiXmlNode@@UBEPBVTiXmlElement@@XZ
	?ToComment@TiXmlNode@@UBEPBVTiXmlComment@@XZ
	?ToUnknown@TiXmlNode@@UBEPBVTiXmlUnknown@@XZ
	?ToText@TiXmlNode@@UBEPBVTiXmlText@@XZ
	?ToDeclaration@TiXmlNode@@UBEPBVTiXmlDeclaration@@XZ
	?ToElement@TiXmlNode@@UAEPAVTiXmlElement@@XZ
	?ToComment@TiXmlNode@@UAEPAVTiXmlComment@@XZ
	?ToUnknown@TiXmlNode@@UAEPAVTiXmlUnknown@@XZ
	?ToText@TiXmlNode@@UAEPAVTiXmlText@@XZ
	?ToDeclaration@TiXmlNode@@UAEPAVTiXmlDeclaration@@XZ
	??1TiXmlDocument@@UAE@XZ
	?ToDocument@TiXmlDocument@@UBEPBV1@XZ
	?ToDocument@TiXmlDocument@@UAEPAV1@XZ
	??0MessageManager@@QAE@XZ
	??0?$allocator@E@std@@QAE@XZ
	?deallocate@?$allocator@E@std@@QAEXPAEI@Z
	??0?$_Wrap_alloc@V?$allocator@E@std@@@std@@QAE@XZ
	?deallocate@?$_Wrap_alloc@V?$allocator@E@std@@@std@@QAEXPAEI@Z
	??0?$_Vector_val@U?$_Simple_types@E@std@@@std@@QAE@XZ
	??0?$_Vector_alloc@$0A@U?$_Vec_base_types@EV?$allocator@E@std@@@std@@@std@@QAE@ABV?$allocator@E@1@@Z
	?_Getal@?$_Vector_alloc@$0A@U?$_Vec_base_types@EV?$allocator@E@std@@@std@@@std@@QBE?AU?$_Wrap_alloc@V?$allocator@E@std@@@2@XZ
	??0?$vector@EV?$allocator@E@std@@@std@@QAE@XZ
	??1?$vector@EV?$allocator@E@std@@@std@@QAE@XZ
	?_Destroy@?$vector@EV?$allocator@E@std@@@std@@IAEXPAE0@Z
	?_Tidy@?$vector@EV?$allocator@E@std@@@std@@IAEXXZ
	??1MessageManager@@UAE@XZ
	??0MessageReader@@QAE@XZ
	??0?$allocator@U?$pair@$$CBV?$basic_string@DU?$char_traits@D@std@@V?$allocator@D@2@@std@@V12@@std@@@std@@QAE@XZ
	??0?$allocator@U?$_Tree_node@U?$pair@$$CBV?$basic_string@DU?$char_traits@D@std@@V?$allocator@D@2@@std@@V12@@std@@PAX@std@@@std@@QAE@XZ
	?deallocate@?$allocator@U?$_Tree_node@U?$pair@$$CBV?$basic_string@DU?$char_traits@D@std@@V?$allocator@D@2@@std@@V12@@std@@PAX@std@@@std@@QAEXPAU?$_Tree_node@U?$pair@$$CBV?$basic_string@DU?$char_traits@D@std@@V?$allocator@D@2@@std@@V12@@std@@PAX@2@I@Z
	?allocate@?$allocator@U?$_Tree_node@U?$pair@$$CBV?$basic_string@DU?$char_traits@D@std@@V?$allocator@D@2@@std@@V12@@std@@PAX@std@@@std@@QAEPAU?$_Tree_node@U?$pair@$$CBV?$basic_string@DU?$char_traits@D@std@@V?$allocator@D@2@@std@@V12@@std@@PAX@2@I@Z
	??0?$_Wrap_alloc@V?$allocator@U?$_Tree_node@U?$pair@$$CBV?$basic_string@DU?$char_traits@D@std@@V?$allocator@D@2@@std@@V12@@std@@PAX@std@@@std@@@std@@QAE@XZ
	?allocate@?$_Wrap_alloc@V?$allocator@U?$_Tree_node@U?$pair@$$CBV?$basic_string@DU?$char_traits@D@std@@V?$allocator@D@2@@std@@V12@@std@@PAX@std@@@std@@@std@@QAEPAU?$_Tree_node@U?$pair@$$CBV?$basic_string@DU?$char_traits@D@std@@V?$allocator@D@2@@std@@V12@@std@@PAX@2@I@Z
	?deallocate@?$_Wrap_alloc@V?$allocator@U?$_Tree_node@U?$pair@$$CBV?$basic_string@DU?$char_traits@D@std@@V?$allocator@D@2@@std@@V12@@std@@PAX@std@@@std@@@std@@QAEXPAU?$_Tree_node@U?$pair@$$CBV?$basic_string@DU?$char_traits@D@std@@V?$allocator@D@2@@std@@V12@@std@@PAX@2@I@Z
	??0?$_Tree_val@U?$_Tree_simple_types@U?$pair@$$CBV?$basic_string@DU?$char_traits@D@std@@V?$allocator@D@2@@std@@V12@@std@@@std@@@std@@QAE@XZ
	?_Color@?$_Tree_val@U?$_Tree_simple_types@U?$pair@$$CBV?$basic_string@DU?$char_traits@D@std@@V?$allocator@D@2@@std@@V12@@std@@@std@@@std@@SAAADPAU?$_Tree_node@U?$pair@$$CBV?$basic_string@DU?$char_traits@D@std@@V?$allocator@D@2@@std@@V12@@std@@PAX@2@@Z
	?_Isnil@?$_Tree_val@U?$_Tree_simple_types@U?$pair@$$CBV?$basic_string@DU?$char_traits@D@std@@V?$allocator@D@2@@std@@V12@@std@@@std@@@std@@SAAADPAU?$_Tree_node@U?$pair@$$CBV?$basic_string@DU?$char_traits@D@std@@V?$allocator@D@2@@std@@V12@@std@@PAX@2@@Z
	?_Left@?$_Tree_val@U?$_Tree_simple_types@U?$pair@$$CBV?$basic_string@DU?$char_traits@D@std@@V?$allocator@D@2@@std@@V12@@std@@@std@@@std@@SAAAPAU?$_Tree_node@U?$pair@$$CBV?$basic_string@DU?$char_traits@D@std@@V?$allocator@D@2@@std@@V12@@std@@PAX@2@PAU32@@Z
	?_Parent@?$_Tree_val@U?$_Tree_simple_types@U?$pair@$$CBV?$basic_string@DU?$char_traits@D@std@@V?$allocator@D@2@@std@@V12@@std@@@std@@@std@@SAAAPAU?$_Tree_node@U?$pair@$$CBV?$basic_string@DU?$char_traits@D@std@@V?$allocator@D@2@@std@@V12@@std@@PAX@2@PAU32@@Z
	?_Right@?$_Tree_val@U?$_Tree_simple_types@U?$pair@$$CBV?$basic_string@DU?$char_traits@D@std@@V?$allocator@D@2@@std@@V12@@std@@@std@@@std@@SAAAPAU?$_Tree_node@U?$pair@$$CBV?$basic_string@DU?$char_traits@D@std@@V?$allocator@D@2@@std@@V12@@std@@PAX@2@PAU32@@Z
	?_Myval@?$_Tree_val@U?$_Tree_simple_types@U?$pair@$$CBV?$basic_string@DU?$char_traits@D@std@@V?$allocator@D@2@@std@@V12@@std@@@std@@@std@@SAAAU?$pair@$$CBV?$basic_string@DU?$char_traits@D@std@@V?$allocator@D@2@@std@@V12@@2@PAU?$_Tree_node@U?$pair@$$CBV?$basic_string@DU?$char_traits@D@std@@V?$allocator@D@2@@std@@V12@@std@@PAX@2@@Z
	?_Max@?$_Tree_val@U?$_Tree_simple_types@U?$pair@$$CBV?$basic_string@DU?$char_traits@D@std@@V?$allocator@D@2@@std@@V12@@std@@@std@@@std@@SAPAU?$_Tree_node@U?$pair@$$CBV?$basic_string@DU?$char_traits@D@std@@V?$allocator@D@2@@std@@V12@@std@@PAX@2@PAU32@@Z
	?_Min@?$_Tree_val@U?$_Tree_simple_types@U?$pair@$$CBV?$basic_string@DU?$char_traits@D@std@@V?$allocator@D@2@@std@@V12@@std@@@std@@@std@@SAPAU?$_Tree_node@U?$pair@$$CBV?$basic_string@DU?$char_traits@D@std@@V?$allocator@D@2@@std@@V12@@std@@PAX@2@PAU32@@Z
	??0?$_Tree_alloc@$0A@U?$_Tree_base_types@U?$pair@$$CBV?$basic_string@DU?$char_traits@D@std@@V?$allocator@D@2@@std@@V12@@std@@V?$allocator@U?$pair@$$CBV?$basic_string@DU?$char_traits@D@std@@V?$allocator@D@2@@std@@V12@@std@@@2@@std@@@std@@QAE@ABV?$allocator@U?$pair@$$CBV?$basic_string@DU?$char_traits@D@std@@V?$allocator@D@2@@std@@V12@@std@@@1@@Z
	??1?$_Tree_alloc@$0A@U?$_Tree_base_types@U?$pair@$$CBV?$basic_string@DU?$char_traits@D@std@@V?$allocator@D@2@@std@@V12@@std@@V?$allocator@U?$pair@$$CBV?$basic_string@DU?$char_traits@D@std@@V?$allocator@D@2@@std@@V12@@std@@@2@@std@@@std@@QAE@XZ
	?_Buyheadnode@?$_Tree_alloc@$0A@U?$_Tree_base_types@U?$pair@$$CBV?$basic_string@DU?$char_traits@D@std@@V?$allocator@D@2@@std@@V12@@std@@V?$allocator@U?$pair@$$CBV?$basic_string@DU?$char_traits@D@std@@V?$allocator@D@2@@std@@V12@@std@@@2@@std@@@std@@QAEPAU?$_Tree_node@U?$pair@$$CBV?$basic_string@DU?$char_traits@D@std@@V?$allocator@D@2@@std@@V12@@std@@PAX@2@XZ
	?_Freeheadnode@?$_Tree_alloc@$0A@U?$_Tree_base_types@U?$pair@$$CBV?$basic_string@DU?$char_traits@D@std@@V?$allocator@D@2@@std@@V12@@std@@V?$allocator@U?$pair@$$CBV?$basic_string@DU?$char_traits@D@std@@V?$allocator@D@2@@std@@V12@@std@@@2@@std@@@std@@QAEXPAU?$_Tree_node@U?$pair@$$CBV?$basic_string@DU?$char_traits@D@std@@V?$allocator@D@2@@std@@V12@@std@@PAX@2@@Z
	?_Getal@?$_Tree_alloc@$0A@U?$_Tree_base_types@U?$pair@$$CBV?$basic_string@DU?$char_traits@D@std@@V?$allocator@D@2@@std@@V12@@std@@V?$allocator@U?$pair@$$CBV?$basic_string@DU?$char_traits@D@std@@V?$allocator@D@2@@std@@V12@@std@@@2@@std@@@std@@QBE?AU?$_Wrap_alloc@V?$allocator@U?$_Tree_node@U?$pair@$$CBV?$basic_string@DU?$char_traits@D@std@@V?$allocator@D@2@@std@@V12@@std@@PAX@std@@@std@@@2@XZ
	??0?$_Tree_buy@U?$pair@$$CBV?$basic_string@DU?$char_traits@D@std@@V?$allocator@D@2@@std@@V12@@std@@V?$allocator@U?$pair@$$CBV?$basic_string@DU?$char_traits@D@std@@V?$allocator@D@2@@std@@V12@@std@@@2@@std@@QAE@ABV?$allocator@U?$pair@$$CBV?$basic_string@DU?$char_traits@D@std@@V?$allocator@D@2@@std@@V12@@std@@@1@@Z
	??1?$_Tree_buy@U?$pair@$$CBV?$basic_string@DU?$char_traits@D@std@@V?$allocator@D@2@@std@@V12@@std@@V?$allocator@U?$pair@$$CBV?$basic_string@DU?$char_traits@D@std@@V?$allocator@D@2@@std@@V12@@std@@@2@@std@@QAE@XZ
	??0?$_Tree_comp@$0A@V?$_Tmap_traits@V?$basic_string@DU?$char_traits@D@std@@V?$allocator@D@2@@std@@V12@U?$less@V?$basic_string@DU?$char_traits@D@std@@V?$allocator@D@2@@std@@@2@V?$allocator@U?$pair@$$CBV?$basic_string@DU?$char_traits@D@std@@V?$allocator@D@2@@std@@V12@@std@@@2@$0A@@std@@@std@@QAE@ABU?$less@V?$basic_string@DU?$char_traits@D@std@@V?$allocator@D@2@@std@@@1@ABV?$allocator@U?$pair@$$CBV?$basic_string@DU?$char_traits@D@std@@V?$allocator@D@2@@std@@V12@@std@@@1@@Z
	??1?$_Tree_comp@$0A@V?$_Tmap_traits@V?$basic_string@DU?$char_traits@D@std@@V?$allocator@D@2@@std@@V12@U?$less@V?$basic_string@DU?$char_traits@D@std@@V?$allocator@D@2@@std@@@2@V?$allocator@U?$pair@$$CBV?$basic_string@DU?$char_traits@D@std@@V?$allocator@D@2@@std@@V12@@std@@@2@$0A@@std@@@std@@QAE@XZ
	??0?$_Tree@V?$_Tmap_traits@V?$basic_string@DU?$char_traits@D@std@@V?$allocator@D@2@@std@@V12@U?$less@V?$basic_string@DU?$char_traits@D@std@@V?$allocator@D@2@@std@@@2@V?$allocator@U?$pair@$$CBV?$basic_string@DU?$char_traits@D@std@@V?$allocator@D@2@@std@@V12@@std@@@2@$0A@@std@@@std@@QAE@ABU?$less@V?$basic_string@DU?$char_traits@D@std@@V?$allocator@D@2@@std@@@1@ABV?$allocator@U?$pair@$$CBV?$basic_string@DU?$char_traits@D@std@@V?$allocator@D@2@@std@@V12@@std@@@1@@Z
	??1?$_Tree@V?$_Tmap_traits@V?$basic_string@DU?$char_traits@D@std@@V?$allocator@D@2@@std@@V12@U?$less@V?$basic_string@DU?$char_traits@D@std@@V?$allocator@D@2@@std@@@2@V?$allocator@U?$pair@$$CBV?$basic_string@DU?$char_traits@D@std@@V?$allocator@D@2@@std@@V12@@std@@@2@$0A@@std@@@std@@QAE@XZ
	?begin@?$_Tree@V?$_Tmap_traits@V?$basic_string@DU?$char_traits@D@std@@V?$allocator@D@2@@std@@V12@U?$less@V?$basic_string@DU?$char_traits@D@std@@V?$allocator@D@2@@std@@@2@V?$allocator@U?$pair@$$CBV?$basic_string@DU?$char_traits@D@std@@V?$allocator@D@2@@std@@V12@@std@@@2@$0A@@std@@@std@@QAE?AV?$_Tree_iterator@V?$_Tree_val@U?$_Tree_simple_types@U?$pair@$$CBV?$basic_string@DU?$char_traits@D@std@@V?$allocator@D@2@@std@@V12@@std@@@std@@@std@@@2@XZ
	?end@?$_Tree@V?$_Tmap_traits@V?$basic_string@DU?$char_traits@D@std@@V?$allocator@D@2@@std@@V12@U?$less@V?$basic_string@DU?$char_traits@D@std@@V?$allocator@D@2@@std@@@2@V?$allocator@U?$pair@$$CBV?$basic_string@DU?$char_traits@D@std@@V?$allocator@D@2@@std@@V12@@std@@@2@$0A@@std@@@std@@QAE?AV?$_Tree_iterator@V?$_Tree_val@U?$_Tree_simple_types@U?$pair@$$CBV?$basic_string@DU?$char_traits@D@std@@V?$allocator@D@2@@std@@V12@@std@@@std@@@std@@@2@XZ
	?erase@?$_Tree@V?$_Tmap_traits@V?$basic_string@DU?$char_traits@D@std@@V?$allocator@D@2@@std@@V12@U?$less@V?$basic_string@DU?$char_traits@D@std@@V?$allocator@D@2@@std@@@2@V?$allocator@U?$pair@$$CBV?$basic_string@DU?$char_traits@D@std@@V?$allocator@D@2@@std@@V12@@std@@@2@$0A@@std@@@std@@QAE?AV?$_Tree_iterator@V?$_Tree_val@U?$_Tree_simple_types@U?$pair@$$CBV?$basic_string@DU?$char_traits@D@std@@V?$allocator@D@2@@std@@V12@@std@@@std@@@std@@@2@V?$_Tree_const_iterator@V?$_Tree_val@U?$_Tree_simple_types@U?$pair@$$CBV?$basic_string@DU?$char_traits@D@std@@V?$allocator@D@2@@std@@V12@@std@@@std@@@std@@@2@@Z
	?erase@?$_Tree@V?$_Tmap_traits@V?$basic_string@DU?$char_traits@D@std@@V?$allocator@D@2@@std@@V12@U?$less@V?$basic_string@DU?$char_traits@D@std@@V?$allocator@D@2@@std@@@2@V?$allocator@U?$pair@$$CBV?$basic_string@DU?$char_traits@D@std@@V?$allocator@D@2@@std@@V12@@std@@@2@$0A@@std@@@std@@QAE?AV?$_Tree_iterator@V?$_Tree_val@U?$_Tree_simple_types@U?$pair@$$CBV?$basic_string@DU?$char_traits@D@std@@V?$allocator@D@2@@std@@V12@@std@@@std@@@std@@@2@V?$_Tree_const_iterator@V?$_Tree_val@U?$_Tree_simple_types@U?$pair@$$CBV?$basic_string@DU?$char_traits@D@std@@V?$allocator@D@2@@std@@V12@@std@@@std@@@std@@@2@0@Z
	?clear@?$_Tree@V?$_Tmap_traits@V?$basic_string@DU?$char_traits@D@std@@V?$allocator@D@2@@std@@V12@U?$less@V?$basic_string@DU?$char_traits@D@std@@V?$allocator@D@2@@std@@@2@V?$allocator@U?$pair@$$CBV?$basic_string@DU?$char_traits@D@std@@V?$allocator@D@2@@std@@V12@@std@@@2@$0A@@std@@@std@@QAEXXZ
	?_Erase@?$_Tree@V?$_Tmap_traits@V?$basic_string@DU?$char_traits@D@std@@V?$allocator@D@2@@std@@V12@U?$less@V?$basic_string@DU?$char_traits@D@std@@V?$allocator@D@2@@std@@@2@V?$allocator@U?$pair@$$CBV?$basic_string@DU?$char_traits@D@std@@V?$allocator@D@2@@std@@V12@@std@@@2@$0A@@std@@@std@@IAEXPAU?$_Tree_node@U?$pair@$$CBV?$basic_string@DU?$char_traits@D@std@@V?$allocator@D@2@@std@@V12@@std@@PAX@2@@Z
	?_Lmost@?$_Tree@V?$_Tmap_traits@V?$basic_string@DU?$char_traits@D@std@@V?$allocator@D@2@@std@@V12@U?$less@V?$basic_string@DU?$char_traits@D@std@@V?$allocator@D@2@@std@@@2@V?$allocator@U?$pair@$$CBV?$basic_string@DU?$char_traits@D@std@@V?$allocator@D@2@@std@@V12@@std@@@2@$0A@@std@@@std@@IBEAAPAU?$_Tree_node@U?$pair@$$CBV?$basic_string@DU?$char_traits@D@std@@V?$allocator@D@2@@std@@V12@@std@@PAX@2@XZ
	?_Lrotate@?$_Tree@V?$_Tmap_traits@V?$basic_string@DU?$char_traits@D@std@@V?$allocator@D@2@@std@@V12@U?$less@V?$basic_string@DU?$char_traits@D@std@@V?$allocator@D@2@@std@@@2@V?$allocator@U?$pair@$$CBV?$basic_string@DU?$char_traits@D@std@@V?$allocator@D@2@@std@@V12@@std@@@2@$0A@@std@@@std@@IAEXPAU?$_Tree_node@U?$pair@$$CBV?$basic_string@DU?$char_traits@D@std@@V?$allocator@D@2@@std@@V12@@std@@PAX@2@@Z
	?_Rmost@?$_Tree@V?$_Tmap_traits@V?$basic_string@DU?$char_traits@D@std@@V?$allocator@D@2@@std@@V12@U?$less@V?$basic_string@DU?$char_traits@D@std@@V?$allocator@D@2@@std@@@2@V?$allocator@U?$pair@$$CBV?$basic_string@DU?$char_traits@D@std@@V?$allocator@D@2@@std@@V12@@std@@@2@$0A@@std@@@std@@IBEAAPAU?$_Tree_node@U?$pair@$$CBV?$basic_string@DU?$char_traits@D@std@@V?$allocator@D@2@@std@@V12@@std@@PAX@2@XZ
	?_Root@?$_Tree@V?$_Tmap_traits@V?$basic_string@DU?$char_traits@D@std@@V?$allocator@D@2@@std@@V12@U?$less@V?$basic_string@DU?$char_traits@D@std@@V?$allocator@D@2@@std@@@2@V?$allocator@U?$pair@$$CBV?$basic_string@DU?$char_traits@D@std@@V?$allocator@D@2@@std@@V12@@std@@@2@$0A@@std@@@std@@IBEAAPAU?$_Tree_node@U?$pair@$$CBV?$basic_string@DU?$char_traits@D@std@@V?$allocator@D@2@@std@@V12@@std@@PAX@2@XZ
	?_Rrotate@?$_Tree@V?$_Tmap_traits@V?$basic_string@DU?$char_traits@D@std@@V?$allocator@D@2@@std@@V12@U?$less@V?$basic_string@DU?$char_traits@D@std@@V?$allocator@D@2@@std@@@2@V?$allocator@U?$pair@$$CBV?$basic_string@DU?$char_traits@D@std@@V?$allocator@D@2@@std@@V12@@std@@@2@$0A@@std@@@std@@IAEXPAU?$_Tree_node@U?$pair@$$CBV?$basic_string@DU?$char_traits@D@std@@V?$allocator@D@2@@std@@V12@@std@@PAX@2@@Z
	?_Tidy@?$_Tree@V?$_Tmap_traits@V?$basic_string@DU?$char_traits@D@std@@V?$allocator@D@2@@std@@V12@U?$less@V?$basic_string@DU?$char_traits@D@std@@V?$allocator@D@2@@std@@@2@V?$allocator@U?$pair@$$CBV?$basic_string@DU?$char_traits@D@std@@V?$allocator@D@2@@std@@V12@@std@@@2@$0A@@std@@@std@@IAEXXZ
	??0?$map@V?$basic_string@DU?$char_traits@D@std@@V?$allocator@D@2@@std@@V12@U?$less@V?$basic_string@DU?$char_traits@D@std@@V?$allocator@D@2@@std@@@2@V?$allocator@U?$pair@$$CBV?$basic_string@DU?$char_traits@D@std@@V?$allocator@D@2@@std@@V12@@std@@@2@@std@@QAE@XZ
	??1?$map@V?$basic_string@DU?$char_traits@D@std@@V?$allocator@D@2@@std@@V12@U?$less@V?$basic_string@DU?$char_traits@D@std@@V?$allocator@D@2@@std@@@2@V?$allocator@U?$pair@$$CBV?$basic_string@DU?$char_traits@D@std@@V?$allocator@D@2@@std@@V12@@std@@@2@@std@@QAE@XZ
	??1MessageReader@@UAE@XZ
	??0?$_Tree_unchecked_const_iterator@V?$_Tree_val@U?$_Tree_simple_types@U?$pair@$$CBV?$basic_string@DU?$char_traits@D@std@@V?$allocator@D@2@@std@@V12@@std@@@std@@@std@@U_Iterator_base0@2@@std@@QAE@PAU?$_Tree_node@U?$pair@$$CBV?$basic_string@DU?$char_traits@D@std@@V?$allocator@D@2@@std@@V12@@std@@PAX@1@PBV?$_Tree_val@U?$_Tree_simple_types@U?$pair@$$CBV?$basic_string@DU?$char_traits@D@std@@V?$allocator@D@2@@std@@V12@@std@@@std@@@1@@Z
	??E?$_Tree_unchecked_const_iterator@V?$_Tree_val@U?$_Tree_simple_types@U?$pair@$$CBV?$basic_string@DU?$char_traits@D@std@@V?$allocator@D@2@@std@@V12@@std@@@std@@@std@@U_Iterator_base0@2@@std@@QAEAAV01@XZ
	?_Mynode@?$_Tree_unchecked_const_iterator@V?$_Tree_val@U?$_Tree_simple_types@U?$pair@$$CBV?$basic_string@DU?$char_traits@D@std@@V?$allocator@D@2@@std@@V12@@std@@@std@@@std@@U_Iterator_base0@2@@std@@QBEPAU?$_Tree_node@U?$pair@$$CBV?$basic_string@DU?$char_traits@D@std@@V?$allocator@D@2@@std@@V12@@std@@PAX@2@XZ
	??0?$_Tree_const_iterator@V?$_Tree_val@U?$_Tree_simple_types@U?$pair@$$CBV?$basic_string@DU?$char_traits@D@std@@V?$allocator@D@2@@std@@V12@@std@@@std@@@std@@@std@@QAE@PAU?$_Tree_node@U?$pair@$$CBV?$basic_string@DU?$char_traits@D@std@@V?$allocator@D@2@@std@@V12@@std@@PAX@1@PBV?$_Tree_val@U?$_Tree_simple_types@U?$pair@$$CBV?$basic_string@DU?$char_traits@D@std@@V?$allocator@D@2@@std@@V12@@std@@@std@@@1@@Z
	??E?$_Tree_const_iterator@V?$_Tree_val@U?$_Tree_simple_types@U?$pair@$$CBV?$basic_string@DU?$char_traits@D@std@@V?$allocator@D@2@@std@@V12@@std@@@std@@@std@@@std@@QAEAAV01@XZ
	??E?$_Tree_const_iterator@V?$_Tree_val@U?$_Tree_simple_types@U?$pair@$$CBV?$basic_string@DU?$char_traits@D@std@@V?$allocator@D@2@@std@@V12@@std@@@std@@@std@@@std@@QAE?AV01@H@Z
	??8?$_Tree_const_iterator@V?$_Tree_val@U?$_Tree_simple_types@U?$pair@$$CBV?$basic_string@DU?$char_traits@D@std@@V?$allocator@D@2@@std@@V12@@std@@@std@@@std@@@std@@QBE_NABV01@@Z
	??9?$_Tree_const_iterator@V?$_Tree_val@U?$_Tree_simple_types@U?$pair@$$CBV?$basic_string@DU?$char_traits@D@std@@V?$allocator@D@2@@std@@V12@@std@@@std@@@std@@@std@@QBE_NABV01@@Z
	??0?$_Tree_iterator@V?$_Tree_val@U?$_Tree_simple_types@U?$pair@$$CBV?$basic_string@DU?$char_traits@D@std@@V?$allocator@D@2@@std@@V12@@std@@@std@@@std@@@std@@QAE@PAU?$_Tree_node@U?$pair@$$CBV?$basic_string@DU?$char_traits@D@std@@V?$allocator@D@2@@std@@V12@@std@@PAX@1@PBV?$_Tree_val@U?$_Tree_simple_types@U?$pair@$$CBV?$basic_string@DU?$char_traits@D@std@@V?$allocator@D@2@@std@@V12@@std@@@std@@@1@@Z
	??0EdbScanClientPav@@QAE@XZ
	??1EdbScanClientPav@@UAE@XZ
	?ServerCreatesTarget@EdbScanClientPav@@UAE_NXZ
	?IsA@EdbScanClientPav@@UBEPAVTClass@@XZ
	??0EdbScanClientSysal@@QAE@XZ
	??1EdbScanClientSysal@@UAE@XZ
	?ServerCreatesTarget@EdbScanClientSysal@@UAE_NXZ
	?IsA@EdbScanClientSysal@@UBEPAVTClass@@XZ
	??0?$auto_ptr_ref@VEdbScanClientCommon@@@std@@QAE@PAVEdbScanClientCommon@@@Z
	??$?BVEdbScanClientCommon@@@?$auto_ptr@VEdbScanClientCommon@@@std@@QAE?AU?$auto_ptr_ref@VEdbScanClientCommon@@@1@XZ
	??1?$pair@$$CBV?$basic_string@DU?$char_traits@D@std@@V?$allocator@D@2@@std@@V12@@std@@QAE@XZ
	??$construct@PADAAPAD@?$_Wrap_alloc@V?$allocator@D@std@@@std@@QAEXPAPADAAPAD@Z
	??$destroy@PAD@?$_Wrap_alloc@V?$allocator@D@std@@@std@@QAEXPAPAD@Z
	??$addressof@D@std@@YAPADAAD@Z
	??$_Destroy_range@U?$_Wrap_alloc@V?$allocator@E@std@@@std@@@std@@YAXPAE0AAU?$_Wrap_alloc@V?$allocator@E@std@@@0@@Z
	??$addressof@PAU?$_Tree_node@U?$pair@$$CBV?$basic_string@DU?$char_traits@D@std@@V?$allocator@D@2@@std@@V12@@std@@PAX@std@@@std@@YAPAPAU?$_Tree_node@U?$pair@$$CBV?$basic_string@DU?$char_traits@D@std@@V?$allocator@D@2@@std@@V12@@std@@PAX@0@AAPAU10@@Z
	??$destroy@PAU?$_Tree_node@U?$pair@$$CBV?$basic_string@DU?$char_traits@D@std@@V?$allocator@D@2@@std@@V12@@std@@PAX@std@@@?$_Wrap_alloc@V?$allocator@U?$_Tree_node@U?$pair@$$CBV?$basic_string@DU?$char_traits@D@std@@V?$allocator@D@2@@std@@V12@@std@@PAX@std@@@std@@@std@@QAEXPAPAU?$_Tree_node@U?$pair@$$CBV?$basic_string@DU?$char_traits@D@std@@V?$allocator@D@2@@std@@V12@@std@@PAX@1@@Z
	??$addressof@U?$pair@$$CBV?$basic_string@DU?$char_traits@D@std@@V?$allocator@D@2@@std@@V12@@std@@@std@@YAPAU?$pair@$$CBV?$basic_string@DU?$char_traits@D@std@@V?$allocator@D@2@@std@@V12@@0@AAU10@@Z
	??$swap@D@std@@YAXAAD0@Z
	??$destroy@U?$pair@$$CBV?$basic_string@DU?$char_traits@D@std@@V?$allocator@D@2@@std@@V12@@std@@@?$_Wrap_alloc@V?$allocator@U?$_Tree_node@U?$pair@$$CBV?$basic_string@DU?$char_traits@D@std@@V?$allocator@D@2@@std@@V12@@std@@PAX@std@@@std@@@std@@QAEXPAU?$pair@$$CBV?$basic_string@DU?$char_traits@D@std@@V?$allocator@D@2@@std@@V12@@1@@Z
	??$_Allocate@D@std@@YAPADIPAD@Z
	??$construct@PAU?$_Tree_node@U?$pair@$$CBV?$basic_string@DU?$char_traits@D@std@@V?$allocator@D@2@@std@@V12@@std@@PAX@std@@AAPAU12@@?$_Wrap_alloc@V?$allocator@U?$_Tree_node@U?$pair@$$CBV?$basic_string@DU?$char_traits@D@std@@V?$allocator@D@2@@std@@V12@@std@@PAX@std@@@std@@@std@@QAEXPAPAU?$_Tree_node@U?$pair@$$CBV?$basic_string@DU?$char_traits@D@std@@V?$allocator@D@2@@std@@V12@@std@@PAX@1@AAPAU21@@Z
	??$_Allocate@U?$_Tree_node@U?$pair@$$CBV?$basic_string@DU?$char_traits@D@std@@V?$allocator@D@2@@std@@V12@@std@@PAX@std@@@std@@YAPAU?$_Tree_node@U?$pair@$$CBV?$basic_string@DU?$char_traits@D@std@@V?$allocator@D@2@@std@@V12@@std@@PAX@0@IPAU10@@Z
	??$forward@AAPAD@std@@YAAAPADAAPAD@Z
	??$construct@PADAAPAD@?$allocator_traits@V?$allocator@D@std@@@std@@SAXAAV?$allocator@D@1@PAPADAAPAD@Z
	??$destroy@PAD@?$allocator_traits@V?$allocator@D@std@@@std@@SAXAAV?$allocator@D@1@PAPAD@Z
	??$_Ptr_cat@EE@std@@YA?AU_Scalar_ptr_iterator_tag@0@PAE0@Z
	??$_Destroy_range@U?$_Wrap_alloc@V?$allocator@E@std@@@std@@@std@@YAXPAE0AAU?$_Wrap_alloc@V?$allocator@E@std@@@0@U_Scalar_ptr_iterator_tag@0@@Z
	??$destroy@PAU?$_Tree_node@U?$pair@$$CBV?$basic_string@DU?$char_traits@D@std@@V?$allocator@D@2@@std@@V12@@std@@PAX@std@@@?$allocator_traits@V?$allocator@U?$_Tree_node@U?$pair@$$CBV?$basic_string@DU?$char_traits@D@std@@V?$allocator@D@2@@std@@V12@@std@@PAX@std@@@std@@@std@@SAXAAV?$allocator@U?$_Tree_node@U?$pair@$$CBV?$basic_string@DU?$char_traits@D@std@@V?$allocator@D@2@@std@@V12@@std@@PAX@std@@@1@PAPAU?$_Tree_node@U?$pair@$$CBV?$basic_string@DU?$char_traits@D@std@@V?$allocator@D@2@@std@@V12@@std@@PAX@1@@Z
	??$_Move@AAD@std@@YA$$QADAAD@Z
	??$destroy@U?$pair@$$CBV?$basic_string@DU?$char_traits@D@std@@V?$allocator@D@2@@std@@V12@@std@@@?$allocator_traits@V?$allocator@U?$_Tree_node@U?$pair@$$CBV?$basic_string@DU?$char_traits@D@std@@V?$allocator@D@2@@std@@V12@@std@@PAX@std@@@std@@@std@@SAXAAV?$allocator@U?$_Tree_node@U?$pair@$$CBV?$basic_string@DU?$char_traits@D@std@@V?$allocator@D@2@@std@@V12@@std@@PAX@std@@@1@PAU?$pair@$$CBV?$basic_string@DU?$char_traits@D@std@@V?$allocator@D@2@@std@@V12@@1@@Z
	??$forward@AAPAU?$_Tree_node@U?$pair@$$CBV?$basic_string@DU?$char_traits@D@std@@V?$allocator@D@2@@std@@V12@@std@@PAX@std@@@std@@YAAAPAU?$_Tree_node@U?$pair@$$CBV?$basic_string@DU?$char_traits@D@std@@V?$allocator@D@2@@std@@V12@@std@@PAX@0@AAPAU10@@Z
	??$construct@PAU?$_Tree_node@U?$pair@$$CBV?$basic_string@DU?$char_traits@D@std@@V?$allocator@D@2@@std@@V12@@std@@PAX@std@@AAPAU12@@?$allocator_traits@V?$allocator@U?$_Tree_node@U?$pair@$$CBV?$basic_string@DU?$char_traits@D@std@@V?$allocator@D@2@@std@@V12@@std@@PAX@std@@@std@@@std@@SAXAAV?$allocator@U?$_Tree_node@U?$pair@$$CBV?$basic_string@DU?$char_traits@D@std@@V?$allocator@D@2@@std@@V12@@std@@PAX@std@@@1@PAPAU?$_Tree_node@U?$pair@$$CBV?$basic_string@DU?$char_traits@D@std@@V?$allocator@D@2@@std@@V12@@std@@PAX@1@AAPAU31@@Z
	??$construct@PADAAPAD@?$allocator@D@std@@QAEXPAPADAAPAD@Z
	??$destroy@PAD@?$allocator@D@std@@QAEXPAPAD@Z
	??$destroy@PAU?$_Tree_node@U?$pair@$$CBV?$basic_string@DU?$char_traits@D@std@@V?$allocator@D@2@@std@@V12@@std@@PAX@std@@@?$allocator@U?$_Tree_node@U?$pair@$$CBV?$basic_string@DU?$char_traits@D@std@@V?$allocator@D@2@@std@@V12@@std@@PAX@std@@@std@@QAEXPAPAU?$_Tree_node@U?$pair@$$CBV?$basic_string@DU?$char_traits@D@std@@V?$allocator@D@2@@std@@V12@@std@@PAX@1@@Z
	??$destroy@U?$pair@$$CBV?$basic_string@DU?$char_traits@D@std@@V?$allocator@D@2@@std@@V12@@std@@@?$allocator@U?$_Tree_node@U?$pair@$$CBV?$basic_string@DU?$char_traits@D@std@@V?$allocator@D@2@@std@@V12@@std@@PAX@std@@@std@@QAEXPAU?$pair@$$CBV?$basic_string@DU?$char_traits@D@std@@V?$allocator@D@2@@std@@V12@@1@@Z
	??$construct@PAU?$_Tree_node@U?$pair@$$CBV?$basic_string@DU?$char_traits@D@std@@V?$allocator@D@2@@std@@V12@@std@@PAX@std@@AAPAU12@@?$allocator@U?$_Tree_node@U?$pair@$$CBV?$basic_string@DU?$char_traits@D@std@@V?$allocator@D@2@@std@@V12@@std@@PAX@std@@@std@@QAEXPAPAU?$_Tree_node@U?$pair@$$CBV?$basic_string@DU?$char_traits@D@std@@V?$allocator@D@2@@std@@V12@@std@@PAX@1@AAPAU21@@Z
	?_Generic_object@?$_Error_objects@H@std@@2V_Generic_error_category@2@A 	 DATA
	?_Iostream_object@?$_Error_objects@H@std@@2V_Iostream_error_category@2@A 	 DATA
	?_System_object@?$_Error_objects@H@std@@2V_System_error_category@2@A 	 DATA
	?id@?$num_put@DV?$back_insert_iterator@V?$basic_string@DU?$char_traits@D@std@@V?$allocator@D@2@@std@@@std@@@std@@2V0locale@2@A 	 DATA
	?id@?$num_put@_WV?$back_insert_iterator@V?$basic_string@_WU?$char_traits@_W@std@@V?$allocator@_W@2@@std@@@std@@@std@@2V0locale@2@A 	 DATA
	??_R0?AVerror_category@std@@@8 	 DATA
	??_R0?AV_Generic_error_category@std@@@8 	 DATA
	??_R0?AV_Iostream_error_category@std@@@8 	 DATA
	??_R0?AV_System_error_category@std@@@8 	 DATA
	??_R0?AVTDatime@@@8 	 DATA
	??_R0?AVEdbScanClientBase@@@8 	 DATA
	??_R0?AVEdbScanClient@@@8 	 DATA
	??_R0?AVPAVProtocol@@@8 	 DATA
	??_R0?AVTiXmlDocument@@@8 	 DATA
	??_R0?AVTiXmlNode@@@8 	 DATA
	??_R0?AVTiXmlBase@@@8 	 DATA
	??_R0?AVMessageManager@@@8 	 DATA
	??_R0?AVMessageReader@@@8 	 DATA
	??_R0?AVEdbScanClientPav@@@8 	 DATA
	??_R0?AVEdbScanClientCommon@@@8 	 DATA
	??_R0?AVEdbScanClientSysal@@@8 	 DATA
	hypot
	??2@YAPAXIPAX@Z
	??3@YAXPAX0@Z
	?length@?$char_traits@D@std@@SAIPBD@Z
	?copy@?$char_traits@D@std@@SAPADPADPBDI@Z
	?move@?$char_traits@D@std@@SAPADPADPBDI@Z
	?assign@?$char_traits@D@std@@SAXAADABD@Z
	?eq_int_type@?$char_traits@D@std@@SA_NABH0@Z
	?eof@?$char_traits@D@std@@SAHXZ
	??0?$allocator@D@std@@QAE@XZ
	?deallocate@?$allocator@D@std@@QAEXPADI@Z
	?allocate@?$allocator@D@std@@QAEPADI@Z
	?max_size@?$allocator@D@std@@QBEIXZ
	?max_size@?$allocator_traits@V?$allocator@D@std@@@std@@SAIABV?$allocator@D@2@@Z
	??0?$_Wrap_alloc@V?$allocator@D@std@@@std@@QAE@XZ
	?allocate@?$_Wrap_alloc@V?$allocator@D@std@@@std@@QAEPADI@Z
	?deallocate@?$_Wrap_alloc@V?$allocator@D@std@@@std@@QAEXPADI@Z
	?max_size@?$_Wrap_alloc@V?$allocator@D@std@@@std@@QBEIXZ
	??0?$_String_val@U?$_Simple_types@D@std@@@std@@QAE@XZ
	?_Myptr@?$_String_val@U?$_Simple_types@D@std@@@std@@QAEPADXZ
	?_Myptr@?$_String_val@U?$_Simple_types@D@std@@@std@@QBEPBDXZ
	??0?$_String_alloc@$0A@U?$_String_base_types@DV?$allocator@D@std@@@std@@@std@@QAE@ABV?$allocator@D@1@@Z
	?_Getal@?$_String_alloc@$0A@U?$_String_base_types@DV?$allocator@D@std@@@std@@@std@@QBE?AU?$_Wrap_alloc@V?$allocator@D@std@@@2@XZ
	??0?$basic_string@DU?$char_traits@D@std@@V?$allocator@D@2@@std@@QAE@PBD@Z
	??1?$basic_string@DU?$char_traits@D@std@@V?$allocator@D@2@@std@@QAE@XZ
	?assign@?$basic_string@DU?$char_traits@D@std@@V?$allocator@D@2@@std@@QAEAAV12@ABV12@II@Z
	?assign@?$basic_string@DU?$char_traits@D@std@@V?$allocator@D@2@@std@@QAEAAV12@PBDI@Z
	?assign@?$basic_string@DU?$char_traits@D@std@@V?$allocator@D@2@@std@@QAEAAV12@PBD@Z
	?erase@?$basic_string@DU?$char_traits@D@std@@V?$allocator@D@2@@std@@QAEAAV12@I@Z
	?erase@?$basic_string@DU?$char_traits@D@std@@V?$allocator@D@2@@std@@QAEAAV12@II@Z
	?size@?$basic_string@DU?$char_traits@D@std@@V?$allocator@D@2@@std@@QBEIXZ
	?max_size@?$basic_string@DU?$char_traits@D@std@@V?$allocator@D@2@@std@@QBEIXZ
	?_Copy@?$basic_string@DU?$char_traits@D@std@@V?$allocator@D@2@@std@@QAEXII@Z
	?_Eos@?$basic_string@DU?$char_traits@D@std@@V?$allocator@D@2@@std@@QAEXI@Z
	?_Grow@?$basic_string@DU?$char_traits@D@std@@V?$allocator@D@2@@std@@QAE_NI_N@Z
	?_Inside@?$basic_string@DU?$char_traits@D@std@@V?$allocator@D@2@@std@@QAE_NPBD@Z
	?_Tidy@?$basic_string@DU?$char_traits@D@std@@V?$allocator@D@2@@std@@QAEX_NI@Z
	?_Xlen@?$basic_string@DU?$char_traits@D@std@@V?$allocator@D@2@@std@@QBEXXZ
	?_Xran@?$basic_string@DU?$char_traits@D@std@@V?$allocator@D@2@@std@@QBEXXZ
	?generic_category@std@@YAABVerror_category@1@XZ
	?system_category@std@@YAABVerror_category@1@XZ
	??0error_category@std@@QAE@XZ
	??1error_category@std@@UAE@XZ
	?default_error_condition@error_category@std@@UBE?AVerror_condition@2@H@Z
	?equivalent@error_category@std@@UBE_NHABVerror_condition@2@@Z
	?equivalent@error_category@std@@UBE_NABVerror_code@2@H@Z
	??8error_category@std@@QBE_NABV01@@Z
	?value@error_code@std@@QBEHXZ
	?category@error_code@std@@QBEABVerror_category@2@XZ
	??0error_condition@std@@QAE@HABVerror_category@1@@Z
	?value@error_condition@std@@QBEHXZ
	?category@error_condition@std@@QBEABVerror_category@2@XZ
	??8error_condition@std@@QBE_NABV01@@Z
	??0_Generic_error_category@std@@QAE@XZ
	?name@_Generic_error_category@std@@UBEPBDXZ
	?message@_Generic_error_category@std@@UBE?AV?$basic_string@DU?$char_traits@D@std@@V?$allocator@D@2@@2@H@Z
	??1_Generic_error_category@std@@UAE@XZ
	??0_Iostream_error_category@std@@QAE@XZ
	?name@_Iostream_error_category@std@@UBEPBDXZ
	?message@_Iostream_error_category@std@@UBE?AV?$basic_string@DU?$char_traits@D@std@@V?$allocator@D@2@@2@H@Z
	??1_Iostream_error_category@std@@UAE@XZ
	??0_System_error_category@std@@QAE@XZ
	?name@_System_error_category@std@@UBEPBDXZ
	?message@_System_error_category@std@@UBE?AV?$basic_string@DU?$char_traits@D@std@@V?$allocator@D@2@@2@H@Z
	?default_error_condition@_System_error_category@std@@UBE?AVerror_condition@2@H@Z
	??1_System_error_category@std@@UAE@XZ
	??$swap@H@std@@YAXAAH0@Z
	?Clear@TObject@@UAEXPBD@Z
	?GetOption@TObject@@UBEPBDXZ
	?IsSortable@TObject@@UBE_NXZ
	??2TObject@@SAPAXI@Z
	?Abs@TMath@@YAHH@Z
	?Min@TMath@@YAHHH@Z
	?Max@TMath@@YAHHH@Z
	?IsLong@TString@@ABE_NXZ
	?GetShortSize@TString@@ABEHXZ
	?GetLongSize@TString@@ABEHXZ
	?GetLongPointer@TString@@ABEPBDXZ
	?GetShortPointer@TString@@ABEPBDXZ
	?GetPointer@TString@@ABEPBDXZ
	??BTString@@QBEPBDXZ
	??YTString@@QAEAAV0@PBD@Z
	??YTString@@QAEAAV0@H@Z
	??YTString@@QAEAAV0@J@Z
	?Append@TString@@QAEAAV1@PBDH@Z
	?Data@TString@@QBEPBDXZ
	?IsNull@TString@@QBE_NXZ
	?Length@TString@@QBEHXZ
	?Prepend@TString@@QAEAAV1@PBD@Z
	??0TNamed@@QAE@XZ
	??1TNamed@@UAE@XZ
	?GetName@TNamed@@UBEPBDXZ
	?GetTitle@TNamed@@UBEPBDXZ
	?Hash@TNamed@@UBEKXZ
	?IsSortable@TNamed@@UBE_NXZ
	?IsA@TNamed@@UBEPAVTClass@@XZ
	??0TCollection@@IAE@XZ
	??1TCollection@@UAE@XZ
	?GetEntries@TCollection@@UBEHXZ
	?GetSize@TCollection@@UBEHXZ
	?Hash@TCollection@@UBEKXZ
	?IsEmpty@TCollection@@UBE_NXZ
	?IsFolder@TCollection@@UBE_NXZ
	?IsSortable@TCollection@@UBE_NXZ
	?MakeReverseIterator@TCollection@@UBEPAVTIterator@@XZ
	?IsA@TCollection@@UBEPAVTClass@@XZ
	??0TSeqCollection@@IAE@XZ
	?Changed@TSeqCollection@@MAEXXZ
	??1TSeqCollection@@UAE@XZ
	?Add@TSeqCollection@@UAEXPAVTObject@@@Z
	?RemoveFirst@TSeqCollection@@UAEXXZ
	?RemoveLast@TSeqCollection@@UAEXXZ
	?RemoveAt@TSeqCollection@@UAEPAVTObject@@H@Z
	?RemoveAfter@TSeqCollection@@UAEXPAVTObject@@@Z
	?RemoveBefore@TSeqCollection@@UAEXPAVTObject@@@Z
	?IsSorted@TSeqCollection@@UBE_NXZ
	?IsA@TSeqCollection@@UBEPAVTClass@@XZ
	??0TList@@QAE@XZ
	?Add@TList@@UAEXPAVTObject@@@Z
	?Add@TList@@UAEXPAVTObject@@PBD@Z
	?FirstLink@TList@@UBEPAVTObjLink@@XZ
	?LastLink@TList@@UBEPAVTObjLink@@XZ
	?IsA@TList@@UBEPAVTClass@@XZ
	??0TDatime@@QAE@I_N@Z
	??1TDatime@@UAE@XZ
	?IsA@TDatime@@UBEPAVTClass@@XZ
	??0FileStat_t@@QAE@XZ
	??1FileStat_t@@QAE@XZ
	?BoundsOk@TArray@@IBE_NPBDH@Z
	?GetSize@TArray@@QBEHXZ
	?GetArray@TArrayI@@QAEPAHXZ
	??ATArrayI@@QAEAAHH@Z
	?BoundsOk@TObjArray@@IBE_NPBDH@Z
	?GetEntriesFast@TObjArray@@QBEHXZ
	?At@TObjArray@@UBEPAVTObject@@H@Z
	??0_Ignore@std@@QAE@XZ
	?Sqrt@TMath@@YANN@Z
	??0TSortedList@@QAE@_N@Z
	?IsSorted@TSortedList@@UBE_NXZ
	?AddFirst@TSortedList@@UAEXPAVTObject@@@Z
	?AddFirst@TSortedList@@UAEXPAVTObject@@PBD@Z
	?AddLast@TSortedList@@UAEXPAVTObject@@@Z
	?AddLast@TSortedList@@UAEXPAVTObject@@PBD@Z
	?AddAt@TSortedList@@UAEXPAVTObject@@H@Z
	?AddAfter@TSortedList@@UAEXPBVTObject@@PAV2@@Z
	?AddAfter@TSortedList@@UAEXPAVTObjLink@@PAVTObject@@@Z
	?AddBefore@TSortedList@@UAEXPBVTObject@@PAV2@@Z
	?AddBefore@TSortedList@@UAEXPAVTObjLink@@PAVTObject@@@Z
	?Sort@TSortedList@@UAEX_N@Z
	?IsA@TSortedList@@UBEPAVTClass@@XZ
	??1TSortedList@@UAE@XZ
	??1EdbPoint@@UAE@XZ
	?Transform@EdbPoint@@UAEXPBVEdbAffine2D@@@Z
	?Transform@EdbPoint@@UAEXPBVEdbAffine3D@@@Z
	?Test@EdbPoint@@UBEXXZ
	?IsA@EdbPoint@@UBEPAVTClass@@XZ
	??0EdbPoint@@QAE@XZ
	??1EdbAngle2D@@UAE@XZ
	?Test@EdbAngle2D@@UBEXXZ
	?IsA@EdbAngle2D@@UBEPAVTClass@@XZ
	??0EdbAngle2D@@QAE@XZ
	??1EdbPoint2D@@UAE@XZ
	?Z@EdbPoint2D@@UBEMXZ
	?SetZ@EdbPoint2D@@UAEXM@Z
	?Test@EdbPoint2D@@UBEXXZ
	?TestPoint2D@EdbPoint2D@@UBEXXZ
	?IsA@EdbPoint2D@@UBEPAVTClass@@XZ
	??0EdbPoint2D@@QAE@XZ
	??1EdbTrack2D@@UAE@XZ
	?Test@EdbTrack2D@@UBEXXZ
	?IsA@EdbTrack2D@@UBEPAVTClass@@XZ
	??0EdbTrack2D@@QAE@XZ
	??0EdbID@@QAE@HHHH@Z
	??1EdbID@@UAE@XZ
	?Set@EdbID@@QAEXHHHH@Z
	?Get@EdbID@@QAEXQAH@Z
	?Print@EdbID@@QAEXXZ
	?IsA@EdbID@@UBEPAVTClass@@XZ
	??0EdbID@@QAE@ABV0@@Z
	??4EdbID@@QAEAAV0@ABV0@@Z
	??0EdbSegP@@QAE@XZ
	??0EdbSegP@@QAE@ABV0@@Z
	??1EdbSegP@@UAE@XZ
	?addEMULDigit@EdbSegP@@QAEXPAVTObject@@@Z
	?EMULDigitArray@EdbSegP@@QBEPAVTRefArray@@XZ
	?Set@EdbSegP@@QAEXHMMMMMH@Z
	?SetErrors@EdbSegP@@QAEXXZ
	?COV@EdbSegP@@QBEAAV?$TMatrixT@N@@XZ
	?SetZ@EdbSegP@@UAEXM@Z
	?SetDZ@EdbSegP@@QAEXM@Z
	?SetID@EdbSegP@@QAEXH@Z
	?SetPID@EdbSegP@@QAEXH@Z
	?SetFlag@EdbSegP@@QAEXH@Z
	?SetChi2@EdbSegP@@QAEXM@Z
	?SetVid@EdbSegP@@QAEXHH@Z
	?SetSide@EdbSegP@@QAEXH@Z
	?SetMC@EdbSegP@@QAEXHH@Z
	?MCEvt@EdbSegP@@QBEHXZ
	?MCTrack@EdbSegP@@QBEHXZ
	?ID@EdbSegP@@QBEHXZ
	?PID@EdbSegP@@QBEHXZ
	?Flag@EdbSegP@@QBEHXZ
	?W@EdbSegP@@QBEMXZ
	?Z@EdbSegP@@UBEMXZ
	?Chi2@EdbSegP@@QBEMXZ
	?ScanID@EdbSegP@@QBE?AVEdbID@@XZ
	?SX@EdbSegP@@QBEMXZ
	?SY@EdbSegP@@QBEMXZ
	?STX@EdbSegP@@QBEMXZ
	?STY@EdbSegP@@QBEMXZ
	?Vid@EdbSegP@@QBEHH@Z
	?X@EdbSegP@@UBEMXZ
	?Y@EdbSegP@@UBEMXZ
	?TX@EdbSegP@@UBEMXZ
	?TY@EdbSegP@@UBEMXZ
	?SetX@EdbSegP@@UAEXM@Z
	?SetY@EdbSegP@@UAEXM@Z
	?SetTX@EdbSegP@@UAEXM@Z
	?SetTY@EdbSegP@@UAEXM@Z
	?IsSortable@EdbSegP@@UBE_NXZ
	?IsA@EdbSegP@@UBEPAVTClass@@XZ
	?SetZ@EdbSegmentsBox@@UAEXM@Z
	?GetN@EdbSegmentsBox@@QBEHXZ
	?GetSegment@EdbSegmentsBox@@QBEPAVEdbSegP@@H@Z
	?GetSegmentLast@EdbSegmentsBox@@QBEPAVEdbSegP@@XZ
	?GetSegments@EdbSegmentsBox@@QBEPAVTClonesArray@@XZ
	?SetX@EdbSegmentsBox@@UAEXM@Z
	?SetY@EdbSegmentsBox@@UAEXM@Z
	?N@EdbSegmentsBox@@UBEHXZ
	?SetCounters@EdbTrackP@@QAEXXZ
	?SetN0@EdbTrackP@@QAEXXZ
	?SetNpl@EdbTrackP@@QAEXXZ
	?N@EdbTrackP@@QBEHXZ
	?GetSegment@EdbTrackP@@QBEPAVEdbSegP@@H@Z
	?AddSegment@EdbTrackP@@QAEXPAVEdbSegP@@@Z
	?SetScanID@EdbPattern@@QAEXVEdbID@@@Z
	?SetID@EdbPattern@@QAEXH@Z
	?SetPID@EdbPattern@@QAEXH@Z
	?SetSide@EdbPattern@@QAEXH@Z
	?ID@EdbPattern@@QBEHXZ
	?PID@EdbPattern@@QBEHXZ
	?Npatterns@EdbPatternsVolume@@QBEHXZ
	?GetArray@TArrayF@@QAEPAMXZ
	??ATArrayF@@QAEAAMH@Z
	??ATArrayF@@QBEMH@Z
	??BTCut@@QBEPBDXZ
	??0EdbAffine2D@@QAE@XZ
	??1EdbAffine2D@@UAE@XZ
	?Set@EdbAffine2D@@QAEXMMMMMM@Z
	?A11@EdbAffine2D@@QBEMXZ
	?A12@EdbAffine2D@@QBEMXZ
	?A21@EdbAffine2D@@QBEMXZ
	?A22@EdbAffine2D@@QBEMXZ
	?B1@EdbAffine2D@@QBEMXZ
	?B2@EdbAffine2D@@QBEMXZ
	?ShiftX@EdbAffine2D@@QAEXM@Z
	?ShiftY@EdbAffine2D@@QAEXM@Z
	?IsA@EdbAffine2D@@UBEPAVTClass@@XZ
	??0EdbAffine2D@@QAE@ABV0@@Z
	??4EdbAffine2D@@QAEAAV0@ABV0@@Z
	?GetEntries@EdbRun@@QBEHXZ
	??4EdbH2@@QAEAAV0@ABV0@@Z
	?Peak@EdbPeak2@@QBEMH@Z
	?Mean3@EdbPeak2@@QBEMH@Z
	?Mean@EdbPeak2@@QBEMH@Z
	??4EdbCell2@@QAEAAV0@ABV0@@Z
	??4EdbCorrectionMap@@QAEAAV0@ABV0@@Z
	??1EdbLayer@@UAE@XZ
	?ID@EdbLayer@@QBEHXZ
	?X@EdbLayer@@QBEMXZ
	?Y@EdbLayer@@QBEMXZ
	?Z@EdbLayer@@QBEMXZ
	?Zmin@EdbLayer@@QBEMXZ
	?Zmax@EdbLayer@@QBEMXZ
	?DZ@EdbLayer@@QBEMXZ
	?Shr@EdbLayer@@QBEMXZ
	?Zcorr@EdbLayer@@QBEMXZ
	?SetID@EdbLayer@@QAEXH@Z
	?SetShrinkage@EdbLayer@@QAEXM@Z
	?SetZlayer@EdbLayer@@QAEXMMM@Z
	?SetAffXY@EdbLayer@@QAEXMMMMMM@Z
	?SetAffTXTY@EdbLayer@@QAEXMMMMMM@Z
	?SetZcorr@EdbLayer@@QAEXM@Z
	?GetAffineXY@EdbLayer@@QAEPAVEdbAffine2D@@XZ
	?GetAffineTXTY@EdbLayer@@QAEPAVEdbAffine2D@@XZ
	?IsA@EdbLayer@@UBEPAVTClass@@XZ
	??4EdbLayer@@QAEAAV0@ABV0@@Z
	??1EdbScanCond@@UAE@XZ
	?SetRadX0@EdbScanCond@@QAEXM@Z
	?SetSigma0@EdbScanCond@@QAEXMMMM@Z
	?SetBins@EdbScanCond@@QAEXMMMM@Z
	?OffX@EdbScanCond@@QBEMXZ
	?OffY@EdbScanCond@@QBEMXZ
	?SetDegrad@EdbScanCond@@QAEXM@Z
	?SetPulsRamp0@EdbScanCond@@QAEXMM@Z
	?SetPulsRamp04@EdbScanCond@@QAEXMM@Z
	?BinX@EdbScanCond@@QBEMXZ
	?BinTX@EdbScanCond@@QBEMXZ
	?SetChi2Max@EdbScanCond@@QAEXM@Z
	?SetChi2PMax@EdbScanCond@@QAEXM@Z
	?Chi2PMax@EdbScanCond@@QBEMXZ
	?SetChi2Mode@EdbScanCond@@QAEXH@Z
	?GetRun@EdbRunAccess@@QBEPAVEdbRun@@XZ
	?GetLayer@EdbRunAccess@@QAEPAVEdbLayer@@H@Z
	??0EdbMask@@QAE@H@Z
	??1EdbMask@@UAE@XZ
	?SetAt@EdbMask@@QAEXHH@Z
	?IsA@EdbMask@@UBEPAVTClass@@XZ
	??0TIndexCell@@QAE@XZ
	?At@TIndexCell@@QBEPAV1@H@Z
	?Value@TIndexCell@@QBEJXZ
	?GetEntriesFast@TIndexCell@@QBEHXZ
	?Hash@TIndexCell@@UBEKXZ
	?IsEqual@TIndexCell@@UBE_NPBVTObject@@@Z
	?IsSortable@TIndexCell@@UBE_NXZ
	?Compare@TIndexCell@@UBEHPBVTObject@@@Z
	?IsA@TIndexCell@@UBEPAVTClass@@XZ
	?Ncouples@EdbPatCouple@@QBEHXZ
	?SetScanCond@EdbPVRec@@QAEXPAVEdbScanCond@@@Z
	?GetScanCond@EdbPVRec@@QAEPBVEdbScanCond@@XZ
	?SetChi2Max@EdbPVRec@@QAEXM@Z
	?GetCouple@EdbPVRec@@QBEPAVEdbPatCouple@@H@Z
	?Ntracks@EdbPVRec@@QBEHXZ
	?GetTrack@EdbPVRec@@QBEPAVEdbTrackP@@H@Z
	?AddTrack@EdbPVRec@@QAEXPAVEdbTrackP@@@Z
	?GetLayer@EdbDataPiece@@QAEPAVEdbLayer@@H@Z
	?GetCond@EdbDataPiece@@QAEPAVEdbScanCond@@H@Z
	?PVR@EdbDataProc@@QBEPAVEdbPVRec@@XZ
	?SetNoUpdate@EdbDataProc@@QAEXH@Z
	?GetRawDirClient@EdbScanClientCommon@@QAEPBDXZ
	?SetProcTgtServer@EdbScanClientCommon@@QAEXPBD@Z
	?SetProcPthServer@EdbScanClientCommon@@QAEXPBD@Z
	?GetServerCreatedRunName@EdbScanClientCommon@@QAEPBDXZ
	?GetRawDirClient@EdbScanClient@@QAEPBDXZ
	?SetProcTgtServer@EdbScanClient@@QAEXPBD@Z
	?SetProcPthServer@EdbScanClient@@QAEXPBD@Z
	?GetServerCreatedRunName@EdbScanClient@@QAEPBDXZ
	?ServerCreatesRootFile@EdbScanClient@@QAE_NXZ
	?ServerCreatesTarget@EdbScanClient@@QAE_NXZ
	??C?$auto_ptr@VEdbScanClientCommon@@@std@@QBEPAVEdbScanClientCommon@@XZ
	?get@?$auto_ptr@VEdbScanClientCommon@@@std@@QBEPAVEdbScanClientCommon@@XZ
	?GetLayer@EdbPlateP@@QAEPAVEdbLayer@@H@Z
	??1EdbBrickP@@UAE@XZ
	?AddPlate@EdbBrickP@@QAEXPAVEdbPlateP@@@Z
	?GetPlate@EdbBrickP@@QAEPAVEdbPlateP@@H@Z
	?ResetAff@EdbBrickP@@QAEXXZ
	?IsA@EdbBrickP@@UBEPAVTClass@@XZ
	??1EdbScanSet@@UAE@XZ
	?GetID@EdbScanSet@@QAEPAVEdbID@@H@Z
	?SetID@EdbScanSet@@QAEXVEdbID@@@Z
	?Brick@EdbScanSet@@QAEAAVEdbBrickP@@XZ
	?GetPlate@EdbScanSet@@QAEPAVEdbPlateP@@H@Z
	?IsA@EdbScanSet@@UBEPAVTClass@@XZ
	??0EdbScanProc@@QAE@XZ
	??1EdbScanProc@@UAE@XZ
	?BrickDir@EdbScanProc@@QAEPADH@Z
	?CheckDir@EdbScanProc@@QAE_NPBD_N@Z
	?CheckDirWritable@EdbScanProc@@QAE_NPBD@Z
	?CheckAFFDir@EdbScanProc@@QAE_NH_N@Z
	?CheckBrickDir@EdbScanProc@@QAE_NVEdbID@@_N@Z
	?CheckPlateDir@EdbScanProc@@QAE_NVEdbID@@_N@Z
	?CheckProcDir@EdbScanProc@@QAE_NQAH_N@Z
	?CheckProcDir@EdbScanProc@@QAE_NVEdbID@@_N@Z
	?MakeFileName@EdbScanProc@@QAEXAAVTString@@QAHPBD_N@Z
	?MakeFileName@EdbScanProc@@QAEXAAVTString@@VEdbID@@PBD_N@Z
	?MakeFileNameSrv@EdbScanProc@@QAEXAAVTString@@QAHPBD_N@Z
	?MakeAffName@EdbScanProc@@QAEXAAVTString@@QAH1PBD@Z
	?MakeAffName@EdbScanProc@@QAEXAAVTString@@VEdbID@@1PBD@Z
	?GetMap@EdbScanProc@@QAE_NHAAVTString@@@Z
	?AddParLine@EdbScanProc@@QAE_NPBD0_N@Z
	?MakeInPar@EdbScanProc@@QAE_NQAHPBD@Z
	?MakeInPar@EdbScanProc@@QAE_NVEdbID@@PBD@Z
	?MakeInParSet@EdbScanProc@@QAEXVEdbID@@PBD@Z
	?CopyFile@EdbScanProc@@QAEHQAH0PBD_N@Z
	?CopyPar@EdbScanProc@@QAEHVEdbID@@0_N@Z
	?CopyPar@EdbScanProc@@QAEHQAH0_N@Z
	?CopyAFFPar@EdbScanProc@@QAEHQAH000_N@Z
	?RemoveFile@EdbScanProc@@QAEHVEdbID@@PBD@Z
	?CopyParSet@EdbScanProc@@QAEXVEdbID@@0@Z
	?ReadPiecePar@EdbScanProc@@QAE_NVEdbID@@AAVEdbPlateP@@@Z
	?MakeScannedIDList@EdbScanProc@@QAEXVEdbID@@AAVEdbScanSet@@HHPBD@Z
	?CheckFiles@EdbScanProc@@QAEXAAVEdbScanSet@@PBD@Z
	?ReadPatTXT@EdbScanProc@@QAEHAAVEdbPattern@@VEdbID@@PBDH@Z
	?ReadPatTXT@EdbScanProc@@QAEHAAVEdbPattern@@QAHPBDH@Z
	?ReadPatTXT@EdbScanProc@@QAEHPBDAAVEdbPattern@@H@Z
	?WritePatTXT@EdbScanProc@@QAEHAAVEdbPattern@@QAHPBDH@Z
	?WriteSBcndTXT@EdbScanProc@@QAEHQAHPBD@Z
	?ReadPatRoot@EdbScanProc@@QAEHAAVEdbPattern@@QAHPBDH@Z
	?WritePatRoot@EdbScanProc@@QAEHAAVEdbPattern@@QAHPBDH@Z
	?ReadPred@EdbScanProc@@QAEHAAVEdbPattern@@QAHH@Z
	?WritePred@EdbScanProc@@QAEHAAVEdbPattern@@QAHH@Z
	?ReadFound@EdbScanProc@@QAEHAAVEdbPattern@@QAHH@Z
	?WriteFound@EdbScanProc@@QAEHAAVEdbPattern@@QAHH@Z
	?ReadFound@EdbScanProc@@QAEHAAVEdbPattern@@VEdbID@@H@Z
	?ReadPred@EdbScanProc@@QAEHAAVEdbPattern@@VEdbID@@H@Z
	?WritePred@EdbScanProc@@QAEHAAVEdbPattern@@VEdbID@@H@Z
	?WriteFound@EdbScanProc@@QAEHAAVEdbPattern@@VEdbID@@H@Z
	?WaitFileReady@EdbScanProc@@QAE_NPBD@Z
	?InitRun@EdbScanProc@@QAEPAVEdbRun@@QAHPAD1_N@Z
	?FlashRawDir@EdbScanProc@@QAE_NAAVEdbScanClient@@QAH@Z
	?LoadPlate@EdbScanProc@@QAEHAAVEdbScanClient@@QAHH@Z
	?ScanAreas@EdbScanProc@@QAEHW4ScanType@EdbScanClientBase@@AAVEdbScanClient@@QAHHPBD@Z
	?ScanAreas@EdbScanProc@@QAEHW4ScanType@EdbScanClientBase@@AAVEdbScanClient@@AAVEdbPattern@@QAHPBD@Z
	?InitPiece@EdbScanProc@@QAE_NAAVEdbDataPiece@@QAH@Z
	?ReadPiece@EdbScanProc@@QAEHAAVEdbDataPiece@@AAVEdbPattern@@@Z
	?ReadPatCP@EdbScanProc@@QAEHAAVEdbPattern@@QAHVTCut@@@Z
	?ReadPatCPnopar@EdbScanProc@@QAEHAAVEdbPattern@@VEdbID@@VTCut@@_N3@Z
	?ReadPatCPnopar@EdbScanProc@@QAEHAAVEdbPattern@@PBDVTCut@@PAVEdbMask@@_N@Z
	?ReadEraseMask@EdbScanProc@@QAEPAVEdbMask@@VEdbID@@@Z
	?MakeEraseFile@EdbScanProc@@QAEXVEdbID@@AAVEdbPattern@@@Z
	?ApplyAffZ@EdbScanProc@@QAE_NAAVEdbPattern@@QAH1@Z
	?GetAffZ@EdbScanProc@@QAE_NAAVEdbAffine2D@@AAMQAH2@Z
	?SetAFFDZ@EdbScanProc@@QAE_NQAH0M@Z
	?SetAFF0@EdbScanProc@@QAE_NQAH0@Z
	?MakeAFFSet@EdbScanProc@@QAE_NAAVEdbScanSet@@@Z
	?MakeParSet@EdbScanProc@@QAE_NAAVEdbScanSet@@@Z
	?PrepareSetStructure@EdbScanProc@@QAE_NAAVEdbScanSet@@@Z
	?ConvertAreas@EdbScanProc@@QAEHAAVEdbScanClient@@QAHHPBD@Z
	?CorrectAngles@EdbScanProc@@QAEHQAH@Z
	?LinkRun@EdbScanProc@@QAEHQAHH@Z
	?LinkRunAll@EdbScanProc@@QAEHQAHHHH@Z
	?LinkRunAll@EdbScanProc@@QAEHVEdbID@@HHH@Z
	?LinkSet@EdbScanProc@@QAEHAAVEdbScanSet@@HHH@Z
	?GetPatternSide@EdbScanProc@@QAEXVEdbID@@HAAVEdbLayer@@PBDHAAVEdbPattern@@@Z
	?LinkRunTest@EdbScanProc@@QAEXVEdbID@@AAVEdbPlateP@@AAVTEnv@@@Z
	?LinkRunNew@EdbScanProc@@QAEXVEdbID@@AAVEdbPlateP@@AAVTEnv@@@Z
	?LinkSetNew@EdbScanProc@@QAEXAAVEdbScanSet@@AAVTEnv@@@Z
	?LinkSetNewTest@EdbScanProc@@QAEXAAVEdbScanSet@@AAVTEnv@@@Z
	?AlignNewNopar@EdbScanProc@@QAEHVEdbID@@0AAVTEnv@@PAVEdbAffine2D@@M@Z
	?UpdateAFFPar@EdbScanProc@@QAE_NVEdbID@@0AAVEdbLayer@@PAVEdbAffine2D@@@Z
	?UpdatePlatePar@EdbScanProc@@QAE_NVEdbID@@AAVEdbLayer@@@Z
	?AlignSetNewNopar@EdbScanProc@@QAEHAAVEdbScanSet@@AAVTEnv@@@Z
	?AlignSetNewNopar@EdbScanProc@@QAEXVEdbID@@AAVTEnv@@@Z
	?AlignSet@EdbScanProc@@QAEXVEdbID@@HHPBD@Z
	?AlignSet@EdbScanProc@@QAEHAAVEdbScanSet@@HHPBD@Z
	?Align@EdbScanProc@@QAEHQAH0PBD@Z
	?AlignAll@EdbScanProc@@QAEHQAH0HHPBD@Z
	?TrackSetBT@EdbScanProc@@QAEHAAVEdbScanSet@@AAVTEnv@@@Z
	?ReadTracksTree@EdbScanProc@@QAEHVEdbID@@AAVEdbPVRec@@VTCut@@@Z
	?ReadTracksTree@EdbScanProc@@QAEHPBDAAVEdbPVRec@@VTCut@@@Z
	?CorrectPredWithFound@EdbScanProc@@QAE_NQAH0PBDH@Z
	?CorrectAffWithPred@EdbScanProc@@QAE_NQAH0PBDH1@Z
	?ProjectFound@EdbScanProc@@QAE_NQAH0@Z
	?ProjectFound@EdbScanProc@@QAE_NVEdbID@@0@Z
	?FindPredictions@EdbScanProc@@QAEHAAVEdbPattern@@QAH0H@Z
	?FindPredictions@EdbScanProc@@QAEHQAHHH@Z
	?InitRunAccessNew@EdbScanProc@@QAE_NAAVEdbRunAccess@@VEdbID@@AAVEdbPlateP@@_N@Z
	?InitRunAccessNew@EdbScanProc@@QAE_NAAVEdbRunAccess@@VEdbID@@H_N@Z
	?InitRunAccess@EdbScanProc@@QAE_NAAVEdbRunAccess@@QAH_N@Z
	?InitRunAccess@EdbScanProc@@QAE_NAAVEdbRunAccess@@VEdbID@@_N@Z
	?FindPredictionsRawSet@EdbScanProc@@QAEHVEdbID@@AAVEdbScanSet@@H@Z
	?FindPredictionsRaw@EdbScanProc@@QAEHVEdbID@@0@Z
	?FindPredictionsRaw@EdbScanProc@@QAEHAAVEdbPattern@@0AAVEdbRunAccess@@AAVEdbScanCond@@2MMMMPAU_iobuf@@@Z
	?FindCompliments@EdbScanProc@@QAEHAAVEdbSegP@@AAVEdbPattern@@AAVTObjArray@@MAAVTArrayF@@@Z
	?SetDefaultCondBT@EdbScanProc@@QAEXAAVEdbScanCond@@@Z
	?SetDefaultCondMT@EdbScanProc@@QAEXAAVEdbScanCond@@@Z
	?OptimizeScanPath@EdbScanProc@@QAEXAAVEdbPattern@@0H@Z
	?RemoveDublets@EdbScanProc@@QAEHAAVEdbPattern@@0H@Z
	?AddAFFtoScanSet@EdbScanProc@@QAE_NAAVEdbScanSet@@VEdbID@@1@Z
	?AddAFFtoScanSet@EdbScanProc@@QAE_NAAVEdbScanSet@@QAH1@Z
	?AddAFFtoScanSet@EdbScanProc@@QAE_NAAVEdbScanSet@@HHHHHHHH@Z
	?AssembleScanSet@EdbScanProc@@QAEHAAVEdbScanSet@@@Z
	?ReadScanSetCP@EdbScanProc@@QAEHAAVEdbScanSet@@AAVEdbPVRec@@VTCut@@_NHH@Z
	?ReadScanSetCP@EdbScanProc@@QAEHVEdbID@@AAVEdbPVRec@@VTCut@@_N3HH@Z
	?ReadFoundSegment@EdbScanProc@@QAEHVEdbID@@AAVEdbSegP@@H@Z
	?ReadFoundTrack@EdbScanProc@@QAEHAAVEdbScanSet@@AAVEdbTrackP@@H@Z
	?ReadFoundTracks@EdbScanProc@@QAEHAAVEdbScanSet@@AAVEdbPVRec@@H@Z
	?ReadManFoundTracks@EdbScanProc@@QAEHAAVEdbScanSet@@AAVEdbPVRec@@H@Z
	?CheckSetQualityRaw@EdbScanProc@@QAEXVEdbID@@@Z
	?AlignOverlaps@EdbScanProc@@QAEXVEdbID@@AAVEdbPattern@@1AAVTEnv@@PBD@Z
	?CheckViewOverlaps@EdbScanProc@@QAEXVEdbID@@AAVTEnv@@@Z
	?WriteScanSet@EdbScanProc@@QAEHVEdbID@@AAVEdbScanSet@@@Z
	?ReadScanSet@EdbScanProc@@QAEPAVEdbScanSet@@VEdbID@@@Z
	?ReadScanSetGlobal@EdbScanProc@@QAEPAVEdbScanSet@@VEdbID@@_N@Z
	?WriteSBTrack@EdbScanProc@@QAEHAAVEdbTrackP@@HVEdbID@@@Z
	?WriteSBTracks@EdbScanProc@@QAEHAAVTObjArray@@VEdbID@@@Z
	?ReadSBTracks@EdbScanProc@@QAEPAVTObjArray@@VEdbID@@@Z
	?MergeSetSBT@EdbScanProc@@QAEXVEdbID@@AAVEdbScanSet@@@Z
	?MergeSetSBT@EdbScanProc@@QAEXVEdbID@@@Z
	?PrepareVolumesPred@EdbScanProc@@QAEXQAHAAVEdbPattern@@HHHHPAVEdbScanSet@@@Z
	?MakeTracksPred@EdbScanProc@@QAEHAAVTObjArray@@VEdbID@@AAVEdbLayer@@@Z
	?TestAl@EdbScanProc@@QAEHQAH0@Z
	?TestAl@EdbScanProc@@QAEHAAVEdbPattern@@0@Z
	?TestAl@EdbScanProc@@QAEHPBD0AAVTCut@@MPAVEdbAffine2D@@@Z
	?ReadMarksSet@EdbScanProc@@QAEHAAVEdbMarksSet@@HPBDDD@Z
	?WriteMarksSet@EdbScanProc@@QAEHAAVEdbMarksSet@@HPBDDDH@Z
	?AlignRaw@EdbScanProc@@QAEHVEdbID@@0AAVTEnv@@PAVEdbAffine2D@@@Z
	?AlignRawSet@EdbScanProc@@QAEXVEdbID@@0AAVTEnv@@@Z
	?UpdateSetWithAff@EdbScanProc@@QAEXVEdbID@@VEdbAffine2D@@@Z
	?UpdateSetWithAff@EdbScanProc@@QAEXVEdbID@@00@Z
	?UpdateSetWithAff@EdbScanProc@@QAEXVEdbID@@0@Z
	?UpdateSetWithPlatePar@EdbScanProc@@QAEXVEdbID@@@Z
	?UpdateSetWithPlatePar@EdbScanProc@@QAEXAAVEdbScanSet@@@Z
	?MakeLinkSetSummary@EdbScanProc@@QAEXVEdbID@@@Z
	?MakeAlignSetSummary@EdbScanProc@@QAEXVEdbID@@@Z
	?MakeAlignSetSummary@EdbScanProc@@QAEXVEdbID@@0PBD1@Z
	?FindRawTrack@EdbScanProc@@QAEHAAVEdbTrackP@@0VEdbID@@HAAVTEnv@@@Z
	?FindRawTrack@EdbScanProc@@QAEHAAVEdbTrackP@@0VEdbID@@H@Z
	?UpdateAlignSummaryTree@EdbScanProc@@QAEXVEdbID@@0AAVTTree@@@Z
	?ReadAffToLayer@EdbScanProc@@QAE_NAAVEdbLayer@@VEdbID@@1@Z
	?ExtractRawVolume@EdbScanProc@@QAEXVEdbID@@0VEdbSegP@@HAAVTEnv@@@Z
	?ExtractRawVolume@EdbScanProc@@QAEXAAVEdbScanSet@@0AAVEdbSegP@@M@Z
	?SetServerRunName@EdbScanProc@@QAEXPBD@Z
	?GetServerRunName@EdbScanProc@@QBEPBDXZ
	?ReadUncorrectedBTforFoundTracks@EdbScanProc@@QAEXAAVEdbPVRec@@@Z
	?LogPrint@EdbScanProc@@QAAXHHPBD0ZZ
	?Print@EdbScanProc@@QAEXXZ
	?IsA@EdbScanProc@@UBEPAVTClass@@XZ
	?SetSigma@EdbPlateAlignment@@QAEXMM@Z
	??0EdbRunTracking@@QAE@XZ
	?GetMTHoles@EdbRunTracking@@SAHH@Z
	?IsA@EdbRunTracking@@UBEPAVTClass@@XZ
	??1EdbLinking@@UAE@XZ
	?IsA@EdbLinking@@UBEPAVTClass@@XZ
	??$GetObject@VEdbMask@@@TDirectoryFile@@QAEXPBDAAPAVEdbMask@@@Z
	??$?6U?$char_traits@D@std@@@std@@YAAAV?$basic_ostream@DU?$char_traits@D@std@@@0@AAV10@PBD@Z
	??$endl@DU?$char_traits@D@std@@@std@@YAAAV?$basic_ostream@DU?$char_traits@D@std@@@0@AAV10@@Z
	??$GetObject@VEdbPattern@@@TDirectoryFile@@QAEXPBDAAPAVEdbPattern@@@Z
	??$Branch@VEdbSegP@@@TTree@@QAEPAVTBranch@@PBD0PAPAVEdbSegP@@HH@Z
	??$Branch@VTClonesArray@@@TTree@@QAEPAVTBranch@@PBDPAPAVTClonesArray@@HH@Z
	??$SetBranchAddress@VTClonesArray@@@TTree@@QAEHPBDPAPAVTClonesArray@@PAPAVTBranch@@@Z
	??$Sort@MH@TMath@@YAXHPBMPAH_N@Z
	??$Branch@VEdbID@@@TTree@@QAEPAVTBranch@@PBD0PAPAVEdbID@@HH@Z
	??$Branch@VEdbLayer@@@TTree@@QAEPAVTBranch@@PBD0PAPAVEdbLayer@@HH@Z
	??$Branch@VEdbPeak2@@@TTree@@QAEPAVTBranch@@PBD0PAPAVEdbPeak2@@HH@Z
	??$SetBranchAddress@VEdbID@@@TTree@@QAEHPBDPAPAVEdbID@@PAPAVTBranch@@@Z
	??$SetBranchAddress@VEdbLayer@@@TTree@@QAEHPBDPAPAVEdbLayer@@PAPAVTBranch@@@Z
	??$SetBranchAddress@VEdbPeak2@@@TTree@@QAEHPBDPAPAVEdbPeak2@@PAPAVTBranch@@@Z
	??$SetBranchAddress@H@TTree@@QAEHPBDPAHPAPAVTBranch@@@Z
	??$SetBranchAddress@M@TTree@@QAEHPBDPAMPAPAVTBranch@@@Z
	??0_Sentry_base@?$basic_ostream@DU?$char_traits@D@std@@@std@@QAE@AAV12@@Z
	??1_Sentry_base@?$basic_ostream@DU?$char_traits@D@std@@@std@@QAE@XZ
	??0sentry@?$basic_ostream@DU?$char_traits@D@std@@@std@@QAE@AAV12@@Z
	??1sentry@?$basic_ostream@DU?$char_traits@D@std@@@std@@QAE@XZ
	??Bsentry@?$basic_ostream@DU?$char_traits@D@std@@@std@@QBE_NXZ
	??$construct@PADAAPAD@?$_Wrap_alloc@V?$allocator@D@std@@@std@@QAEXPAPADAAPAD@Z
	??$destroy@PAD@?$_Wrap_alloc@V?$allocator@D@std@@@std@@QAEXPAPAD@Z
	??$addressof@D@std@@YAPADAAD@Z
	??$_Allocate@D@std@@YAPADIPAD@Z
	??$_Move@AAH@std@@YA$$QAHAAH@Z
	??0?$CompareDesc@PBM@@QAE@PBM@Z
	??$sort@PAHU?$CompareDesc@PBM@@@std@@YAXPAH0U?$CompareDesc@PBM@@@Z
	??0?$CompareAsc@PBM@@QAE@PBM@Z
	??$sort@PAHU?$CompareAsc@PBM@@@std@@YAXPAH0U?$CompareAsc@PBM@@@Z
	??$forward@AAPAD@std@@YAAAPADAAPAD@Z
	??$construct@PADAAPAD@?$allocator_traits@V?$allocator@D@std@@@std@@SAXAAV?$allocator@D@1@PAPADAAPAD@Z
	??$destroy@PAD@?$allocator_traits@V?$allocator@D@std@@@std@@SAXAAV?$allocator@D@1@PAPAD@Z
	??$_Unchecked@PAH@std@@YAPAHPAH@Z
	??$_Sort@PAHHU?$CompareDesc@PBM@@@std@@YAXPAH0HU?$CompareDesc@PBM@@@Z
	??$_Sort@PAHHU?$CompareAsc@PBM@@@std@@YAXPAH0HU?$CompareAsc@PBM@@@Z
	??$construct@PADAAPAD@?$allocator@D@std@@QAEXPAPADAAPAD@Z
	??$destroy@PAD@?$allocator@D@std@@QAEXPAPAD@Z
	??$_Unguarded_partition@PAHU?$CompareDesc@PBM@@@std@@YA?AU?$pair@PAHPAH@0@PAH0U?$CompareDesc@PBM@@@Z
	??$make_heap@PAHU?$CompareDesc@PBM@@@std@@YAXPAH0U?$CompareDesc@PBM@@@Z
	??$sort_heap@PAHU?$CompareDesc@PBM@@@std@@YAXPAH0U?$CompareDesc@PBM@@@Z
	??$_Insertion_sort@PAHU?$CompareDesc@PBM@@@std@@YAXPAH0U?$CompareDesc@PBM@@@Z
	??$_Unguarded_partition@PAHU?$CompareAsc@PBM@@@std@@YA?AU?$pair@PAHPAH@0@PAH0U?$CompareAsc@PBM@@@Z
	??$make_heap@PAHU?$CompareAsc@PBM@@@std@@YAXPAH0U?$CompareAsc@PBM@@@Z
	??$sort_heap@PAHU?$CompareAsc@PBM@@@std@@YAXPAH0U?$CompareAsc@PBM@@@Z
	??$_Insertion_sort@PAHU?$CompareAsc@PBM@@@std@@YAXPAH0U?$CompareAsc@PBM@@@Z
	??$_Median@PAHU?$CompareDesc@PBM@@@std@@YAXPAH00U?$CompareDesc@PBM@@@Z
	??$?RH@?$CompareDesc@PBM@@QAE_NHH@Z
	??$iter_swap@PAHPAH@std@@YAXPAH0@Z
	??$?0AAPAHAAPAHX@?$pair@PAHPAH@std@@QAE@AAPAH0@Z
	??$_Dist_type@PAH@std@@YAPAHPAH@Z
	??$_Val_type@PAH@std@@YAPAHPAH@Z
	??$_Make_heap@PAHHHU?$CompareDesc@PBM@@@std@@YAXPAH0U?$CompareDesc@PBM@@00@Z
	??$_Sort_heap@PAHU?$CompareDesc@PBM@@@std@@YAXPAH0U?$CompareDesc@PBM@@@Z
	??$_Insertion_sort1@PAHU?$CompareDesc@PBM@@H@std@@YAXPAH0U?$CompareDesc@PBM@@0@Z
	??$_Median@PAHU?$CompareAsc@PBM@@@std@@YAXPAH00U?$CompareAsc@PBM@@@Z
	??$?RH@?$CompareAsc@PBM@@QAE_NHH@Z
	??$_Make_heap@PAHHHU?$CompareAsc@PBM@@@std@@YAXPAH0U?$CompareAsc@PBM@@00@Z
	??$_Sort_heap@PAHU?$CompareAsc@PBM@@@std@@YAXPAH0U?$CompareAsc@PBM@@@Z
	??$_Insertion_sort1@PAHU?$CompareAsc@PBM@@H@std@@YAXPAH0U?$CompareAsc@PBM@@0@Z
	??$_Med3@PAHU?$CompareDesc@PBM@@@std@@YAXPAH00U?$CompareDesc@PBM@@@Z
	??$forward@AAPAH@std@@YAAAPAHAAPAH@Z
	??$_Adjust_heap@PAHHHU?$CompareDesc@PBM@@@std@@YAXPAHHH$$QAHU?$CompareDesc@PBM@@@Z
	??$_Pop_heap@PAHU?$CompareDesc@PBM@@@std@@YAXPAH0U?$CompareDesc@PBM@@@Z
	??$_Move_backward@PAHPAH@std@@YAPAHPAH00@Z
	??$_Med3@PAHU?$CompareAsc@PBM@@@std@@YAXPAH00U?$CompareAsc@PBM@@@Z
	??$_Adjust_heap@PAHHHU?$CompareAsc@PBM@@@std@@YAXPAHHH$$QAHU?$CompareAsc@PBM@@@Z
	??$_Pop_heap@PAHU?$CompareAsc@PBM@@@std@@YAXPAH0U?$CompareAsc@PBM@@@Z
	??$_Push_heap@PAHHHU?$CompareDesc@PBM@@@std@@YAXPAHHH$$QAHU?$CompareDesc@PBM@@@Z
	??$_Pop_heap_0@PAHHU?$CompareDesc@PBM@@@std@@YAXPAH0U?$CompareDesc@PBM@@0@Z
	??$_Ptr_cat@HH@std@@YA?AU_Scalar_ptr_iterator_tag@0@PAH0@Z
	??$_Move_backward@PAHPAH@std@@YAPAHPAH00U_Scalar_ptr_iterator_tag@0@@Z
	??$_Push_heap@PAHHHU?$CompareAsc@PBM@@@std@@YAXPAHHH$$QAHU?$CompareAsc@PBM@@@Z
	??$_Pop_heap_0@PAHHU?$CompareAsc@PBM@@@std@@YAXPAH0U?$CompareAsc@PBM@@0@Z
	??$_Pop_heap@PAHHHU?$CompareDesc@PBM@@@std@@YAXPAH00$$QAHU?$CompareDesc@PBM@@0@Z
	??$_Pop_heap@PAHHHU?$CompareAsc@PBM@@@std@@YAXPAH00$$QAHU?$CompareAsc@PBM@@0@Z
	?Transform@EdbTrack2D@@W3AEXPBVEdbAffine2D@@@Z
	?Test@EdbTrack2D@@W3BEXXZ
	?Print@EdbTrack2D@@W3BEXPBD@Z
	?IsA@EdbTrack2D@@W3BEPAVTClass@@XZ
	?ShowMembers@EdbTrack2D@@W3AEXAAVTMemberInspector@@@Z
	?Streamer@EdbTrack2D@@W3AEXAAVTBuffer@@@Z
	?IsA@EdbSegP@@WM@BEPAVTClass@@XZ
	?ShowMembers@EdbSegP@@WM@AEXAAVTMemberInspector@@@Z
	?Streamer@EdbSegP@@WM@AEXAAVTBuffer@@@Z
	?Print@EdbSegP@@WM@BEXPBD@Z
	?Print@EdbSegP@@WBA@BEXPBD@Z
	?IsA@EdbSegP@@WBA@BEPAVTClass@@XZ
	?ShowMembers@EdbSegP@@WBA@AEXAAVTMemberInspector@@@Z
	?Streamer@EdbSegP@@WBA@AEXAAVTBuffer@@@Z
	?_Generic_object@?$_Error_objects@H@std@@2V_Generic_error_category@2@A 	 DATA
	?_Iostream_object@?$_Error_objects@H@std@@2V_Iostream_error_category@2@A 	 DATA
	?_System_object@?$_Error_objects@H@std@@2V_System_error_category@2@A 	 DATA
	?id@?$num_put@DV?$back_insert_iterator@V?$basic_string@DU?$char_traits@D@std@@V?$allocator@D@2@@std@@@std@@@std@@2V0locale@2@A 	 DATA
	?id@?$num_put@_WV?$back_insert_iterator@V?$basic_string@_WU?$char_traits@_W@std@@V?$allocator@_W@2@@std@@@std@@@std@@2V0locale@2@A 	 DATA
	??_R0?AVTObject@@@8 	 DATA
	??_R0?AVEdbMask@@@8 	 DATA
	??_R0?AVEdbPattern@@@8 	 DATA
	??_R0?AVEdbSegP@@@8 	 DATA
	??_R0?AVTClonesArray@@@8 	 DATA
	??_R0?AVEdbID@@@8 	 DATA
	??_R0?AVEdbLayer@@@8 	 DATA
	??_R0?AVEdbPeak2@@@8 	 DATA
	??_R0H@8 	 DATA
	??_R0M@8 	 DATA
	??_R0?AVerror_category@std@@@8 	 DATA
	??_R0?AV_Generic_error_category@std@@@8 	 DATA
	??_R0?AV_Iostream_error_category@std@@@8 	 DATA
	??_R0?AV_System_error_category@std@@@8 	 DATA
	??_R0?AVTNamed@@@8 	 DATA
	??_R0?AVTCollection@@@8 	 DATA
	??_R0?AVTList@@@8 	 DATA
	??_R0?AVTSeqCollection@@@8 	 DATA
	??_R0?AVTDatime@@@8 	 DATA
	??_R0?AVTSortedList@@@8 	 DATA
	??_R0?AVEdbAffine2D@@@8 	 DATA
	??_R0?AVEdbPoint@@@8 	 DATA
	??_R0?AVEdbPoint2D@@@8 	 DATA
	??_R0?AVEdbAngle2D@@@8 	 DATA
	??_R0?AVEdbTrack2D@@@8 	 DATA
	??_R0?AVTIndexCell@@@8 	 DATA
	??_R0?AVEdbScanSet@@@8 	 DATA
	??_R0?AVEdbBrickP@@@8 	 DATA
	??_R0?AVEdbScanProc@@@8 	 DATA
	??_R0?AVEdbRunTracking@@@8 	 DATA
	??_R0?AVEdbRunAccess@@@8 	 DATA
	??_R0?AVEdbLinking@@@8 	 DATA
	??_R0?AVEdbAlignmentV@@@8 	 DATA
	hypot
	??2@YAPAXIPAX@Z
	??3@YAXPAX0@Z
	?length@?$char_traits@D@std@@SAIPBD@Z
	?copy@?$char_traits@D@std@@SAPADPADPBDI@Z
	?move@?$char_traits@D@std@@SAPADPADPBDI@Z
	?assign@?$char_traits@D@std@@SAXAADABD@Z
	??0?$allocator@D@std@@QAE@XZ
	?deallocate@?$allocator@D@std@@QAEXPADI@Z
	?allocate@?$allocator@D@std@@QAEPADI@Z
	?max_size@?$allocator@D@std@@QBEIXZ
	?max_size@?$allocator_traits@V?$allocator@D@std@@@std@@SAIABV?$allocator@D@2@@Z
	??0?$_Wrap_alloc@V?$allocator@D@std@@@std@@QAE@XZ
	?allocate@?$_Wrap_alloc@V?$allocator@D@std@@@std@@QAEPADI@Z
	?deallocate@?$_Wrap_alloc@V?$allocator@D@std@@@std@@QAEXPADI@Z
	?max_size@?$_Wrap_alloc@V?$allocator@D@std@@@std@@QBEIXZ
	??0?$_String_val@U?$_Simple_types@D@std@@@std@@QAE@XZ
	?_Myptr@?$_String_val@U?$_Simple_types@D@std@@@std@@QAEPADXZ
	?_Myptr@?$_String_val@U?$_Simple_types@D@std@@@std@@QBEPBDXZ
	??0?$_String_alloc@$0A@U?$_String_base_types@DV?$allocator@D@std@@@std@@@std@@QAE@ABV?$allocator@D@1@@Z
	?_Getal@?$_String_alloc@$0A@U?$_String_base_types@DV?$allocator@D@std@@@std@@@std@@QBE?AU?$_Wrap_alloc@V?$allocator@D@std@@@2@XZ
	??0?$basic_string@DU?$char_traits@D@std@@V?$allocator@D@2@@std@@QAE@PBD@Z
	??1?$basic_string@DU?$char_traits@D@std@@V?$allocator@D@2@@std@@QAE@XZ
	?assign@?$basic_string@DU?$char_traits@D@std@@V?$allocator@D@2@@std@@QAEAAV12@ABV12@II@Z
	?assign@?$basic_string@DU?$char_traits@D@std@@V?$allocator@D@2@@std@@QAEAAV12@PBDI@Z
	?assign@?$basic_string@DU?$char_traits@D@std@@V?$allocator@D@2@@std@@QAEAAV12@PBD@Z
	?erase@?$basic_string@DU?$char_traits@D@std@@V?$allocator@D@2@@std@@QAEAAV12@I@Z
	?erase@?$basic_string@DU?$char_traits@D@std@@V?$allocator@D@2@@std@@QAEAAV12@II@Z
	?size@?$basic_string@DU?$char_traits@D@std@@V?$allocator@D@2@@std@@QBEIXZ
	?max_size@?$basic_string@DU?$char_traits@D@std@@V?$allocator@D@2@@std@@QBEIXZ
	?_Copy@?$basic_string@DU?$char_traits@D@std@@V?$allocator@D@2@@std@@QAEXII@Z
	?_Eos@?$basic_string@DU?$char_traits@D@std@@V?$allocator@D@2@@std@@QAEXI@Z
	?_Grow@?$basic_string@DU?$char_traits@D@std@@V?$allocator@D@2@@std@@QAE_NI_N@Z
	?_Inside@?$basic_string@DU?$char_traits@D@std@@V?$allocator@D@2@@std@@QAE_NPBD@Z
	?_Tidy@?$basic_string@DU?$char_traits@D@std@@V?$allocator@D@2@@std@@QAEX_NI@Z
	?_Xlen@?$basic_string@DU?$char_traits@D@std@@V?$allocator@D@2@@std@@QBEXXZ
	?_Xran@?$basic_string@DU?$char_traits@D@std@@V?$allocator@D@2@@std@@QBEXXZ
	?generic_category@std@@YAABVerror_category@1@XZ
	?system_category@std@@YAABVerror_category@1@XZ
	??0error_category@std@@QAE@XZ
	??1error_category@std@@UAE@XZ
	?default_error_condition@error_category@std@@UBE?AVerror_condition@2@H@Z
	?equivalent@error_category@std@@UBE_NHABVerror_condition@2@@Z
	?equivalent@error_category@std@@UBE_NABVerror_code@2@H@Z
	??8error_category@std@@QBE_NABV01@@Z
	?value@error_code@std@@QBEHXZ
	?category@error_code@std@@QBEABVerror_category@2@XZ
	??0error_condition@std@@QAE@HABVerror_category@1@@Z
	?value@error_condition@std@@QBEHXZ
	?category@error_condition@std@@QBEABVerror_category@2@XZ
	??8error_condition@std@@QBE_NABV01@@Z
	??0_Generic_error_category@std@@QAE@XZ
	?name@_Generic_error_category@std@@UBEPBDXZ
	?message@_Generic_error_category@std@@UBE?AV?$basic_string@DU?$char_traits@D@std@@V?$allocator@D@2@@2@H@Z
	??1_Generic_error_category@std@@UAE@XZ
	??0_Iostream_error_category@std@@QAE@XZ
	?name@_Iostream_error_category@std@@UBEPBDXZ
	?message@_Iostream_error_category@std@@UBE?AV?$basic_string@DU?$char_traits@D@std@@V?$allocator@D@2@@2@H@Z
	??1_Iostream_error_category@std@@UAE@XZ
	??0_System_error_category@std@@QAE@XZ
	?name@_System_error_category@std@@UBEPBDXZ
	?message@_System_error_category@std@@UBE?AV?$basic_string@DU?$char_traits@D@std@@V?$allocator@D@2@@2@H@Z
	?default_error_condition@_System_error_category@std@@UBE?AVerror_condition@2@H@Z
	??1_System_error_category@std@@UAE@XZ
	?SetLinkDef@EdbProcPars@@SAXAAVTEnv@@@Z
	?SetAlignDef@EdbProcPars@@SAXAAVTEnv@@@Z
	?SetTrackDef@EdbProcPars@@SAXAAVTEnv@@@Z
	??$construct@PADAAPAD@?$_Wrap_alloc@V?$allocator@D@std@@@std@@QAEXPAPADAAPAD@Z
	??$destroy@PAD@?$_Wrap_alloc@V?$allocator@D@std@@@std@@QAEXPAPAD@Z
	??$addressof@D@std@@YAPADAAD@Z
	??$_Allocate@D@std@@YAPADIPAD@Z
	??$forward@AAPAD@std@@YAAAPADAAPAD@Z
	??$construct@PADAAPAD@?$allocator_traits@V?$allocator@D@std@@@std@@SAXAAV?$allocator@D@1@PAPADAAPAD@Z
	??$destroy@PAD@?$allocator_traits@V?$allocator@D@std@@@std@@SAXAAV?$allocator@D@1@PAPAD@Z
	??$construct@PADAAPAD@?$allocator@D@std@@QAEXPAPADAAPAD@Z
	??$destroy@PAD@?$allocator@D@std@@QAEXPAPAD@Z
	?_Generic_object@?$_Error_objects@H@std@@2V_Generic_error_category@2@A 	 DATA
	?_Iostream_object@?$_Error_objects@H@std@@2V_Iostream_error_category@2@A 	 DATA
	?_System_object@?$_Error_objects@H@std@@2V_System_error_category@2@A 	 DATA
	?id@?$num_put@DV?$back_insert_iterator@V?$basic_string@DU?$char_traits@D@std@@V?$allocator@D@2@@std@@@std@@@std@@2V0locale@2@A 	 DATA
	?id@?$num_put@_WV?$back_insert_iterator@V?$basic_string@_WU?$char_traits@_W@std@@V?$allocator@_W@2@@std@@@std@@@std@@2V0locale@2@A 	 DATA
	??_R0?AVerror_category@std@@@8 	 DATA
	??_R0?AV_Generic_error_category@std@@@8 	 DATA
	??_R0?AV_Iostream_error_category@std@@@8 	 DATA
	??_R0?AV_System_error_category@std@@@8 	 DATA
	hypot
	fabsf
	?abs@@YAMM@Z
	??2@YAPAXIPAX@Z
	??3@YAXPAX0@Z
	?length@?$char_traits@D@std@@SAIPBD@Z
	?copy@?$char_traits@D@std@@SAPADPADPBDI@Z
	?move@?$char_traits@D@std@@SAPADPADPBDI@Z
	?assign@?$char_traits@D@std@@SAXAADABD@Z
	??0?$allocator@D@std@@QAE@XZ
	?deallocate@?$allocator@D@std@@QAEXPADI@Z
	?allocate@?$allocator@D@std@@QAEPADI@Z
	?max_size@?$allocator@D@std@@QBEIXZ
	?max_size@?$allocator_traits@V?$allocator@D@std@@@std@@SAIABV?$allocator@D@2@@Z
	??0?$_Wrap_alloc@V?$allocator@D@std@@@std@@QAE@XZ
	?allocate@?$_Wrap_alloc@V?$allocator@D@std@@@std@@QAEPADI@Z
	?deallocate@?$_Wrap_alloc@V?$allocator@D@std@@@std@@QAEXPADI@Z
	?max_size@?$_Wrap_alloc@V?$allocator@D@std@@@std@@QBEIXZ
	??0?$_String_val@U?$_Simple_types@D@std@@@std@@QAE@XZ
	?_Myptr@?$_String_val@U?$_Simple_types@D@std@@@std@@QAEPADXZ
	?_Myptr@?$_String_val@U?$_Simple_types@D@std@@@std@@QBEPBDXZ
	??0?$_String_alloc@$0A@U?$_String_base_types@DV?$allocator@D@std@@@std@@@std@@QAE@ABV?$allocator@D@1@@Z
	?_Getal@?$_String_alloc@$0A@U?$_String_base_types@DV?$allocator@D@std@@@std@@@std@@QBE?AU?$_Wrap_alloc@V?$allocator@D@std@@@2@XZ
	??0?$basic_string@DU?$char_traits@D@std@@V?$allocator@D@2@@std@@QAE@PBD@Z
	??1?$basic_string@DU?$char_traits@D@std@@V?$allocator@D@2@@std@@QAE@XZ
	?assign@?$basic_string@DU?$char_traits@D@std@@V?$allocator@D@2@@std@@QAEAAV12@ABV12@II@Z
	?assign@?$basic_string@DU?$char_traits@D@std@@V?$allocator@D@2@@std@@QAEAAV12@PBDI@Z
	?assign@?$basic_string@DU?$char_traits@D@std@@V?$allocator@D@2@@std@@QAEAAV12@PBD@Z
	?erase@?$basic_string@DU?$char_traits@D@std@@V?$allocator@D@2@@std@@QAEAAV12@I@Z
	?erase@?$basic_string@DU?$char_traits@D@std@@V?$allocator@D@2@@std@@QAEAAV12@II@Z
	?size@?$basic_string@DU?$char_traits@D@std@@V?$allocator@D@2@@std@@QBEIXZ
	?max_size@?$basic_string@DU?$char_traits@D@std@@V?$allocator@D@2@@std@@QBEIXZ
	?_Copy@?$basic_string@DU?$char_traits@D@std@@V?$allocator@D@2@@std@@QAEXII@Z
	?_Eos@?$basic_string@DU?$char_traits@D@std@@V?$allocator@D@2@@std@@QAEXI@Z
	?_Grow@?$basic_string@DU?$char_traits@D@std@@V?$allocator@D@2@@std@@QAE_NI_N@Z
	?_Inside@?$basic_string@DU?$char_traits@D@std@@V?$allocator@D@2@@std@@QAE_NPBD@Z
	?_Tidy@?$basic_string@DU?$char_traits@D@std@@V?$allocator@D@2@@std@@QAEX_NI@Z
	?_Xlen@?$basic_string@DU?$char_traits@D@std@@V?$allocator@D@2@@std@@QBEXXZ
	?_Xran@?$basic_string@DU?$char_traits@D@std@@V?$allocator@D@2@@std@@QBEXXZ
	?generic_category@std@@YAABVerror_category@1@XZ
	?system_category@std@@YAABVerror_category@1@XZ
	??0error_category@std@@QAE@XZ
	??1error_category@std@@UAE@XZ
	?default_error_condition@error_category@std@@UBE?AVerror_condition@2@H@Z
	?equivalent@error_category@std@@UBE_NHABVerror_condition@2@@Z
	?equivalent@error_category@std@@UBE_NABVerror_code@2@H@Z
	??8error_category@std@@QBE_NABV01@@Z
	?value@error_code@std@@QBEHXZ
	?category@error_code@std@@QBEABVerror_category@2@XZ
	??0error_condition@std@@QAE@HABVerror_category@1@@Z
	?value@error_condition@std@@QBEHXZ
	?category@error_condition@std@@QBEABVerror_category@2@XZ
	??8error_condition@std@@QBE_NABV01@@Z
	??0_Generic_error_category@std@@QAE@XZ
	?name@_Generic_error_category@std@@UBEPBDXZ
	?message@_Generic_error_category@std@@UBE?AV?$basic_string@DU?$char_traits@D@std@@V?$allocator@D@2@@2@H@Z
	??1_Generic_error_category@std@@UAE@XZ
	??0_Iostream_error_category@std@@QAE@XZ
	?name@_Iostream_error_category@std@@UBEPBDXZ
	?message@_Iostream_error_category@std@@UBE?AV?$basic_string@DU?$char_traits@D@std@@V?$allocator@D@2@@2@H@Z
	??1_Iostream_error_category@std@@UAE@XZ
	??0_System_error_category@std@@QAE@XZ
	?name@_System_error_category@std@@UBEPBDXZ
	?message@_System_error_category@std@@UBE?AV?$basic_string@DU?$char_traits@D@std@@V?$allocator@D@2@@2@H@Z
	?default_error_condition@_System_error_category@std@@UBE?AVerror_condition@2@H@Z
	??1_System_error_category@std@@UAE@XZ
	?Clear@TObject@@UAEXPBD@Z
	?GetOption@TObject@@UBEPBDXZ
	?IsSortable@TObject@@UBE_NXZ
	??2TObject@@SAPAXI@Z
	?Abs@TMath@@YAHH@Z
	?Abs@TMath@@YAMM@Z
	?Min@TMath@@YAMMM@Z
	?IsLong@TString@@ABE_NXZ
	?GetLongPointer@TString@@ABEPBDXZ
	?GetShortPointer@TString@@ABEPBDXZ
	?GetPointer@TString@@ABEPBDXZ
	??BTString@@QBEPBDXZ
	??1TNamed@@UAE@XZ
	?GetName@TNamed@@UBEPBDXZ
	?GetTitle@TNamed@@UBEPBDXZ
	?Hash@TNamed@@UBEKXZ
	?IsSortable@TNamed@@UBE_NXZ
	?IsA@TNamed@@UBEPAVTClass@@XZ
	??0TCollection@@IAE@XZ
	??1TCollection@@UAE@XZ
	?GetEntries@TCollection@@UBEHXZ
	?GetSize@TCollection@@UBEHXZ
	?Hash@TCollection@@UBEKXZ
	?IsEmpty@TCollection@@UBE_NXZ
	?IsFolder@TCollection@@UBE_NXZ
	?IsSortable@TCollection@@UBE_NXZ
	?MakeReverseIterator@TCollection@@UBEPAVTIterator@@XZ
	?IsA@TCollection@@UBEPAVTClass@@XZ
	??0TSeqCollection@@IAE@XZ
	?Changed@TSeqCollection@@MAEXXZ
	??1TSeqCollection@@UAE@XZ
	?Add@TSeqCollection@@UAEXPAVTObject@@@Z
	?RemoveFirst@TSeqCollection@@UAEXXZ
	?RemoveLast@TSeqCollection@@UAEXXZ
	?RemoveAt@TSeqCollection@@UAEPAVTObject@@H@Z
	?RemoveAfter@TSeqCollection@@UAEXPAVTObject@@@Z
	?RemoveBefore@TSeqCollection@@UAEXPAVTObject@@@Z
	?IsSorted@TSeqCollection@@UBE_NXZ
	?IsA@TSeqCollection@@UBEPAVTClass@@XZ
	?BoundsOk@TObjArray@@IBE_NPBDH@Z
	?GetEntriesFast@TObjArray@@QBEHXZ
	?Add@TObjArray@@UAEXPAVTObject@@@Z
	?At@TObjArray@@UBEPAVTObject@@H@Z
	?UncheckedAt@TObjArray@@QBEPAVTObject@@H@Z
	??0_Ignore@std@@QAE@XZ
	??0TList@@QAE@XZ
	?Add@TList@@UAEXPAVTObject@@@Z
	?Add@TList@@UAEXPAVTObject@@PBD@Z
	?FirstLink@TList@@UBEPAVTObjLink@@XZ
	?LastLink@TList@@UBEPAVTObjLink@@XZ
	?IsA@TList@@UBEPAVTClass@@XZ
	??0TDatime@@QAE@I_N@Z
	??1TDatime@@UAE@XZ
	?IsA@TDatime@@UBEPAVTClass@@XZ
	??0EdbAffine2D@@QAE@XZ
	??1EdbAffine2D@@UAE@XZ
	?ShiftX@EdbAffine2D@@QAEXM@Z
	?ShiftY@EdbAffine2D@@QAEXM@Z
	?IsA@EdbAffine2D@@UBEPAVTClass@@XZ
	??1EdbPoint@@UAE@XZ
	?Transform@EdbPoint@@UAEXPBVEdbAffine2D@@@Z
	?Transform@EdbPoint@@UAEXPBVEdbAffine3D@@@Z
	?Test@EdbPoint@@UBEXXZ
	?IsA@EdbPoint@@UBEPAVTClass@@XZ
	??0EdbPoint@@QAE@XZ
	??1EdbAngle2D@@UAE@XZ
	?Test@EdbAngle2D@@UBEXXZ
	?IsA@EdbAngle2D@@UBEPAVTClass@@XZ
	??0EdbAngle2D@@QAE@XZ
	??1EdbPoint2D@@UAE@XZ
	?Z@EdbPoint2D@@UBEMXZ
	?SetZ@EdbPoint2D@@UAEXM@Z
	?Test@EdbPoint2D@@UBEXXZ
	?TestPoint2D@EdbPoint2D@@UBEXXZ
	?IsA@EdbPoint2D@@UBEPAVTClass@@XZ
	??0EdbPoint2D@@QAE@XZ
	??1EdbTrack2D@@UAE@XZ
	?Test@EdbTrack2D@@UBEXXZ
	?IsA@EdbTrack2D@@UBEPAVTClass@@XZ
	??0EdbTrack2D@@QAE@XZ
	?Pi@TMath@@YANXZ
	?PiOver2@TMath@@YANXZ
	?ATan@TMath@@YANN@Z
	?Sqrt@TMath@@YANN@Z
	??0TSortedList@@QAE@_N@Z
	?IsSorted@TSortedList@@UBE_NXZ
	?AddFirst@TSortedList@@UAEXPAVTObject@@@Z
	?AddFirst@TSortedList@@UAEXPAVTObject@@PBD@Z
	?AddLast@TSortedList@@UAEXPAVTObject@@@Z
	?AddLast@TSortedList@@UAEXPAVTObject@@PBD@Z
	?AddAt@TSortedList@@UAEXPAVTObject@@H@Z
	?AddAfter@TSortedList@@UAEXPBVTObject@@PAV2@@Z
	?AddAfter@TSortedList@@UAEXPAVTObjLink@@PAVTObject@@@Z
	?AddBefore@TSortedList@@UAEXPBVTObject@@PAV2@@Z
	?AddBefore@TSortedList@@UAEXPAVTObjLink@@PAVTObject@@@Z
	?Sort@TSortedList@@UAEX_N@Z
	?IsA@TSortedList@@UBEPAVTClass@@XZ
	??1TSortedList@@UAE@XZ
	??0EdbID@@QAE@HHHH@Z
	??1EdbID@@UAE@XZ
	?Set@EdbID@@QAEXHHHH@Z
	?IsA@EdbID@@UBEPAVTClass@@XZ
	??0EdbID@@QAE@ABV0@@Z
	??0EdbSegP@@QAE@XZ
	??0EdbSegP@@QAE@ABV0@@Z
	??1EdbSegP@@UAE@XZ
	?SetErrors@EdbSegP@@QAEXXZ
	?COV@EdbSegP@@QBEAAV?$TMatrixT@N@@XZ
	?SetZ@EdbSegP@@UAEXM@Z
	?SetID@EdbSegP@@QAEXH@Z
	?SetFlag@EdbSegP@@QAEXH@Z
	?SetTrack@EdbSegP@@QAEXH@Z
	?SetP@EdbSegP@@QAEXM@Z
	?SetProb@EdbSegP@@QAEXM@Z
	?ID@EdbSegP@@QBEHXZ
	?PID@EdbSegP@@QBEHXZ
	?Flag@EdbSegP@@QBEHXZ
	?W@EdbSegP@@QBEMXZ
	?Z@EdbSegP@@UBEMXZ
	?Prob@EdbSegP@@QBEMXZ
	?Chi2@EdbSegP@@QBEMXZ
	?X@EdbSegP@@UBEMXZ
	?Y@EdbSegP@@UBEMXZ
	?TX@EdbSegP@@UBEMXZ
	?TY@EdbSegP@@UBEMXZ
	?SetX@EdbSegP@@UAEXM@Z
	?SetY@EdbSegP@@UAEXM@Z
	?SetTX@EdbSegP@@UAEXM@Z
	?SetTY@EdbSegP@@UAEXM@Z
	?Theta@EdbSegP@@QBEMXZ
	?IsSortable@EdbSegP@@UBE_NXZ
	?IsA@EdbSegP@@UBEPAVTClass@@XZ
	?SetZ@EdbSegmentsBox@@UAEXM@Z
	?GetN@EdbSegmentsBox@@QBEHXZ
	?GetSegment@EdbSegmentsBox@@QBEPAVEdbSegP@@H@Z
	?Z@EdbSegmentsBox@@UBEMXZ
	?N@EdbSegmentsBox@@UBEHXZ
	?SetCounters@EdbTrackP@@QAEXXZ
	?SetN0@EdbTrackP@@QAEXXZ
	?SetNpl@EdbTrackP@@QAEXXZ
	?N@EdbTrackP@@QBEHXZ
	?GetSegmentFirst@EdbTrackP@@QBEPAVEdbSegP@@XZ
	?GetSegmentLast@EdbTrackP@@QBEPAVEdbSegP@@XZ
	?GetSegment@EdbTrackP@@QBEPAVEdbSegP@@H@Z
	?GetSegmentF@EdbTrackP@@QBEPAVEdbSegP@@H@Z
	?AddSegment@EdbTrackP@@QAEXPAVEdbSegP@@@Z
	?SubstituteSegment@EdbTrackP@@QAEXPAVEdbSegP@@0@Z
	?SetSegmentsTrack@EdbTrackP@@QAEHH@Z
	?SetSegmentsTrack@EdbTrackP@@QAEHXZ
	?SetID@EdbPattern@@QAEXH@Z
	?SetPID@EdbPattern@@QAEXH@Z
	?Npatterns@EdbPatternsVolume@@QBEHXZ
	??0TIndexCell@@QAE@XZ
	?At@TIndexCell@@QBEPAV1@H@Z
	?Value@TIndexCell@@QBEJXZ
	?GetEntriesFast@TIndexCell@@QBEHXZ
	?Hash@TIndexCell@@UBEKXZ
	?IsEqual@TIndexCell@@UBE_NPBVTObject@@@Z
	?IsSortable@TIndexCell@@UBE_NXZ
	?Compare@TIndexCell@@UBEHPBVTObject@@@Z
	?IsA@TIndexCell@@UBEPAVTClass@@XZ
	?IX@EdbH2@@QBEHM@Z
	?IY@EdbH2@@QBEHM@Z
	?Xbin@EdbH2@@QBEMXZ
	?Ybin@EdbH2@@QBEMXZ
	?SelectObjectsC@EdbCell2@@QAEHQAMQAHAAVTObjArray@@@Z
	?SelectObjectsC@EdbCell2@@QAEHQAMMAAVTObjArray@@@Z
	?Z@EdbLayer@@QBEMXZ
	?Shr@EdbLayer@@QBEMXZ
	?GetAffineXY@EdbLayer@@QAEPAVEdbAffine2D@@XZ
	?GetAffineTXTY@EdbLayer@@QAEPAVEdbAffine2D@@XZ
	??1EdbScanCond@@UAE@XZ
	?SetRadX0@EdbScanCond@@QAEXM@Z
	?SetSigma0@EdbScanCond@@QAEXMMMM@Z
	?SetDegrad@EdbScanCond@@QAEXM@Z
	?SetPulsRamp0@EdbScanCond@@QAEXMM@Z
	?SetPulsRamp04@EdbScanCond@@QAEXMM@Z
	?GetPlate@EdbBrickP@@QAEPAVEdbPlateP@@H@Z
	?GetID@EdbScanSet@@QAEPAVEdbID@@H@Z
	?GetPlate@EdbScanSet@@QAEPAVEdbPlateP@@H@Z
	??1EdbTrackFitter@@UAE@XZ
	??0EdbTrackAssembler@@QAE@XZ
	??1EdbTrackAssembler@@UAE@XZ
	?SetMomentum@EdbTrackAssembler@@QAEXM@Z
	?SetRadLength@EdbTrackAssembler@@QAEXM@Z
	?SameSegment@EdbTrackAssembler@@QAE_NAAVEdbSegP@@0@Z
	?DoubletsFilterOut@EdbTrackAssembler@@QAEXAAVEdbPattern@@@Z
	?InitTrZMap@EdbTrackAssembler@@QAEXPBD@Z
	?InitTrZMap@EdbTrackAssembler@@QAEXHMMHMMH@Z
	?InitTrZMap@EdbTrackAssembler@@QAEXXZ
	?FillTrZMap@EdbTrackAssembler@@QAEXXZ
	?ExtrapolateTracksToZ@EdbTrackAssembler@@QAEXMH@Z
	?AddPattern@EdbTrackAssembler@@QAEXAAVEdbPattern@@@Z
	?AddSegment@EdbTrackAssembler@@QAEPAVEdbTrackP@@AAVEdbSegP@@@Z
	?AddSegmentAsTrack@EdbTrackAssembler@@QAEPAVEdbTrackP@@AAVEdbSegP@@@Z
	?ProbSeg@EdbTrackAssembler@@QAEMAAVEdbSegP@@0@Z
	?RecalculateSegmentsProb@EdbTrackAssembler@@QAEXAAVEdbTrackP@@@Z
	?AcceptDZGap@EdbTrackAssembler@@QAE_NAAVEdbTrackP@@M@Z
	?SetSegmentsErrors@EdbTrackAssembler@@QAEXXZ
	?FitTracks@EdbTrackAssembler@@QAEXXZ
	?CombTracks@EdbTrackAssembler@@QAEXAAVTObjArray@@@Z
	?CheckPatternAlignment@EdbTrackAssembler@@QAEXAAVEdbPattern@@H@Z
	?Tracks@EdbTrackAssembler@@QAEAAVTObjArray@@XZ
	?IsA@EdbTrackAssembler@@UBEPAVTClass@@XZ
	??0EdbScanTracking@@QAE@XZ
	??1EdbScanTracking@@UAE@XZ
	?TrackAli@EdbScanTracking@@QAEXAAVEdbPVRec@@AAVTEnv@@@Z
	?TrackSetBT@EdbScanTracking@@QAEXVEdbID@@AAVTEnv@@@Z
	?SaveHist@EdbScanTracking@@QAEXVEdbID@@AAVEdbTrackAssembler@@@Z
	?IsA@EdbScanTracking@@UBEPAVTClass@@XZ
	?SetSigma@EdbPlateAlignment@@QAEXMM@Z
	?IsBatch@TROOT@@QBE_NXZ
	?SetBatch@TROOT@@QAEX_N@Z
	??$construct@PADAAPAD@?$_Wrap_alloc@V?$allocator@D@std@@@std@@QAEXPAPADAAPAD@Z
	??$destroy@PAD@?$_Wrap_alloc@V?$allocator@D@std@@@std@@QAEXPAPAD@Z
	??$addressof@D@std@@YAPADAAD@Z
	??$_Allocate@D@std@@YAPADIPAD@Z
	??$forward@AAPAD@std@@YAAAPADAAPAD@Z
	??$construct@PADAAPAD@?$allocator_traits@V?$allocator@D@std@@@std@@SAXAAV?$allocator@D@1@PAPADAAPAD@Z
	??$destroy@PAD@?$allocator_traits@V?$allocator@D@std@@@std@@SAXAAV?$allocator@D@1@PAPAD@Z
	??$construct@PADAAPAD@?$allocator@D@std@@QAEXPAPADAAPAD@Z
	??$destroy@PAD@?$allocator@D@std@@QAEXPAPAD@Z
	?Transform@EdbTrack2D@@W3AEXPBVEdbAffine2D@@@Z
	?Test@EdbTrack2D@@W3BEXXZ
	?Print@EdbTrack2D@@W3BEXPBD@Z
	?IsA@EdbTrack2D@@W3BEPAVTClass@@XZ
	?ShowMembers@EdbTrack2D@@W3AEXAAVTMemberInspector@@@Z
	?Streamer@EdbTrack2D@@W3AEXAAVTBuffer@@@Z
	?IsA@EdbSegP@@WM@BEPAVTClass@@XZ
	?ShowMembers@EdbSegP@@WM@AEXAAVTMemberInspector@@@Z
	?Streamer@EdbSegP@@WM@AEXAAVTBuffer@@@Z
	?Print@EdbSegP@@WM@BEXPBD@Z
	?Print@EdbSegP@@WBA@BEXPBD@Z
	?IsA@EdbSegP@@WBA@BEPAVTClass@@XZ
	?ShowMembers@EdbSegP@@WBA@AEXAAVTMemberInspector@@@Z
	?Streamer@EdbSegP@@WBA@AEXAAVTBuffer@@@Z
	?_Generic_object@?$_Error_objects@H@std@@2V_Generic_error_category@2@A 	 DATA
	?_Iostream_object@?$_Error_objects@H@std@@2V_Iostream_error_category@2@A 	 DATA
	?_System_object@?$_Error_objects@H@std@@2V_System_error_category@2@A 	 DATA
	?id@?$num_put@DV?$back_insert_iterator@V?$basic_string@DU?$char_traits@D@std@@V?$allocator@D@2@@std@@@std@@@std@@2V0locale@2@A 	 DATA
	?id@?$num_put@_WV?$back_insert_iterator@V?$basic_string@_WU?$char_traits@_W@std@@V?$allocator@_W@2@@std@@@std@@@std@@2V0locale@2@A 	 DATA
	??_R0?AVTObject@@@8 	 DATA
	??_R0?AVEdbSegP@@@8 	 DATA
	??_R0?AVEdbTrackP@@@8 	 DATA
	??_R0?AVTNamed@@@8 	 DATA
	??_R0?AVTCollection@@@8 	 DATA
	??_R0?AVerror_category@std@@@8 	 DATA
	??_R0?AV_Generic_error_category@std@@@8 	 DATA
	??_R0?AV_Iostream_error_category@std@@@8 	 DATA
	??_R0?AV_System_error_category@std@@@8 	 DATA
	??_R0?AVTList@@@8 	 DATA
	??_R0?AVTSeqCollection@@@8 	 DATA
	??_R0?AVTDatime@@@8 	 DATA
	??_R0?AVEdbAffine2D@@@8 	 DATA
	??_R0?AVEdbPoint@@@8 	 DATA
	??_R0?AVEdbPoint2D@@@8 	 DATA
	??_R0?AVEdbAngle2D@@@8 	 DATA
	??_R0?AVEdbTrack2D@@@8 	 DATA
	??_R0?AVTSortedList@@@8 	 DATA
	??_R0?AVEdbID@@@8 	 DATA
	??_R0?AVTIndexCell@@@8 	 DATA
	??_R0?AVEdbTrackAssembler@@@8 	 DATA
	??_R0?AVEdbScanTracking@@@8 	 DATA
	hypot
	??2@YAPAXIPAX@Z
	??3@YAXPAX0@Z
	?length@?$char_traits@D@std@@SAIPBD@Z
	?copy@?$char_traits@D@std@@SAPADPADPBDI@Z
	?move@?$char_traits@D@std@@SAPADPADPBDI@Z
	?assign@?$char_traits@D@std@@SAXAADABD@Z
	??0?$allocator@D@std@@QAE@XZ
	?deallocate@?$allocator@D@std@@QAEXPADI@Z
	?allocate@?$allocator@D@std@@QAEPADI@Z
	?max_size@?$allocator@D@std@@QBEIXZ
	?max_size@?$allocator_traits@V?$allocator@D@std@@@std@@SAIABV?$allocator@D@2@@Z
	??0?$_Wrap_alloc@V?$allocator@D@std@@@std@@QAE@XZ
	?allocate@?$_Wrap_alloc@V?$allocator@D@std@@@std@@QAEPADI@Z
	?deallocate@?$_Wrap_alloc@V?$allocator@D@std@@@std@@QAEXPADI@Z
	?max_size@?$_Wrap_alloc@V?$allocator@D@std@@@std@@QBEIXZ
	??0?$_String_val@U?$_Simple_types@D@std@@@std@@QAE@XZ
	?_Myptr@?$_String_val@U?$_Simple_types@D@std@@@std@@QAEPADXZ
	?_Myptr@?$_String_val@U?$_Simple_types@D@std@@@std@@QBEPBDXZ
	??0?$_String_alloc@$0A@U?$_String_base_types@DV?$allocator@D@std@@@std@@@std@@QAE@ABV?$allocator@D@1@@Z
	?_Getal@?$_String_alloc@$0A@U?$_String_base_types@DV?$allocator@D@std@@@std@@@std@@QBE?AU?$_Wrap_alloc@V?$allocator@D@std@@@2@XZ
	??0?$basic_string@DU?$char_traits@D@std@@V?$allocator@D@2@@std@@QAE@PBD@Z
	??1?$basic_string@DU?$char_traits@D@std@@V?$allocator@D@2@@std@@QAE@XZ
	?assign@?$basic_string@DU?$char_traits@D@std@@V?$allocator@D@2@@std@@QAEAAV12@ABV12@II@Z
	?assign@?$basic_string@DU?$char_traits@D@std@@V?$allocator@D@2@@std@@QAEAAV12@PBDI@Z
	?assign@?$basic_string@DU?$char_traits@D@std@@V?$allocator@D@2@@std@@QAEAAV12@PBD@Z
	?erase@?$basic_string@DU?$char_traits@D@std@@V?$allocator@D@2@@std@@QAEAAV12@I@Z
	?erase@?$basic_string@DU?$char_traits@D@std@@V?$allocator@D@2@@std@@QAEAAV12@II@Z
	?size@?$basic_string@DU?$char_traits@D@std@@V?$allocator@D@2@@std@@QBEIXZ
	?max_size@?$basic_string@DU?$char_traits@D@std@@V?$allocator@D@2@@std@@QBEIXZ
	?_Copy@?$basic_string@DU?$char_traits@D@std@@V?$allocator@D@2@@std@@QAEXII@Z
	?_Eos@?$basic_string@DU?$char_traits@D@std@@V?$allocator@D@2@@std@@QAEXI@Z
	?_Grow@?$basic_string@DU?$char_traits@D@std@@V?$allocator@D@2@@std@@QAE_NI_N@Z
	?_Inside@?$basic_string@DU?$char_traits@D@std@@V?$allocator@D@2@@std@@QAE_NPBD@Z
	?_Tidy@?$basic_string@DU?$char_traits@D@std@@V?$allocator@D@2@@std@@QAEX_NI@Z
	?_Xlen@?$basic_string@DU?$char_traits@D@std@@V?$allocator@D@2@@std@@QBEXXZ
	?_Xran@?$basic_string@DU?$char_traits@D@std@@V?$allocator@D@2@@std@@QBEXXZ
	?generic_category@std@@YAABVerror_category@1@XZ
	?system_category@std@@YAABVerror_category@1@XZ
	??0error_category@std@@QAE@XZ
	??1error_category@std@@UAE@XZ
	?default_error_condition@error_category@std@@UBE?AVerror_condition@2@H@Z
	?equivalent@error_category@std@@UBE_NHABVerror_condition@2@@Z
	?equivalent@error_category@std@@UBE_NABVerror_code@2@H@Z
	??8error_category@std@@QBE_NABV01@@Z
	?value@error_code@std@@QBEHXZ
	?category@error_code@std@@QBEABVerror_category@2@XZ
	??0error_condition@std@@QAE@HABVerror_category@1@@Z
	?value@error_condition@std@@QBEHXZ
	?category@error_condition@std@@QBEABVerror_category@2@XZ
	??8error_condition@std@@QBE_NABV01@@Z
	??0_Generic_error_category@std@@QAE@XZ
	?name@_Generic_error_category@std@@UBEPBDXZ
	?message@_Generic_error_category@std@@UBE?AV?$basic_string@DU?$char_traits@D@std@@V?$allocator@D@2@@2@H@Z
	??1_Generic_error_category@std@@UAE@XZ
	??0_Iostream_error_category@std@@QAE@XZ
	?name@_Iostream_error_category@std@@UBEPBDXZ
	?message@_Iostream_error_category@std@@UBE?AV?$basic_string@DU?$char_traits@D@std@@V?$allocator@D@2@@2@H@Z
	??1_Iostream_error_category@std@@UAE@XZ
	??0_System_error_category@std@@QAE@XZ
	?name@_System_error_category@std@@UBEPBDXZ
	?message@_System_error_category@std@@UBE?AV?$basic_string@DU?$char_traits@D@std@@V?$allocator@D@2@@2@H@Z
	?default_error_condition@_System_error_category@std@@UBE?AVerror_condition@2@H@Z
	??1_System_error_category@std@@UAE@XZ
	??2TObject@@SAPAXI@Z
	?IsLong@TString@@ABE_NXZ
	?GetLongPointer@TString@@ABEPBDXZ
	?GetShortPointer@TString@@ABEPBDXZ
	?GetPointer@TString@@ABEPBDXZ
	??BTString@@QBEPBDXZ
	?Data@TString@@QBEPBDXZ
	??0TDatime@@QAE@I_N@Z
	??1TDatime@@UAE@XZ
	?IsA@TDatime@@UBEPAVTClass@@XZ
	??0_Ignore@std@@QAE@XZ
	?SetFlag@EdbRunHeader@@QAEXHH@Z
	?GetHeader@EdbRun@@QBEPAVEdbRunHeader@@XZ
	?MCEvt@EdbSegP@@QBEHXZ
	?ID@EdbSegP@@QBEHXZ
	?GetSegment@EdbSegmentsBox@@QBEPAVEdbSegP@@H@Z
	??0EdbScanClientBase@@QAE@XZ
	??1EdbScanClientBase@@UAE@XZ
	?IsA@EdbScanClientBase@@UBEPAVTClass@@XZ
	??0EdbScanClientCommon@@QAE@XZ
	??1EdbScanClientCommon@@UAE@XZ
	?CloseSocket@EdbScanClientCommon@@QAEXXZ
	?InitializeSocket@EdbScanClientCommon@@UAEHXZ
	?ScanPreloadAreaS@EdbScanClientCommon@@UAEHHHHHMMMMPBDMMMM@Z
	?AddRWC_@EdbScanClientCommon@@UAEHPAVEdbRun@@PADHPBD@Z
	?ShortBrick@EdbScanClientCommon@@UAEFH@Z
	?ConvertAreas@EdbScanClientCommon@@UAEHQAHAAVEdbPattern@@AAVEdbRun@@PBD@Z
	?IsA@EdbScanClientCommon@@UBEPAVTClass@@XZ
	??$construct@PADAAPAD@?$_Wrap_alloc@V?$allocator@D@std@@@std@@QAEXPAPADAAPAD@Z
	??$destroy@PAD@?$_Wrap_alloc@V?$allocator@D@std@@@std@@QAEXPAPAD@Z
	??$addressof@D@std@@YAPADAAD@Z
	??$_Allocate@D@std@@YAPADIPAD@Z
	??$forward@AAPAD@std@@YAAAPADAAPAD@Z
	??$construct@PADAAPAD@?$allocator_traits@V?$allocator@D@std@@@std@@SAXAAV?$allocator@D@1@PAPADAAPAD@Z
	??$destroy@PAD@?$allocator_traits@V?$allocator@D@std@@@std@@SAXAAV?$allocator@D@1@PAPAD@Z
	??$construct@PADAAPAD@?$allocator@D@std@@QAEXPAPADAAPAD@Z
	??$destroy@PAD@?$allocator@D@std@@QAEXPAPAD@Z
	?_Generic_object@?$_Error_objects@H@std@@2V_Generic_error_category@2@A 	 DATA
	?_Iostream_object@?$_Error_objects@H@std@@2V_Iostream_error_category@2@A 	 DATA
	?_System_object@?$_Error_objects@H@std@@2V_System_error_category@2@A 	 DATA
	?id@?$num_put@DV?$back_insert_iterator@V?$basic_string@DU?$char_traits@D@std@@V?$allocator@D@2@@std@@@std@@@std@@2V0locale@2@A 	 DATA
	?id@?$num_put@_WV?$back_insert_iterator@V?$basic_string@_WU?$char_traits@_W@std@@V?$allocator@_W@2@@std@@@std@@@std@@2V0locale@2@A 	 DATA
	??_R0?AVerror_category@std@@@8 	 DATA
	??_R0?AV_Generic_error_category@std@@@8 	 DATA
	??_R0?AV_Iostream_error_category@std@@@8 	 DATA
	??_R0?AV_System_error_category@std@@@8 	 DATA
	??_R0?AVTDatime@@@8 	 DATA
	??_R0?AVEdbScanClientBase@@@8 	 DATA
	??_R0?AVEdbScanClientCommon@@@8 	 DATA
	hypot
	??2@YAPAXIPAX@Z
	??3@YAXPAX0@Z
	?compare@?$char_traits@D@std@@SAHPBD0I@Z
	?length@?$char_traits@D@std@@SAIPBD@Z
	?copy@?$char_traits@D@std@@SAPADPADPBDI@Z
	?move@?$char_traits@D@std@@SAPADPADPBDI@Z
	?assign@?$char_traits@D@std@@SAXAADABD@Z
	?_Adopt@_Iterator_base0@std@@QAEXPBX@Z
	?_Fill_n@std@@YAPAEPAEIE@Z
	?select_on_container_copy_construction@?$allocator@D@std@@QBE?AV12@XZ
	??0?$allocator@D@std@@QAE@XZ
	??0?$allocator@D@std@@QAE@ABV01@@Z
	?deallocate@?$allocator@D@std@@QAEXPADI@Z
	?allocate@?$allocator@D@std@@QAEPADI@Z
	?max_size@?$allocator@D@std@@QBEIXZ
	?max_size@?$allocator_traits@V?$allocator@D@std@@@std@@SAIABV?$allocator@D@2@@Z
	?select_on_container_copy_construction@?$allocator_traits@V?$allocator@D@std@@@std@@SA?AV?$allocator@D@2@ABV32@@Z
	?select_on_container_copy_construction@?$_Wrap_alloc@V?$allocator@D@std@@@std@@QBE?AU12@XZ
	??0?$_Wrap_alloc@V?$allocator@D@std@@@std@@QAE@XZ
	??0?$_Wrap_alloc@V?$allocator@D@std@@@std@@QAE@ABV?$allocator@D@1@@Z
	?allocate@?$_Wrap_alloc@V?$allocator@D@std@@@std@@QAEPADI@Z
	?deallocate@?$_Wrap_alloc@V?$allocator@D@std@@@std@@QAEXPADI@Z
	?max_size@?$_Wrap_alloc@V?$allocator@D@std@@@std@@QBEIXZ
	??0?$_String_val@U?$_Simple_types@D@std@@@std@@QAE@XZ
	?_Myptr@?$_String_val@U?$_Simple_types@D@std@@@std@@QAEPADXZ
	?_Myptr@?$_String_val@U?$_Simple_types@D@std@@@std@@QBEPBDXZ
	??0?$_String_alloc@$0A@U?$_String_base_types@DV?$allocator@D@std@@@std@@@std@@QAE@ABV?$allocator@D@1@@Z
	?_Getal@?$_String_alloc@$0A@U?$_String_base_types@DV?$allocator@D@std@@@std@@@std@@QBE?AU?$_Wrap_alloc@V?$allocator@D@std@@@2@XZ
	??0?$basic_string@DU?$char_traits@D@std@@V?$allocator@D@2@@std@@QAE@ABV01@@Z
	??0?$basic_string@DU?$char_traits@D@std@@V?$allocator@D@2@@std@@QAE@XZ
	??0?$basic_string@DU?$char_traits@D@std@@V?$allocator@D@2@@std@@QAE@PBD@Z
	??1?$basic_string@DU?$char_traits@D@std@@V?$allocator@D@2@@std@@QAE@XZ
	??Y?$basic_string@DU?$char_traits@D@std@@V?$allocator@D@2@@std@@QAEAAV01@PBD@Z
	?append@?$basic_string@DU?$char_traits@D@std@@V?$allocator@D@2@@std@@QAEAAV12@ABV12@II@Z
	?append@?$basic_string@DU?$char_traits@D@std@@V?$allocator@D@2@@std@@QAEAAV12@PBDI@Z
	?append@?$basic_string@DU?$char_traits@D@std@@V?$allocator@D@2@@std@@QAEAAV12@PBD@Z
	?assign@?$basic_string@DU?$char_traits@D@std@@V?$allocator@D@2@@std@@QAEAAV12@ABV12@II@Z
	?assign@?$basic_string@DU?$char_traits@D@std@@V?$allocator@D@2@@std@@QAEAAV12@PBDI@Z
	?assign@?$basic_string@DU?$char_traits@D@std@@V?$allocator@D@2@@std@@QAEAAV12@PBD@Z
	?erase@?$basic_string@DU?$char_traits@D@std@@V?$allocator@D@2@@std@@QAEAAV12@I@Z
	?erase@?$basic_string@DU?$char_traits@D@std@@V?$allocator@D@2@@std@@QAEAAV12@II@Z
	?c_str@?$basic_string@DU?$char_traits@D@std@@V?$allocator@D@2@@std@@QBEPBDXZ
	?length@?$basic_string@DU?$char_traits@D@std@@V?$allocator@D@2@@std@@QBEIXZ
	?size@?$basic_string@DU?$char_traits@D@std@@V?$allocator@D@2@@std@@QBEIXZ
	?max_size@?$basic_string@DU?$char_traits@D@std@@V?$allocator@D@2@@std@@QBEIXZ
	?compare@?$basic_string@DU?$char_traits@D@std@@V?$allocator@D@2@@std@@QBEHABV12@@Z
	?compare@?$basic_string@DU?$char_traits@D@std@@V?$allocator@D@2@@std@@QBEHIIPBDI@Z
	?_Copy@?$basic_string@DU?$char_traits@D@std@@V?$allocator@D@2@@std@@QAEXII@Z
	?_Eos@?$basic_string@DU?$char_traits@D@std@@V?$allocator@D@2@@std@@QAEXI@Z
	?_Grow@?$basic_string@DU?$char_traits@D@std@@V?$allocator@D@2@@std@@QAE_NI_N@Z
	?_Inside@?$basic_string@DU?$char_traits@D@std@@V?$allocator@D@2@@std@@QAE_NPBD@Z
	?_Tidy@?$basic_string@DU?$char_traits@D@std@@V?$allocator@D@2@@std@@QAEX_NI@Z
	?_Xlen@?$basic_string@DU?$char_traits@D@std@@V?$allocator@D@2@@std@@QBEXXZ
	?_Xran@?$basic_string@DU?$char_traits@D@std@@V?$allocator@D@2@@std@@QBEXXZ
	?generic_category@std@@YAABVerror_category@1@XZ
	?system_category@std@@YAABVerror_category@1@XZ
	??0error_category@std@@QAE@XZ
	??1error_category@std@@UAE@XZ
	?default_error_condition@error_category@std@@UBE?AVerror_condition@2@H@Z
	?equivalent@error_category@std@@UBE_NHABVerror_condition@2@@Z
	?equivalent@error_category@std@@UBE_NABVerror_code@2@H@Z
	??8error_category@std@@QBE_NABV01@@Z
	?value@error_code@std@@QBEHXZ
	?category@error_code@std@@QBEABVerror_category@2@XZ
	??0error_condition@std@@QAE@HABVerror_category@1@@Z
	?value@error_condition@std@@QBEHXZ
	?category@error_condition@std@@QBEABVerror_category@2@XZ
	??8error_condition@std@@QBE_NABV01@@Z
	??0_Generic_error_category@std@@QAE@XZ
	?name@_Generic_error_category@std@@UBEPBDXZ
	?message@_Generic_error_category@std@@UBE?AV?$basic_string@DU?$char_traits@D@std@@V?$allocator@D@2@@2@H@Z
	??1_Generic_error_category@std@@UAE@XZ
	??0_Iostream_error_category@std@@QAE@XZ
	?name@_Iostream_error_category@std@@UBEPBDXZ
	?message@_Iostream_error_category@std@@UBE?AV?$basic_string@DU?$char_traits@D@std@@V?$allocator@D@2@@2@H@Z
	??1_Iostream_error_category@std@@UAE@XZ
	??0_System_error_category@std@@QAE@XZ
	?name@_System_error_category@std@@UBEPBDXZ
	?message@_System_error_category@std@@UBE?AV?$basic_string@DU?$char_traits@D@std@@V?$allocator@D@2@@2@H@Z
	?default_error_condition@_System_error_category@std@@UBE?AVerror_condition@2@H@Z
	??1_System_error_category@std@@UAE@XZ
	?IsLong@TString@@ABE_NXZ
	?GetShortSize@TString@@ABEHXZ
	?GetLongSize@TString@@ABEHXZ
	?GetLongPointer@TString@@ABEPBDXZ
	?GetShortPointer@TString@@ABEPBDXZ
	?GetPointer@TString@@ABEPBDXZ
	?Data@TString@@QBEPBDXZ
	?Length@TString@@QBEHXZ
	??0TDatime@@QAE@I_N@Z
	??1TDatime@@UAE@XZ
	?IsA@TDatime@@UBEPAVTClass@@XZ
	??0_Ignore@std@@QAE@XZ
	??0?$tuple@$$$V@std@@QAE@XZ
	??0?$tuple@$$$V@std@@QAE@ABV01@@Z
	?ID@EdbSegP@@QBEHXZ
	?SX@EdbSegP@@QBEMXZ
	?SY@EdbSegP@@QBEMXZ
	?GetSegment@EdbSegmentsBox@@QBEPAVEdbSegP@@H@Z
	??$?MDU?$char_traits@D@std@@V?$allocator@D@1@@std@@YA_NABV?$basic_string@DU?$char_traits@D@std@@V?$allocator@D@2@@0@0@Z
	?GetBuf@MessageManager@@QAEPAEXZ
	?GetBufSize@MessageManager@@QAEIXZ
	??0?$allocator@E@std@@QAE@XZ
	?deallocate@?$allocator@E@std@@QAEXPAEI@Z
	?allocate@?$allocator@E@std@@QAEPAEI@Z
	?max_size@?$allocator@E@std@@QBEIXZ
	?max_size@?$allocator_traits@V?$allocator@E@std@@@std@@SAIABV?$allocator@E@2@@Z
	??0?$_Wrap_alloc@V?$allocator@E@std@@@std@@QAE@XZ
	?allocate@?$_Wrap_alloc@V?$allocator@E@std@@@std@@QAEPAEI@Z
	?deallocate@?$_Wrap_alloc@V?$allocator@E@std@@@std@@QAEXPAEI@Z
	?max_size@?$_Wrap_alloc@V?$allocator@E@std@@@std@@QBEIXZ
	?_Getal@?$_Vector_alloc@$0A@U?$_Vec_base_types@EV?$allocator@E@std@@@std@@@std@@QBE?AU?$_Wrap_alloc@V?$allocator@E@std@@@2@XZ
	?capacity@?$vector@EV?$allocator@E@std@@@std@@QBEIXZ
	?_Unused_capacity@?$vector@EV?$allocator@E@std@@@std@@QBEIXZ
	?resize@?$vector@EV?$allocator@E@std@@@std@@QAEXI@Z
	?size@?$vector@EV?$allocator@E@std@@@std@@QBEIXZ
	?max_size@?$vector@EV?$allocator@E@std@@@std@@QBEIXZ
	??A?$vector@EV?$allocator@E@std@@@std@@QAEAAEI@Z
	?_Pop_back_n@?$vector@EV?$allocator@E@std@@@std@@QAEXI@Z
	?_Destroy@?$vector@EV?$allocator@E@std@@@std@@IAEXPAE0@Z
	?_Grow_to@?$vector@EV?$allocator@E@std@@@std@@IBEII@Z
	?_Reallocate@?$vector@EV?$allocator@E@std@@@std@@IAEXI@Z
	?_Reserve@?$vector@EV?$allocator@E@std@@@std@@IAEXI@Z
	?_Tidy@?$vector@EV?$allocator@E@std@@@std@@IAEXXZ
	?_Xlen@?$vector@EV?$allocator@E@std@@@std@@IBEXXZ
	?GetValueForKey@MessageReader@@QAE?AV?$basic_string@DU?$char_traits@D@std@@V?$allocator@D@2@@std@@AAV23@@Z
	??R?$less@V?$basic_string@DU?$char_traits@D@std@@V?$allocator@D@2@@std@@@std@@QBE_NABV?$basic_string@DU?$char_traits@D@std@@V?$allocator@D@2@@1@0@Z
	??0?$allocator@U?$_Tree_node@U?$pair@$$CBV?$basic_string@DU?$char_traits@D@std@@V?$allocator@D@2@@std@@V12@@std@@PAX@std@@@std@@QAE@XZ
	?deallocate@?$allocator@U?$_Tree_node@U?$pair@$$CBV?$basic_string@DU?$char_traits@D@std@@V?$allocator@D@2@@std@@V12@@std@@PAX@std@@@std@@QAEXPAU?$_Tree_node@U?$pair@$$CBV?$basic_string@DU?$char_traits@D@std@@V?$allocator@D@2@@std@@V12@@std@@PAX@2@I@Z
	?allocate@?$allocator@U?$_Tree_node@U?$pair@$$CBV?$basic_string@DU?$char_traits@D@std@@V?$allocator@D@2@@std@@V12@@std@@PAX@std@@@std@@QAEPAU?$_Tree_node@U?$pair@$$CBV?$basic_string@DU?$char_traits@D@std@@V?$allocator@D@2@@std@@V12@@std@@PAX@2@I@Z
	?max_size@?$allocator@U?$_Tree_node@U?$pair@$$CBV?$basic_string@DU?$char_traits@D@std@@V?$allocator@D@2@@std@@V12@@std@@PAX@std@@@std@@QBEIXZ
	?max_size@?$allocator_traits@V?$allocator@U?$_Tree_node@U?$pair@$$CBV?$basic_string@DU?$char_traits@D@std@@V?$allocator@D@2@@std@@V12@@std@@PAX@std@@@std@@@std@@SAIABV?$allocator@U?$_Tree_node@U?$pair@$$CBV?$basic_string@DU?$char_traits@D@std@@V?$allocator@D@2@@std@@V12@@std@@PAX@std@@@2@@Z
	??0?$_Wrap_alloc@V?$allocator@U?$_Tree_node@U?$pair@$$CBV?$basic_string@DU?$char_traits@D@std@@V?$allocator@D@2@@std@@V12@@std@@PAX@std@@@std@@@std@@QAE@XZ
	?allocate@?$_Wrap_alloc@V?$allocator@U?$_Tree_node@U?$pair@$$CBV?$basic_string@DU?$char_traits@D@std@@V?$allocator@D@2@@std@@V12@@std@@PAX@std@@@std@@@std@@QAEPAU?$_Tree_node@U?$pair@$$CBV?$basic_string@DU?$char_traits@D@std@@V?$allocator@D@2@@std@@V12@@std@@PAX@2@I@Z
	?deallocate@?$_Wrap_alloc@V?$allocator@U?$_Tree_node@U?$pair@$$CBV?$basic_string@DU?$char_traits@D@std@@V?$allocator@D@2@@std@@V12@@std@@PAX@std@@@std@@@std@@QAEXPAU?$_Tree_node@U?$pair@$$CBV?$basic_string@DU?$char_traits@D@std@@V?$allocator@D@2@@std@@V12@@std@@PAX@2@I@Z
	?max_size@?$_Wrap_alloc@V?$allocator@U?$_Tree_node@U?$pair@$$CBV?$basic_string@DU?$char_traits@D@std@@V?$allocator@D@2@@std@@V12@@std@@PAX@std@@@std@@@std@@QBEIXZ
	?_Color@?$_Tree_val@U?$_Tree_simple_types@U?$pair@$$CBV?$basic_string@DU?$char_traits@D@std@@V?$allocator@D@2@@std@@V12@@std@@@std@@@std@@SAAADPAU?$_Tree_node@U?$pair@$$CBV?$basic_string@DU?$char_traits@D@std@@V?$allocator@D@2@@std@@V12@@std@@PAX@2@@Z
	?_Isnil@?$_Tree_val@U?$_Tree_simple_types@U?$pair@$$CBV?$basic_string@DU?$char_traits@D@std@@V?$allocator@D@2@@std@@V12@@std@@@std@@@std@@SAAADPAU?$_Tree_node@U?$pair@$$CBV?$basic_string@DU?$char_traits@D@std@@V?$allocator@D@2@@std@@V12@@std@@PAX@2@@Z
	?_Left@?$_Tree_val@U?$_Tree_simple_types@U?$pair@$$CBV?$basic_string@DU?$char_traits@D@std@@V?$allocator@D@2@@std@@V12@@std@@@std@@@std@@SAAAPAU?$_Tree_node@U?$pair@$$CBV?$basic_string@DU?$char_traits@D@std@@V?$allocator@D@2@@std@@V12@@std@@PAX@2@PAU32@@Z
	?_Parent@?$_Tree_val@U?$_Tree_simple_types@U?$pair@$$CBV?$basic_string@DU?$char_traits@D@std@@V?$allocator@D@2@@std@@V12@@std@@@std@@@std@@SAAAPAU?$_Tree_node@U?$pair@$$CBV?$basic_string@DU?$char_traits@D@std@@V?$allocator@D@2@@std@@V12@@std@@PAX@2@PAU32@@Z
	?_Right@?$_Tree_val@U?$_Tree_simple_types@U?$pair@$$CBV?$basic_string@DU?$char_traits@D@std@@V?$allocator@D@2@@std@@V12@@std@@@std@@@std@@SAAAPAU?$_Tree_node@U?$pair@$$CBV?$basic_string@DU?$char_traits@D@std@@V?$allocator@D@2@@std@@V12@@std@@PAX@2@PAU32@@Z
	?_Myval@?$_Tree_val@U?$_Tree_simple_types@U?$pair@$$CBV?$basic_string@DU?$char_traits@D@std@@V?$allocator@D@2@@std@@V12@@std@@@std@@@std@@SAAAU?$pair@$$CBV?$basic_string@DU?$char_traits@D@std@@V?$allocator@D@2@@std@@V12@@2@PAU?$_Tree_node@U?$pair@$$CBV?$basic_string@DU?$char_traits@D@std@@V?$allocator@D@2@@std@@V12@@std@@PAX@2@@Z
	?_Max@?$_Tree_val@U?$_Tree_simple_types@U?$pair@$$CBV?$basic_string@DU?$char_traits@D@std@@V?$allocator@D@2@@std@@V12@@std@@@std@@@std@@SAPAU?$_Tree_node@U?$pair@$$CBV?$basic_string@DU?$char_traits@D@std@@V?$allocator@D@2@@std@@V12@@std@@PAX@2@PAU32@@Z
	?_Min@?$_Tree_val@U?$_Tree_simple_types@U?$pair@$$CBV?$basic_string@DU?$char_traits@D@std@@V?$allocator@D@2@@std@@V12@@std@@@std@@@std@@SAPAU?$_Tree_node@U?$pair@$$CBV?$basic_string@DU?$char_traits@D@std@@V?$allocator@D@2@@std@@V12@@std@@PAX@2@PAU32@@Z
	?_Getal@?$_Tree_alloc@$0A@U?$_Tree_base_types@U?$pair@$$CBV?$basic_string@DU?$char_traits@D@std@@V?$allocator@D@2@@std@@V12@@std@@V?$allocator@U?$pair@$$CBV?$basic_string@DU?$char_traits@D@std@@V?$allocator@D@2@@std@@V12@@std@@@2@@std@@@std@@QBE?AU?$_Wrap_alloc@V?$allocator@U?$_Tree_node@U?$pair@$$CBV?$basic_string@DU?$char_traits@D@std@@V?$allocator@D@2@@std@@V12@@std@@PAX@std@@@std@@@2@XZ
	?_Buynode0@?$_Tree_buy@U?$pair@$$CBV?$basic_string@DU?$char_traits@D@std@@V?$allocator@D@2@@std@@V12@@std@@V?$allocator@U?$pair@$$CBV?$basic_string@DU?$char_traits@D@std@@V?$allocator@D@2@@std@@V12@@std@@@2@@std@@QAEPAU?$_Tree_node@U?$pair@$$CBV?$basic_string@DU?$char_traits@D@std@@V?$allocator@D@2@@std@@V12@@std@@PAX@2@XZ
	?_Freenode0@?$_Tree_buy@U?$pair@$$CBV?$basic_string@DU?$char_traits@D@std@@V?$allocator@D@2@@std@@V12@@std@@V?$allocator@U?$pair@$$CBV?$basic_string@DU?$char_traits@D@std@@V?$allocator@D@2@@std@@V12@@std@@@2@@std@@QAEXPAU?$_Tree_node@U?$pair@$$CBV?$basic_string@DU?$char_traits@D@std@@V?$allocator@D@2@@std@@V12@@std@@PAX@2@@Z
	?_Getcomp@?$_Tree_comp@$0A@V?$_Tmap_traits@V?$basic_string@DU?$char_traits@D@std@@V?$allocator@D@2@@std@@V12@U?$less@V?$basic_string@DU?$char_traits@D@std@@V?$allocator@D@2@@std@@@2@V?$allocator@U?$pair@$$CBV?$basic_string@DU?$char_traits@D@std@@V?$allocator@D@2@@std@@V12@@std@@@2@$0A@@std@@@std@@QBE?AU?$less@V?$basic_string@DU?$char_traits@D@std@@V?$allocator@D@2@@std@@@2@XZ
	?begin@?$_Tree@V?$_Tmap_traits@V?$basic_string@DU?$char_traits@D@std@@V?$allocator@D@2@@std@@V12@U?$less@V?$basic_string@DU?$char_traits@D@std@@V?$allocator@D@2@@std@@@2@V?$allocator@U?$pair@$$CBV?$basic_string@DU?$char_traits@D@std@@V?$allocator@D@2@@std@@V12@@std@@@2@$0A@@std@@@std@@QAE?AV?$_Tree_iterator@V?$_Tree_val@U?$_Tree_simple_types@U?$pair@$$CBV?$basic_string@DU?$char_traits@D@std@@V?$allocator@D@2@@std@@V12@@std@@@std@@@std@@@2@XZ
	?end@?$_Tree@V?$_Tmap_traits@V?$basic_string@DU?$char_traits@D@std@@V?$allocator@D@2@@std@@V12@U?$less@V?$basic_string@DU?$char_traits@D@std@@V?$allocator@D@2@@std@@@2@V?$allocator@U?$pair@$$CBV?$basic_string@DU?$char_traits@D@std@@V?$allocator@D@2@@std@@V12@@std@@@2@$0A@@std@@@std@@QAE?AV?$_Tree_iterator@V?$_Tree_val@U?$_Tree_simple_types@U?$pair@$$CBV?$basic_string@DU?$char_traits@D@std@@V?$allocator@D@2@@std@@V12@@std@@@std@@@std@@@2@XZ
	?size@?$_Tree@V?$_Tmap_traits@V?$basic_string@DU?$char_traits@D@std@@V?$allocator@D@2@@std@@V12@U?$less@V?$basic_string@DU?$char_traits@D@std@@V?$allocator@D@2@@std@@@2@V?$allocator@U?$pair@$$CBV?$basic_string@DU?$char_traits@D@std@@V?$allocator@D@2@@std@@V12@@std@@@2@$0A@@std@@@std@@QBEIXZ
	?max_size@?$_Tree@V?$_Tmap_traits@V?$basic_string@DU?$char_traits@D@std@@V?$allocator@D@2@@std@@V12@U?$less@V?$basic_string@DU?$char_traits@D@std@@V?$allocator@D@2@@std@@@2@V?$allocator@U?$pair@$$CBV?$basic_string@DU?$char_traits@D@std@@V?$allocator@D@2@@std@@V12@@std@@@2@$0A@@std@@@std@@QBEIXZ
	?lower_bound@?$_Tree@V?$_Tmap_traits@V?$basic_string@DU?$char_traits@D@std@@V?$allocator@D@2@@std@@V12@U?$less@V?$basic_string@DU?$char_traits@D@std@@V?$allocator@D@2@@std@@@2@V?$allocator@U?$pair@$$CBV?$basic_string@DU?$char_traits@D@std@@V?$allocator@D@2@@std@@V12@@std@@@2@$0A@@std@@@std@@QAE?AV?$_Tree_iterator@V?$_Tree_val@U?$_Tree_simple_types@U?$pair@$$CBV?$basic_string@DU?$char_traits@D@std@@V?$allocator@D@2@@std@@V12@@std@@@std@@@std@@@2@ABV?$basic_string@DU?$char_traits@D@std@@V?$allocator@D@2@@2@@Z
	?_Destroy_if_not_nil@?$_Tree@V?$_Tmap_traits@V?$basic_string@DU?$char_traits@D@std@@V?$allocator@D@2@@std@@V12@U?$less@V?$basic_string@DU?$char_traits@D@std@@V?$allocator@D@2@@std@@@2@V?$allocator@U?$pair@$$CBV?$basic_string@DU?$char_traits@D@std@@V?$allocator@D@2@@std@@V12@@std@@@2@$0A@@std@@@std@@IAEXPAU?$_Tree_node@U?$pair@$$CBV?$basic_string@DU?$char_traits@D@std@@V?$allocator@D@2@@std@@V12@@std@@PAX@2@@Z
	?_Lbound@?$_Tree@V?$_Tmap_traits@V?$basic_string@DU?$char_traits@D@std@@V?$allocator@D@2@@std@@V12@U?$less@V?$basic_string@DU?$char_traits@D@std@@V?$allocator@D@2@@std@@@2@V?$allocator@U?$pair@$$CBV?$basic_string@DU?$char_traits@D@std@@V?$allocator@D@2@@std@@V12@@std@@@2@$0A@@std@@@std@@IAEPAU?$_Tree_node@U?$pair@$$CBV?$basic_string@DU?$char_traits@D@std@@V?$allocator@D@2@@std@@V12@@std@@PAX@2@ABV?$basic_string@DU?$char_traits@D@std@@V?$allocator@D@2@@2@@Z
	?_Lmost@?$_Tree@V?$_Tmap_traits@V?$basic_string@DU?$char_traits@D@std@@V?$allocator@D@2@@std@@V12@U?$less@V?$basic_string@DU?$char_traits@D@std@@V?$allocator@D@2@@std@@@2@V?$allocator@U?$pair@$$CBV?$basic_string@DU?$char_traits@D@std@@V?$allocator@D@2@@std@@V12@@std@@@2@$0A@@std@@@std@@IBEAAPAU?$_Tree_node@U?$pair@$$CBV?$basic_string@DU?$char_traits@D@std@@V?$allocator@D@2@@std@@V12@@std@@PAX@2@XZ
	?_Lrotate@?$_Tree@V?$_Tmap_traits@V?$basic_string@DU?$char_traits@D@std@@V?$allocator@D@2@@std@@V12@U?$less@V?$basic_string@DU?$char_traits@D@std@@V?$allocator@D@2@@std@@@2@V?$allocator@U?$pair@$$CBV?$basic_string@DU?$char_traits@D@std@@V?$allocator@D@2@@std@@V12@@std@@@2@$0A@@std@@@std@@IAEXPAU?$_Tree_node@U?$pair@$$CBV?$basic_string@DU?$char_traits@D@std@@V?$allocator@D@2@@std@@V12@@std@@PAX@2@@Z
	?_Rmost@?$_Tree@V?$_Tmap_traits@V?$basic_string@DU?$char_traits@D@std@@V?$allocator@D@2@@std@@V12@U?$less@V?$basic_string@DU?$char_traits@D@std@@V?$allocator@D@2@@std@@@2@V?$allocator@U?$pair@$$CBV?$basic_string@DU?$char_traits@D@std@@V?$allocator@D@2@@std@@V12@@std@@@2@$0A@@std@@@std@@IBEAAPAU?$_Tree_node@U?$pair@$$CBV?$basic_string@DU?$char_traits@D@std@@V?$allocator@D@2@@std@@V12@@std@@PAX@2@XZ
	?_Root@?$_Tree@V?$_Tmap_traits@V?$basic_string@DU?$char_traits@D@std@@V?$allocator@D@2@@std@@V12@U?$less@V?$basic_string@DU?$char_traits@D@std@@V?$allocator@D@2@@std@@@2@V?$allocator@U?$pair@$$CBV?$basic_string@DU?$char_traits@D@std@@V?$allocator@D@2@@std@@V12@@std@@@2@$0A@@std@@@std@@IBEAAPAU?$_Tree_node@U?$pair@$$CBV?$basic_string@DU?$char_traits@D@std@@V?$allocator@D@2@@std@@V12@@std@@PAX@2@XZ
	?_Rrotate@?$_Tree@V?$_Tmap_traits@V?$basic_string@DU?$char_traits@D@std@@V?$allocator@D@2@@std@@V12@U?$less@V?$basic_string@DU?$char_traits@D@std@@V?$allocator@D@2@@std@@@2@V?$allocator@U?$pair@$$CBV?$basic_string@DU?$char_traits@D@std@@V?$allocator@D@2@@std@@V12@@std@@@2@$0A@@std@@@std@@IAEXPAU?$_Tree_node@U?$pair@$$CBV?$basic_string@DU?$char_traits@D@std@@V?$allocator@D@2@@std@@V12@@std@@PAX@2@@Z
	?_Kfn@?$_Tree@V?$_Tmap_traits@V?$basic_string@DU?$char_traits@D@std@@V?$allocator@D@2@@std@@V12@U?$less@V?$basic_string@DU?$char_traits@D@std@@V?$allocator@D@2@@std@@@2@V?$allocator@U?$pair@$$CBV?$basic_string@DU?$char_traits@D@std@@V?$allocator@D@2@@std@@V12@@std@@@2@$0A@@std@@@std@@IBEABV?$basic_string@DU?$char_traits@D@std@@V?$allocator@D@2@@2@ABU?$pair@$$CBV?$basic_string@DU?$char_traits@D@std@@V?$allocator@D@2@@std@@V12@@2@@Z
	?_Key@?$_Tree@V?$_Tmap_traits@V?$basic_string@DU?$char_traits@D@std@@V?$allocator@D@2@@std@@V12@U?$less@V?$basic_string@DU?$char_traits@D@std@@V?$allocator@D@2@@std@@@2@V?$allocator@U?$pair@$$CBV?$basic_string@DU?$char_traits@D@std@@V?$allocator@D@2@@std@@V12@@std@@@2@$0A@@std@@@std@@IBEABV?$basic_string@DU?$char_traits@D@std@@V?$allocator@D@2@@2@PAU?$_Tree_node@U?$pair@$$CBV?$basic_string@DU?$char_traits@D@std@@V?$allocator@D@2@@std@@V12@@std@@PAX@2@@Z
	??A?$map@V?$basic_string@DU?$char_traits@D@std@@V?$allocator@D@2@@std@@V12@U?$less@V?$basic_string@DU?$char_traits@D@std@@V?$allocator@D@2@@std@@@2@V?$allocator@U?$pair@$$CBV?$basic_string@DU?$char_traits@D@std@@V?$allocator@D@2@@std@@V12@@std@@@2@@std@@QAEAAV?$basic_string@DU?$char_traits@D@std@@V?$allocator@D@2@@1@ABV21@@Z
	??0?$_Tree_unchecked_const_iterator@V?$_Tree_val@U?$_Tree_simple_types@U?$pair@$$CBV?$basic_string@DU?$char_traits@D@std@@V?$allocator@D@2@@std@@V12@@std@@@std@@@std@@U_Iterator_base0@2@@std@@QAE@XZ
	??0?$_Tree_unchecked_const_iterator@V?$_Tree_val@U?$_Tree_simple_types@U?$pair@$$CBV?$basic_string@DU?$char_traits@D@std@@V?$allocator@D@2@@std@@V12@@std@@@std@@@std@@U_Iterator_base0@2@@std@@QAE@PAU?$_Tree_node@U?$pair@$$CBV?$basic_string@DU?$char_traits@D@std@@V?$allocator@D@2@@std@@V12@@std@@PAX@1@PBV?$_Tree_val@U?$_Tree_simple_types@U?$pair@$$CBV?$basic_string@DU?$char_traits@D@std@@V?$allocator@D@2@@std@@V12@@std@@@std@@@1@@Z
	??E?$_Tree_unchecked_const_iterator@V?$_Tree_val@U?$_Tree_simple_types@U?$pair@$$CBV?$basic_string@DU?$char_traits@D@std@@V?$allocator@D@2@@std@@V12@@std@@@std@@@std@@U_Iterator_base0@2@@std@@QAEAAV01@XZ
	??F?$_Tree_unchecked_const_iterator@V?$_Tree_val@U?$_Tree_simple_types@U?$pair@$$CBV?$basic_string@DU?$char_traits@D@std@@V?$allocator@D@2@@std@@V12@@std@@@std@@@std@@U_Iterator_base0@2@@std@@QAEAAV01@XZ
	?_Mynode@?$_Tree_unchecked_const_iterator@V?$_Tree_val@U?$_Tree_simple_types@U?$pair@$$CBV?$basic_string@DU?$char_traits@D@std@@V?$allocator@D@2@@std@@V12@@std@@@std@@@std@@U_Iterator_base0@2@@std@@QBEPAU?$_Tree_node@U?$pair@$$CBV?$basic_string@DU?$char_traits@D@std@@V?$allocator@D@2@@std@@V12@@std@@PAX@2@XZ
	??0?$_Tree_const_iterator@V?$_Tree_val@U?$_Tree_simple_types@U?$pair@$$CBV?$basic_string@DU?$char_traits@D@std@@V?$allocator@D@2@@std@@V12@@std@@@std@@@std@@@std@@QAE@XZ
	??0?$_Tree_const_iterator@V?$_Tree_val@U?$_Tree_simple_types@U?$pair@$$CBV?$basic_string@DU?$char_traits@D@std@@V?$allocator@D@2@@std@@V12@@std@@@std@@@std@@@std@@QAE@PAU?$_Tree_node@U?$pair@$$CBV?$basic_string@DU?$char_traits@D@std@@V?$allocator@D@2@@std@@V12@@std@@PAX@1@PBV?$_Tree_val@U?$_Tree_simple_types@U?$pair@$$CBV?$basic_string@DU?$char_traits@D@std@@V?$allocator@D@2@@std@@V12@@std@@@std@@@1@@Z
	??D?$_Tree_const_iterator@V?$_Tree_val@U?$_Tree_simple_types@U?$pair@$$CBV?$basic_string@DU?$char_traits@D@std@@V?$allocator@D@2@@std@@V12@@std@@@std@@@std@@@std@@QBEABU?$pair@$$CBV?$basic_string@DU?$char_traits@D@std@@V?$allocator@D@2@@std@@V12@@1@XZ
	??E?$_Tree_const_iterator@V?$_Tree_val@U?$_Tree_simple_types@U?$pair@$$CBV?$basic_string@DU?$char_traits@D@std@@V?$allocator@D@2@@std@@V12@@std@@@std@@@std@@@std@@QAEAAV01@XZ
	??F?$_Tree_const_iterator@V?$_Tree_val@U?$_Tree_simple_types@U?$pair@$$CBV?$basic_string@DU?$char_traits@D@std@@V?$allocator@D@2@@std@@V12@@std@@@std@@@std@@@std@@QAEAAV01@XZ
	??8?$_Tree_const_iterator@V?$_Tree_val@U?$_Tree_simple_types@U?$pair@$$CBV?$basic_string@DU?$char_traits@D@std@@V?$allocator@D@2@@std@@V12@@std@@@std@@@std@@@std@@QBE_NABV01@@Z
	??0?$_Tree_iterator@V?$_Tree_val@U?$_Tree_simple_types@U?$pair@$$CBV?$basic_string@DU?$char_traits@D@std@@V?$allocator@D@2@@std@@V12@@std@@@std@@@std@@@std@@QAE@PAU?$_Tree_node@U?$pair@$$CBV?$basic_string@DU?$char_traits@D@std@@V?$allocator@D@2@@std@@V12@@std@@PAX@1@PBV?$_Tree_val@U?$_Tree_simple_types@U?$pair@$$CBV?$basic_string@DU?$char_traits@D@std@@V?$allocator@D@2@@std@@V12@@std@@@std@@@1@@Z
	??D?$_Tree_iterator@V?$_Tree_val@U?$_Tree_simple_types@U?$pair@$$CBV?$basic_string@DU?$char_traits@D@std@@V?$allocator@D@2@@std@@V12@@std@@@std@@@std@@@std@@QBEAAU?$pair@$$CBV?$basic_string@DU?$char_traits@D@std@@V?$allocator@D@2@@std@@V12@@1@XZ
	??C?$_Tree_iterator@V?$_Tree_val@U?$_Tree_simple_types@U?$pair@$$CBV?$basic_string@DU?$char_traits@D@std@@V?$allocator@D@2@@std@@V12@@std@@@std@@@std@@@std@@QBEPAU?$pair@$$CBV?$basic_string@DU?$char_traits@D@std@@V?$allocator@D@2@@std@@V12@@1@XZ
	??F?$_Tree_iterator@V?$_Tree_val@U?$_Tree_simple_types@U?$pair@$$CBV?$basic_string@DU?$char_traits@D@std@@V?$allocator@D@2@@std@@V12@@std@@@std@@@std@@@std@@QAEAAV01@XZ
	?UnloadPlate@EdbScanClientPav@@UAEHXZ
	?LoadPlate@EdbScanClientPav@@UAEHHHPBDH@Z
	?SetParameter@EdbScanClientPav@@UAEXPBD00@Z
	?SetClusterThresholds@EdbScanClientPav@@UAEXHH@Z
	?SetOdysseyThresholds@EdbScanClientPav@@UAEXHHHHH@Z
	?SetFragmentSize@EdbScanClientPav@@UAEHHH@Z
	?ScanAreas@EdbScanClientPav@@UAEHW4ScanType@EdbScanClientBase@@QAHAAVEdbPattern@@PAVEdbRun@@PBD@Z
	?AsyncScanAreaS@EdbScanClientPav@@UAEXHHHHMMMMPBD@Z
	?AsyncScanPreloadAreaS@EdbScanClientPav@@UAEXHHHHMMMMPBDMMMM@Z
	?ScanFromPrediction@EdbScanClientPav@@UAE_NHHHHMM@Z
	?AsyncStartScan@EdbScanClientPav@@UAEXXZ
	?AsyncWaitForScanResult@EdbScanClientPav@@UAEHXZ
	?Print@EdbScanClientPav@@UAEXXZ
	?SetServerTarget@EdbScanClientPav@@IAEXXZ
	??$_Uninitialized_default_fill_n@PAEIU?$_Wrap_alloc@V?$allocator@E@std@@@std@@@std@@YAXPAEIAAU?$_Wrap_alloc@V?$allocator@E@std@@@0@@Z
	??1?$pair@$$CBV?$basic_string@DU?$char_traits@D@std@@V?$allocator@D@2@@std@@V12@@std@@QAE@XZ
	??$forward_as_tuple@ABV?$basic_string@DU?$char_traits@D@std@@V?$allocator@D@2@@std@@@std@@YA?AV?$tuple@ABV?$basic_string@DU?$char_traits@D@std@@V?$allocator@D@2@@std@@@0@ABV?$basic_string@DU?$char_traits@D@std@@V?$allocator@D@2@@0@@Z
	??0?$tuple@ABV?$basic_string@DU?$char_traits@D@std@@V?$allocator@D@2@@std@@@std@@QAE@ABV?$basic_string@DU?$char_traits@D@std@@V?$allocator@D@2@@1@@Z
	?_Get_rest@?$tuple@ABV?$basic_string@DU?$char_traits@D@std@@V?$allocator@D@2@@std@@@std@@QAEAAV?$tuple@$$$V@2@XZ
	??$emplace_hint@ABUpiecewise_construct_t@std@@V?$tuple@ABV?$basic_string@DU?$char_traits@D@std@@V?$allocator@D@2@@std@@@2@V?$tuple@$$$V@2@@?$_Tree@V?$_Tmap_traits@V?$basic_string@DU?$char_traits@D@std@@V?$allocator@D@2@@std@@V12@U?$less@V?$basic_string@DU?$char_traits@D@std@@V?$allocator@D@2@@std@@@2@V?$allocator@U?$pair@$$CBV?$basic_string@DU?$char_traits@D@std@@V?$allocator@D@2@@std@@V12@@std@@@2@$0A@@std@@@std@@QAE?AV?$_Tree_iterator@V?$_Tree_val@U?$_Tree_simple_types@U?$pair@$$CBV?$basic_string@DU?$char_traits@D@std@@V?$allocator@D@2@@std@@V12@@std@@@std@@@std@@@1@V?$_Tree_const_iterator@V?$_Tree_val@U?$_Tree_simple_types@U?$pair@$$CBV?$basic_string@DU?$char_traits@D@std@@V?$allocator@D@2@@std@@V12@@std@@@std@@@std@@@1@ABUpiecewise_construct_t@1@$$QAV?$tuple@ABV?$basic_string@DU?$char_traits@D@std@@V?$allocator@D@2@@std@@@1@$$QAV?$tuple@$$$V@1@@Z
	??$construct@PADAAPAD@?$_Wrap_alloc@V?$allocator@D@std@@@std@@QAEXPAPADAAPAD@Z
	??$destroy@PAD@?$_Wrap_alloc@V?$allocator@D@std@@@std@@QAEXPAPAD@Z
	??$addressof@D@std@@YAPADAAD@Z
	?pointer_to@?$pointer_traits@PAU?$pair@$$CBV?$basic_string@DU?$char_traits@D@std@@V?$allocator@D@2@@std@@V12@@std@@@std@@SAPAU?$pair@$$CBV?$basic_string@DU?$char_traits@D@std@@V?$allocator@D@2@@std@@V12@@2@AAU32@@Z
	??$_Destroy_range@U?$_Wrap_alloc@V?$allocator@E@std@@@std@@@std@@YAXPAE0AAU?$_Wrap_alloc@V?$allocator@E@std@@@0@@Z
	??$_Umove@PAE@?$vector@EV?$allocator@E@std@@@std@@IAEPAEPAE00@Z
	??$_Kfn@$$CBV?$basic_string@DU?$char_traits@D@std@@V?$allocator@D@2@@std@@V12@@?$_Tmap_traits@V?$basic_string@DU?$char_traits@D@std@@V?$allocator@D@2@@std@@V12@U?$less@V?$basic_string@DU?$char_traits@D@std@@V?$allocator@D@2@@std@@@2@V?$allocator@U?$pair@$$CBV?$basic_string@DU?$char_traits@D@std@@V?$allocator@D@2@@std@@V12@@std@@@2@$0A@@std@@SAABV?$basic_string@DU?$char_traits@D@std@@V?$allocator@D@2@@1@ABU?$pair@$$CBV?$basic_string@DU?$char_traits@D@std@@V?$allocator@D@2@@std@@V12@@1@@Z
	??$addressof@PAU?$_Tree_node@U?$pair@$$CBV?$basic_string@DU?$char_traits@D@std@@V?$allocator@D@2@@std@@V12@@std@@PAX@std@@@std@@YAPAPAU?$_Tree_node@U?$pair@$$CBV?$basic_string@DU?$char_traits@D@std@@V?$allocator@D@2@@std@@V12@@std@@PAX@0@AAPAU10@@Z
	??$destroy@PAU?$_Tree_node@U?$pair@$$CBV?$basic_string@DU?$char_traits@D@std@@V?$allocator@D@2@@std@@V12@@std@@PAX@std@@@?$_Wrap_alloc@V?$allocator@U?$_Tree_node@U?$pair@$$CBV?$basic_string@DU?$char_traits@D@std@@V?$allocator@D@2@@std@@V12@@std@@PAX@std@@@std@@@std@@QAEXPAPAU?$_Tree_node@U?$pair@$$CBV?$basic_string@DU?$char_traits@D@std@@V?$allocator@D@2@@std@@V12@@std@@PAX@1@@Z
	??$addressof@U?$pair@$$CBV?$basic_string@DU?$char_traits@D@std@@V?$allocator@D@2@@std@@V12@@std@@@std@@YAPAU?$pair@$$CBV?$basic_string@DU?$char_traits@D@std@@V?$allocator@D@2@@std@@V12@@0@AAU10@@Z
	??$destroy@U?$pair@$$CBV?$basic_string@DU?$char_traits@D@std@@V?$allocator@D@2@@std@@V12@@std@@@?$_Wrap_alloc@V?$allocator@U?$_Tree_node@U?$pair@$$CBV?$basic_string@DU?$char_traits@D@std@@V?$allocator@D@2@@std@@V12@@std@@PAX@std@@@std@@@std@@QAEXPAU?$pair@$$CBV?$basic_string@DU?$char_traits@D@std@@V?$allocator@D@2@@std@@V12@@1@@Z
	??$_Allocate@E@std@@YAPAEIPAE@Z
	??$_Allocate@D@std@@YAPADIPAD@Z
	??$construct@PAU?$_Tree_node@U?$pair@$$CBV?$basic_string@DU?$char_traits@D@std@@V?$allocator@D@2@@std@@V12@@std@@PAX@std@@AAPAU12@@?$_Wrap_alloc@V?$allocator@U?$_Tree_node@U?$pair@$$CBV?$basic_string@DU?$char_traits@D@std@@V?$allocator@D@2@@std@@V12@@std@@PAX@std@@@std@@@std@@QAEXPAPAU?$_Tree_node@U?$pair@$$CBV?$basic_string@DU?$char_traits@D@std@@V?$allocator@D@2@@std@@V12@@std@@PAX@1@AAPAU21@@Z
	??$_Allocate@U?$_Tree_node@U?$pair@$$CBV?$basic_string@DU?$char_traits@D@std@@V?$allocator@D@2@@std@@V12@@std@@PAX@std@@@std@@YAPAU?$_Tree_node@U?$pair@$$CBV?$basic_string@DU?$char_traits@D@std@@V?$allocator@D@2@@std@@V12@@std@@PAX@0@IPAU10@@Z
	??$_Val_type@PAE@std@@YAPAEPAE@Z
	??$_Ptr_cat@EE@std@@YA?AU_Scalar_ptr_iterator_tag@0@PAE0@Z
	??$_Uninit_def_fill_n@EIE@std@@YAXPAEIAAU?$_Wrap_alloc@V?$allocator@E@std@@@0@0U_Scalar_ptr_iterator_tag@0@@Z
	??$forward@ABUpiecewise_construct_t@std@@@std@@YAABUpiecewise_construct_t@0@ABU10@@Z
	??$forward@V?$tuple@$$$V@std@@@std@@YA$$QAV?$tuple@$$$V@0@AAV10@@Z
	??$_Insert_hint@AAU?$pair@$$CBV?$basic_string@DU?$char_traits@D@std@@V?$allocator@D@2@@std@@V12@@std@@PAU?$_Tree_node@U?$pair@$$CBV?$basic_string@DU?$char_traits@D@std@@V?$allocator@D@2@@std@@V12@@std@@PAX@2@@?$_Tree@V?$_Tmap_traits@V?$basic_string@DU?$char_traits@D@std@@V?$allocator@D@2@@std@@V12@U?$less@V?$basic_string@DU?$char_traits@D@std@@V?$allocator@D@2@@std@@@2@V?$allocator@U?$pair@$$CBV?$basic_string@DU?$char_traits@D@std@@V?$allocator@D@2@@std@@V12@@std@@@2@$0A@@std@@@std@@IAE?AV?$_Tree_iterator@V?$_Tree_val@U?$_Tree_simple_types@U?$pair@$$CBV?$basic_string@DU?$char_traits@D@std@@V?$allocator@D@2@@std@@V12@@std@@@std@@@std@@@1@V?$_Tree_const_iterator@V?$_Tree_val@U?$_Tree_simple_types@U?$pair@$$CBV?$basic_string@DU?$char_traits@D@std@@V?$allocator@D@2@@std@@V12@@std@@@std@@@std@@@1@AAU?$pair@$$CBV?$basic_string@DU?$char_traits@D@std@@V?$allocator@D@2@@std@@V12@@1@PAU?$_Tree_node@U?$pair@$$CBV?$basic_string@DU?$char_traits@D@std@@V?$allocator@D@2@@std@@V12@@std@@PAX@1@@Z
	??$forward@ABV?$basic_string@DU?$char_traits@D@std@@V?$allocator@D@2@@std@@@std@@YAABV?$basic_string@DU?$char_traits@D@std@@V?$allocator@D@2@@0@ABV10@@Z
	??$?0ABV?$basic_string@DU?$char_traits@D@std@@V?$allocator@D@2@@std@@PAPAX@?$tuple@ABV?$basic_string@DU?$char_traits@D@std@@V?$allocator@D@2@@std@@@std@@QAE@$$QAV01@@Z
	??$forward@V?$tuple@ABV?$basic_string@DU?$char_traits@D@std@@V?$allocator@D@2@@std@@@std@@@std@@YA$$QAV?$tuple@ABV?$basic_string@DU?$char_traits@D@std@@V?$allocator@D@2@@std@@@0@AAV10@@Z
	??$_Buynode@ABUpiecewise_construct_t@std@@V?$tuple@ABV?$basic_string@DU?$char_traits@D@std@@V?$allocator@D@2@@std@@@2@V?$tuple@$$$V@2@@?$_Tree_buy@U?$pair@$$CBV?$basic_string@DU?$char_traits@D@std@@V?$allocator@D@2@@std@@V12@@std@@V?$allocator@U?$pair@$$CBV?$basic_string@DU?$char_traits@D@std@@V?$allocator@D@2@@std@@V12@@std@@@2@@std@@QAEPAU?$_Tree_node@U?$pair@$$CBV?$basic_string@DU?$char_traits@D@std@@V?$allocator@D@2@@std@@V12@@std@@PAX@1@ABUpiecewise_construct_t@1@$$QAV?$tuple@ABV?$basic_string@DU?$char_traits@D@std@@V?$allocator@D@2@@std@@@1@$$QAV?$tuple@$$$V@1@@Z
	??$forward@AAPAD@std@@YAAAPADAAPAD@Z
	??$construct@PADAAPAD@?$allocator_traits@V?$allocator@D@std@@@std@@SAXAAV?$allocator@D@1@PAPADAAPAD@Z
	??$destroy@PAD@?$allocator_traits@V?$allocator@D@std@@@std@@SAXAAV?$allocator@D@1@PAPAD@Z
	??$_Destroy_range@U?$_Wrap_alloc@V?$allocator@E@std@@@std@@@std@@YAXPAE0AAU?$_Wrap_alloc@V?$allocator@E@std@@@0@U_Scalar_ptr_iterator_tag@0@@Z
	??$_Uninitialized_move@PAEPAEU?$_Wrap_alloc@V?$allocator@E@std@@@std@@@std@@YAPAEPAE00AAU?$_Wrap_alloc@V?$allocator@E@std@@@0@@Z
	??$destroy@PAU?$_Tree_node@U?$pair@$$CBV?$basic_string@DU?$char_traits@D@std@@V?$allocator@D@2@@std@@V12@@std@@PAX@std@@@?$allocator_traits@V?$allocator@U?$_Tree_node@U?$pair@$$CBV?$basic_string@DU?$char_traits@D@std@@V?$allocator@D@2@@std@@V12@@std@@PAX@std@@@std@@@std@@SAXAAV?$allocator@U?$_Tree_node@U?$pair@$$CBV?$basic_string@DU?$char_traits@D@std@@V?$allocator@D@2@@std@@V12@@std@@PAX@std@@@1@PAPAU?$_Tree_node@U?$pair@$$CBV?$basic_string@DU?$char_traits@D@std@@V?$allocator@D@2@@std@@V12@@std@@PAX@1@@Z
	??$destroy@U?$pair@$$CBV?$basic_string@DU?$char_traits@D@std@@V?$allocator@D@2@@std@@V12@@std@@@?$allocator_traits@V?$allocator@U?$_Tree_node@U?$pair@$$CBV?$basic_string@DU?$char_traits@D@std@@V?$allocator@D@2@@std@@V12@@std@@PAX@std@@@std@@@std@@SAXAAV?$allocator@U?$_Tree_node@U?$pair@$$CBV?$basic_string@DU?$char_traits@D@std@@V?$allocator@D@2@@std@@V12@@std@@PAX@std@@@1@PAU?$pair@$$CBV?$basic_string@DU?$char_traits@D@std@@V?$allocator@D@2@@std@@V12@@1@@Z
	??$forward@AAPAU?$_Tree_node@U?$pair@$$CBV?$basic_string@DU?$char_traits@D@std@@V?$allocator@D@2@@std@@V12@@std@@PAX@std@@@std@@YAAAPAU?$_Tree_node@U?$pair@$$CBV?$basic_string@DU?$char_traits@D@std@@V?$allocator@D@2@@std@@V12@@std@@PAX@0@AAPAU10@@Z
	??$construct@PAU?$_Tree_node@U?$pair@$$CBV?$basic_string@DU?$char_traits@D@std@@V?$allocator@D@2@@std@@V12@@std@@PAX@std@@AAPAU12@@?$allocator_traits@V?$allocator@U?$_Tree_node@U?$pair@$$CBV?$basic_string@DU?$char_traits@D@std@@V?$allocator@D@2@@std@@V12@@std@@PAX@std@@@std@@@std@@SAXAAV?$allocator@U?$_Tree_node@U?$pair@$$CBV?$basic_string@DU?$char_traits@D@std@@V?$allocator@D@2@@std@@V12@@std@@PAX@std@@@1@PAPAU?$_Tree_node@U?$pair@$$CBV?$basic_string@DU?$char_traits@D@std@@V?$allocator@D@2@@std@@V12@@std@@PAX@1@AAPAU31@@Z
	??$?0ABV?$basic_string@DU?$char_traits@D@std@@V?$allocator@D@2@@std@@@?$_Tuple_val@ABV?$basic_string@DU?$char_traits@D@std@@V?$allocator@D@2@@std@@@std@@QAE@ABV?$basic_string@DU?$char_traits@D@std@@V?$allocator@D@2@@1@@Z
	??$forward@AAU?$pair@$$CBV?$basic_string@DU?$char_traits@D@std@@V?$allocator@D@2@@std@@V12@@std@@@std@@YAAAU?$pair@$$CBV?$basic_string@DU?$char_traits@D@std@@V?$allocator@D@2@@std@@V12@@0@AAU10@@Z
	??$_Insert_at@AAU?$pair@$$CBV?$basic_string@DU?$char_traits@D@std@@V?$allocator@D@2@@std@@V12@@std@@PAU?$_Tree_node@U?$pair@$$CBV?$basic_string@DU?$char_traits@D@std@@V?$allocator@D@2@@std@@V12@@std@@PAX@2@@?$_Tree@V?$_Tmap_traits@V?$basic_string@DU?$char_traits@D@std@@V?$allocator@D@2@@std@@V12@U?$less@V?$basic_string@DU?$char_traits@D@std@@V?$allocator@D@2@@std@@@2@V?$allocator@U?$pair@$$CBV?$basic_string@DU?$char_traits@D@std@@V?$allocator@D@2@@std@@V12@@std@@@2@$0A@@std@@@std@@IAE?AV?$_Tree_iterator@V?$_Tree_val@U?$_Tree_simple_types@U?$pair@$$CBV?$basic_string@DU?$char_traits@D@std@@V?$allocator@D@2@@std@@V12@@std@@@std@@@std@@@1@_NPAU?$_Tree_node@U?$pair@$$CBV?$basic_string@DU?$char_traits@D@std@@V?$allocator@D@2@@std@@V12@@std@@PAX@1@AAU?$pair@$$CBV?$basic_string@DU?$char_traits@D@std@@V?$allocator@D@2@@std@@V12@@1@1@Z
	??$_Insert_nohint@AAU?$pair@$$CBV?$basic_string@DU?$char_traits@D@std@@V?$allocator@D@2@@std@@V12@@std@@PAU?$_Tree_node@U?$pair@$$CBV?$basic_string@DU?$char_traits@D@std@@V?$allocator@D@2@@std@@V12@@std@@PAX@2@@?$_Tree@V?$_Tmap_traits@V?$basic_string@DU?$char_traits@D@std@@V?$allocator@D@2@@std@@V12@U?$less@V?$basic_string@DU?$char_traits@D@std@@V?$allocator@D@2@@std@@@2@V?$allocator@U?$pair@$$CBV?$basic_string@DU?$char_traits@D@std@@V?$allocator@D@2@@std@@V12@@std@@@2@$0A@@std@@@std@@IAE?AU?$pair@V?$_Tree_iterator@V?$_Tree_val@U?$_Tree_simple_types@U?$pair@$$CBV?$basic_string@DU?$char_traits@D@std@@V?$allocator@D@2@@std@@V12@@std@@@std@@@std@@@std@@_N@1@_NAAU?$pair@$$CBV?$basic_string@DU?$char_traits@D@std@@V?$allocator@D@2@@std@@V12@@1@PAU?$_Tree_node@U?$pair@$$CBV?$basic_string@DU?$char_traits@D@std@@V?$allocator@D@2@@std@@V12@@std@@PAX@1@@Z
	??$construct@U?$pair@$$CBV?$basic_string@DU?$char_traits@D@std@@V?$allocator@D@2@@std@@V12@@std@@ABUpiecewise_construct_t@2@V?$tuple@ABV?$basic_string@DU?$char_traits@D@std@@V?$allocator@D@2@@std@@@2@V?$tuple@$$$V@2@@?$_Wrap_alloc@V?$allocator@U?$_Tree_node@U?$pair@$$CBV?$basic_string@DU?$char_traits@D@std@@V?$allocator@D@2@@std@@V12@@std@@PAX@std@@@std@@@std@@QAEXPAU?$pair@$$CBV?$basic_string@DU?$char_traits@D@std@@V?$allocator@D@2@@std@@V12@@1@ABUpiecewise_construct_t@1@$$QAV?$tuple@ABV?$basic_string@DU?$char_traits@D@std@@V?$allocator@D@2@@std@@@1@$$QAV?$tuple@$$$V@1@@Z
	??$construct@PADAAPAD@?$allocator@D@std@@QAEXPAPADAAPAD@Z
	??$destroy@PAD@?$allocator@D@std@@QAEXPAPAD@Z
	??$_Unchecked@PAE@std@@YAPAEPAE@Z
	??$_Uninit_move@PAEPAEU?$_Wrap_alloc@V?$allocator@E@std@@@std@@@std@@YAPAEPAE00AAU?$_Wrap_alloc@V?$allocator@E@std@@@0@@Z
	??$_Rechecked@PAEPAE@std@@YAAAPAEAAPAEPAE@Z
	??$destroy@PAU?$_Tree_node@U?$pair@$$CBV?$basic_string@DU?$char_traits@D@std@@V?$allocator@D@2@@std@@V12@@std@@PAX@std@@@?$allocator@U?$_Tree_node@U?$pair@$$CBV?$basic_string@DU?$char_traits@D@std@@V?$allocator@D@2@@std@@V12@@std@@PAX@std@@@std@@QAEXPAPAU?$_Tree_node@U?$pair@$$CBV?$basic_string@DU?$char_traits@D@std@@V?$allocator@D@2@@std@@V12@@std@@PAX@1@@Z
	??$destroy@U?$pair@$$CBV?$basic_string@DU?$char_traits@D@std@@V?$allocator@D@2@@std@@V12@@std@@@?$allocator@U?$_Tree_node@U?$pair@$$CBV?$basic_string@DU?$char_traits@D@std@@V?$allocator@D@2@@std@@V12@@std@@PAX@std@@@std@@QAEXPAU?$pair@$$CBV?$basic_string@DU?$char_traits@D@std@@V?$allocator@D@2@@std@@V12@@1@@Z
	??$construct@PAU?$_Tree_node@U?$pair@$$CBV?$basic_string@DU?$char_traits@D@std@@V?$allocator@D@2@@std@@V12@@std@@PAX@std@@AAPAU12@@?$allocator@U?$_Tree_node@U?$pair@$$CBV?$basic_string@DU?$char_traits@D@std@@V?$allocator@D@2@@std@@V12@@std@@PAX@std@@@std@@QAEXPAPAU?$_Tree_node@U?$pair@$$CBV?$basic_string@DU?$char_traits@D@std@@V?$allocator@D@2@@std@@V12@@std@@PAX@1@AAPAU21@@Z
	??$_Buynode_if_nil@AAU?$pair@$$CBV?$basic_string@DU?$char_traits@D@std@@V?$allocator@D@2@@std@@V12@@std@@@?$_Tree@V?$_Tmap_traits@V?$basic_string@DU?$char_traits@D@std@@V?$allocator@D@2@@std@@V12@U?$less@V?$basic_string@DU?$char_traits@D@std@@V?$allocator@D@2@@std@@@2@V?$allocator@U?$pair@$$CBV?$basic_string@DU?$char_traits@D@std@@V?$allocator@D@2@@std@@V12@@std@@@2@$0A@@std@@@std@@IAEPAU?$_Tree_node@U?$pair@$$CBV?$basic_string@DU?$char_traits@D@std@@V?$allocator@D@2@@std@@V12@@std@@PAX@1@PAU21@AAU?$pair@$$CBV?$basic_string@DU?$char_traits@D@std@@V?$allocator@D@2@@std@@V12@@1@@Z
	??$?0V?$_Tree_iterator@V?$_Tree_val@U?$_Tree_simple_types@U?$pair@$$CBV?$basic_string@DU?$char_traits@D@std@@V?$allocator@D@2@@std@@V12@@std@@@std@@@std@@@std@@_NX@?$pair@V?$_Tree_iterator@V?$_Tree_val@U?$_Tree_simple_types@U?$pair@$$CBV?$basic_string@DU?$char_traits@D@std@@V?$allocator@D@2@@std@@V12@@std@@@std@@@std@@@std@@_N@std@@QAE@$$QAV?$_Tree_iterator@V?$_Tree_val@U?$_Tree_simple_types@U?$pair@$$CBV?$basic_string@DU?$char_traits@D@std@@V?$allocator@D@2@@std@@V12@@std@@@std@@@std@@@1@$$QA_N@Z
	??$?0AAV?$_Tree_iterator@V?$_Tree_val@U?$_Tree_simple_types@U?$pair@$$CBV?$basic_string@DU?$char_traits@D@std@@V?$allocator@D@2@@std@@V12@@std@@@std@@@std@@@std@@_NX@?$pair@V?$_Tree_iterator@V?$_Tree_val@U?$_Tree_simple_types@U?$pair@$$CBV?$basic_string@DU?$char_traits@D@std@@V?$allocator@D@2@@std@@V12@@std@@@std@@@std@@@std@@_N@std@@QAE@AAV?$_Tree_iterator@V?$_Tree_val@U?$_Tree_simple_types@U?$pair@$$CBV?$basic_string@DU?$char_traits@D@std@@V?$allocator@D@2@@std@@V12@@std@@@std@@@std@@@1@$$QA_N@Z
	??$construct@U?$pair@$$CBV?$basic_string@DU?$char_traits@D@std@@V?$allocator@D@2@@std@@V12@@std@@ABUpiecewise_construct_t@2@V?$tuple@ABV?$basic_string@DU?$char_traits@D@std@@V?$allocator@D@2@@std@@@2@V?$tuple@$$$V@2@@?$allocator_traits@V?$allocator@U?$_Tree_node@U?$pair@$$CBV?$basic_string@DU?$char_traits@D@std@@V?$allocator@D@2@@std@@V12@@std@@PAX@std@@@std@@@std@@SAXAAV?$allocator@U?$_Tree_node@U?$pair@$$CBV?$basic_string@DU?$char_traits@D@std@@V?$allocator@D@2@@std@@V12@@std@@PAX@std@@@1@PAU?$pair@$$CBV?$basic_string@DU?$char_traits@D@std@@V?$allocator@D@2@@std@@V12@@1@ABUpiecewise_construct_t@1@$$QAV?$tuple@ABV?$basic_string@DU?$char_traits@D@std@@V?$allocator@D@2@@std@@@1@$$QAV?$tuple@$$$V@1@@Z
	??$_Uninit_move@EEE@std@@YAPAEPAE00AAU?$_Wrap_alloc@V?$allocator@E@std@@@0@0U_Scalar_ptr_iterator_tag@0@@Z
	??$forward@V?$_Tree_iterator@V?$_Tree_val@U?$_Tree_simple_types@U?$pair@$$CBV?$basic_string@DU?$char_traits@D@std@@V?$allocator@D@2@@std@@V12@@std@@@std@@@std@@@std@@@std@@YA$$QAV?$_Tree_iterator@V?$_Tree_val@U?$_Tree_simple_types@U?$pair@$$CBV?$basic_string@DU?$char_traits@D@std@@V?$allocator@D@2@@std@@V12@@std@@@std@@@std@@@0@AAV10@@Z
	??$forward@_N@std@@YA$$QA_NAA_N@Z
	??$forward@AAV?$_Tree_iterator@V?$_Tree_val@U?$_Tree_simple_types@U?$pair@$$CBV?$basic_string@DU?$char_traits@D@std@@V?$allocator@D@2@@std@@V12@@std@@@std@@@std@@@std@@@std@@YAAAV?$_Tree_iterator@V?$_Tree_val@U?$_Tree_simple_types@U?$pair@$$CBV?$basic_string@DU?$char_traits@D@std@@V?$allocator@D@2@@std@@V12@@std@@@std@@@std@@@0@AAV10@@Z
	??$construct@U?$pair@$$CBV?$basic_string@DU?$char_traits@D@std@@V?$allocator@D@2@@std@@V12@@std@@ABUpiecewise_construct_t@2@V?$tuple@ABV?$basic_string@DU?$char_traits@D@std@@V?$allocator@D@2@@std@@@2@V?$tuple@$$$V@2@@?$allocator@U?$_Tree_node@U?$pair@$$CBV?$basic_string@DU?$char_traits@D@std@@V?$allocator@D@2@@std@@V12@@std@@PAX@std@@@std@@QAEXPAU?$pair@$$CBV?$basic_string@DU?$char_traits@D@std@@V?$allocator@D@2@@std@@V12@@1@ABUpiecewise_construct_t@1@$$QAV?$tuple@ABV?$basic_string@DU?$char_traits@D@std@@V?$allocator@D@2@@std@@@1@$$QAV?$tuple@$$$V@1@@Z
	??$?0ABV?$basic_string@DU?$char_traits@D@std@@V?$allocator@D@2@@std@@$$$V@?$pair@$$CBV?$basic_string@DU?$char_traits@D@std@@V?$allocator@D@2@@std@@V12@@std@@QAE@Upiecewise_construct_t@1@V?$tuple@ABV?$basic_string@DU?$char_traits@D@std@@V?$allocator@D@2@@std@@@1@V?$tuple@$$$V@1@@Z
	??$?0V?$tuple@ABV?$basic_string@DU?$char_traits@D@std@@V?$allocator@D@2@@std@@@std@@V?$tuple@$$$V@1@$0A@$S@?$pair@$$CBV?$basic_string@DU?$char_traits@D@std@@V?$allocator@D@2@@std@@V12@@std@@QAE@AAV?$tuple@ABV?$basic_string@DU?$char_traits@D@std@@V?$allocator@D@2@@std@@@1@AAV?$tuple@$$$V@1@U?$_Arg_idx@$0A@@1@U?$_Arg_idx@$S@1@@Z
	??$move@AAV?$tuple@ABV?$basic_string@DU?$char_traits@D@std@@V?$allocator@D@2@@std@@@std@@@std@@YA$$QAV?$tuple@ABV?$basic_string@DU?$char_traits@D@std@@V?$allocator@D@2@@std@@@0@AAV10@@Z
	??$get@$0A@ABV?$basic_string@DU?$char_traits@D@std@@V?$allocator@D@2@@std@@@std@@YAABV?$basic_string@DU?$char_traits@D@std@@V?$allocator@D@2@@0@$$QAV?$tuple@ABV?$basic_string@DU?$char_traits@D@std@@V?$allocator@D@2@@std@@@0@@Z
	?_Generic_object@?$_Error_objects@H@std@@2V_Generic_error_category@2@A 	 DATA
	?_Iostream_object@?$_Error_objects@H@std@@2V_Iostream_error_category@2@A 	 DATA
	?_System_object@?$_Error_objects@H@std@@2V_System_error_category@2@A 	 DATA
	?id@?$num_put@DV?$back_insert_iterator@V?$basic_string@DU?$char_traits@D@std@@V?$allocator@D@2@@std@@@std@@@std@@2V0locale@2@A 	 DATA
	?id@?$num_put@_WV?$back_insert_iterator@V?$basic_string@_WU?$char_traits@_W@std@@V?$allocator@_W@2@@std@@@std@@@std@@2V0locale@2@A 	 DATA
	??_R0?AVerror_category@std@@@8 	 DATA
	??_R0?AV_Generic_error_category@std@@@8 	 DATA
	??_R0?AV_Iostream_error_category@std@@@8 	 DATA
	??_R0?AV_System_error_category@std@@@8 	 DATA
	??_R0?AVTDatime@@@8 	 DATA
	hypot
	??2@YAPAXIPAX@Z
	??3@YAXPAX0@Z
	?length@?$char_traits@D@std@@SAIPBD@Z
	?copy@?$char_traits@D@std@@SAPADPADPBDI@Z
	?move@?$char_traits@D@std@@SAPADPADPBDI@Z
	?assign@?$char_traits@D@std@@SAXAADABD@Z
	??0?$allocator@D@std@@QAE@XZ
	?deallocate@?$allocator@D@std@@QAEXPADI@Z
	?allocate@?$allocator@D@std@@QAEPADI@Z
	?max_size@?$allocator@D@std@@QBEIXZ
	?max_size@?$allocator_traits@V?$allocator@D@std@@@std@@SAIABV?$allocator@D@2@@Z
	??0?$_Wrap_alloc@V?$allocator@D@std@@@std@@QAE@XZ
	?allocate@?$_Wrap_alloc@V?$allocator@D@std@@@std@@QAEPADI@Z
	?deallocate@?$_Wrap_alloc@V?$allocator@D@std@@@std@@QAEXPADI@Z
	?max_size@?$_Wrap_alloc@V?$allocator@D@std@@@std@@QBEIXZ
	??0?$_String_val@U?$_Simple_types@D@std@@@std@@QAE@XZ
	?_Myptr@?$_String_val@U?$_Simple_types@D@std@@@std@@QAEPADXZ
	?_Myptr@?$_String_val@U?$_Simple_types@D@std@@@std@@QBEPBDXZ
	??0?$_String_alloc@$0A@U?$_String_base_types@DV?$allocator@D@std@@@std@@@std@@QAE@ABV?$allocator@D@1@@Z
	?_Getal@?$_String_alloc@$0A@U?$_String_base_types@DV?$allocator@D@std@@@std@@@std@@QBE?AU?$_Wrap_alloc@V?$allocator@D@std@@@2@XZ
	??0?$basic_string@DU?$char_traits@D@std@@V?$allocator@D@2@@std@@QAE@PBD@Z
	??1?$basic_string@DU?$char_traits@D@std@@V?$allocator@D@2@@std@@QAE@XZ
	?assign@?$basic_string@DU?$char_traits@D@std@@V?$allocator@D@2@@std@@QAEAAV12@ABV12@II@Z
	?assign@?$basic_string@DU?$char_traits@D@std@@V?$allocator@D@2@@std@@QAEAAV12@PBDI@Z
	?assign@?$basic_string@DU?$char_traits@D@std@@V?$allocator@D@2@@std@@QAEAAV12@PBD@Z
	?erase@?$basic_string@DU?$char_traits@D@std@@V?$allocator@D@2@@std@@QAEAAV12@I@Z
	?erase@?$basic_string@DU?$char_traits@D@std@@V?$allocator@D@2@@std@@QAEAAV12@II@Z
	?size@?$basic_string@DU?$char_traits@D@std@@V?$allocator@D@2@@std@@QBEIXZ
	?max_size@?$basic_string@DU?$char_traits@D@std@@V?$allocator@D@2@@std@@QBEIXZ
	?_Copy@?$basic_string@DU?$char_traits@D@std@@V?$allocator@D@2@@std@@QAEXII@Z
	?_Eos@?$basic_string@DU?$char_traits@D@std@@V?$allocator@D@2@@std@@QAEXI@Z
	?_Grow@?$basic_string@DU?$char_traits@D@std@@V?$allocator@D@2@@std@@QAE_NI_N@Z
	?_Inside@?$basic_string@DU?$char_traits@D@std@@V?$allocator@D@2@@std@@QAE_NPBD@Z
	?_Tidy@?$basic_string@DU?$char_traits@D@std@@V?$allocator@D@2@@std@@QAEX_NI@Z
	?_Xlen@?$basic_string@DU?$char_traits@D@std@@V?$allocator@D@2@@std@@QBEXXZ
	?_Xran@?$basic_string@DU?$char_traits@D@std@@V?$allocator@D@2@@std@@QBEXXZ
	?generic_category@std@@YAABVerror_category@1@XZ
	?system_category@std@@YAABVerror_category@1@XZ
	??0error_category@std@@QAE@XZ
	??1error_category@std@@UAE@XZ
	?default_error_condition@error_category@std@@UBE?AVerror_condition@2@H@Z
	?equivalent@error_category@std@@UBE_NHABVerror_condition@2@@Z
	?equivalent@error_category@std@@UBE_NABVerror_code@2@H@Z
	??8error_category@std@@QBE_NABV01@@Z
	?value@error_code@std@@QBEHXZ
	?category@error_code@std@@QBEABVerror_category@2@XZ
	??0error_condition@std@@QAE@HABVerror_category@1@@Z
	?value@error_condition@std@@QBEHXZ
	?category@error_condition@std@@QBEABVerror_category@2@XZ
	??8error_condition@std@@QBE_NABV01@@Z
	??0_Generic_error_category@std@@QAE@XZ
	?name@_Generic_error_category@std@@UBEPBDXZ
	?message@_Generic_error_category@std@@UBE?AV?$basic_string@DU?$char_traits@D@std@@V?$allocator@D@2@@2@H@Z
	??1_Generic_error_category@std@@UAE@XZ
	??0_Iostream_error_category@std@@QAE@XZ
	?name@_Iostream_error_category@std@@UBEPBDXZ
	?message@_Iostream_error_category@std@@UBE?AV?$basic_string@DU?$char_traits@D@std@@V?$allocator@D@2@@2@H@Z
	??1_Iostream_error_category@std@@UAE@XZ
	??0_System_error_category@std@@QAE@XZ
	?name@_System_error_category@std@@UBEPBDXZ
	?message@_System_error_category@std@@UBE?AV?$basic_string@DU?$char_traits@D@std@@V?$allocator@D@2@@2@H@Z
	?default_error_condition@_System_error_category@std@@UBE?AVerror_condition@2@H@Z
	??1_System_error_category@std@@UAE@XZ
	?IsLong@TString@@ABE_NXZ
	?GetLongPointer@TString@@ABEPBDXZ
	?GetShortPointer@TString@@ABEPBDXZ
	?GetPointer@TString@@ABEPBDXZ
	?Data@TString@@QBEPBDXZ
	??0TDatime@@QAE@I_N@Z
	??1TDatime@@UAE@XZ
	?IsA@TDatime@@UBEPAVTClass@@XZ
	??0_Ignore@std@@QAE@XZ
	?SetFlag@EdbRunHeader@@QAEXHH@Z
	?GetHeader@EdbRun@@QBEPAVEdbRunHeader@@XZ
	?MCEvt@EdbSegP@@QBEHXZ
	?ID@EdbSegP@@QBEHXZ
	?SX@EdbSegP@@QBEMXZ
	?SY@EdbSegP@@QBEMXZ
	?GetSegment@EdbSegmentsBox@@QBEPAVEdbSegP@@H@Z
	?RcvLine@EdbScanClientSysal@@QAEHPAVTSocket@@PADH@Z
	?UnloadPlate@EdbScanClientSysal@@UAEHXZ
	?LoadPlate@EdbScanClientSysal@@UAEHHHPBDH@Z
	?SetParameter@EdbScanClientSysal@@UAEXPBD00@Z
	?SetClusterThresholds@EdbScanClientSysal@@UAEXHH@Z
	?SetOdysseyThresholds@EdbScanClientSysal@@UAEXHHHHH@Z
	?SetFragmentSize@EdbScanClientSysal@@UAEHHH@Z
	?ScanAreas@EdbScanClientSysal@@UAEHW4ScanType@EdbScanClientBase@@QAHAAVEdbPattern@@PAVEdbRun@@PBD@Z
	?AsyncScanAreaS@EdbScanClientSysal@@UAEXHHHHMMMMPBD@Z
	?AsyncScanPreloadAreaS@EdbScanClientSysal@@UAEXHHHHMMMMPBDMMMM@Z
	?AsyncWaitForScanResult@EdbScanClientSysal@@UAEHXZ
	?Print@EdbScanClientSysal@@UAEXXZ
	??$construct@PADAAPAD@?$_Wrap_alloc@V?$allocator@D@std@@@std@@QAEXPAPADAAPAD@Z
	??$destroy@PAD@?$_Wrap_alloc@V?$allocator@D@std@@@std@@QAEXPAPAD@Z
	??$addressof@D@std@@YAPADAAD@Z
	??$_Allocate@D@std@@YAPADIPAD@Z
	??$forward@AAPAD@std@@YAAAPADAAPAD@Z
	??$construct@PADAAPAD@?$allocator_traits@V?$allocator@D@std@@@std@@SAXAAV?$allocator@D@1@PAPADAAPAD@Z
	??$destroy@PAD@?$allocator_traits@V?$allocator@D@std@@@std@@SAXAAV?$allocator@D@1@PAPAD@Z
	??$construct@PADAAPAD@?$allocator@D@std@@QAEXPAPADAAPAD@Z
	??$destroy@PAD@?$allocator@D@std@@QAEXPAPAD@Z
	?_Generic_object@?$_Error_objects@H@std@@2V_Generic_error_category@2@A 	 DATA
	?_Iostream_object@?$_Error_objects@H@std@@2V_Iostream_error_category@2@A 	 DATA
	?_System_object@?$_Error_objects@H@std@@2V_System_error_category@2@A 	 DATA
	?id@?$num_put@DV?$back_insert_iterator@V?$basic_string@DU?$char_traits@D@std@@V?$allocator@D@2@@std@@@std@@@std@@2V0locale@2@A 	 DATA
	?id@?$num_put@_WV?$back_insert_iterator@V?$basic_string@_WU?$char_traits@_W@std@@V?$allocator@_W@2@@std@@@std@@@std@@2V0locale@2@A 	 DATA
	??_R0?AVerror_category@std@@@8 	 DATA
	??_R0?AV_Generic_error_category@std@@@8 	 DATA
	??_R0?AV_Iostream_error_category@std@@@8 	 DATA
	??_R0?AV_System_error_category@std@@@8 	 DATA
	??_R0?AVTDatime@@@8 	 DATA
	hypot
	??2@YAPAXIPAX@Z
	??3@YAXPAX0@Z
	?length@?$char_traits@D@std@@SAIPBD@Z
	?copy@?$char_traits@D@std@@SAPADPADPBDI@Z
	?move@?$char_traits@D@std@@SAPADPADPBDI@Z
	?assign@?$char_traits@D@std@@SAXAADABD@Z
	??0?$allocator@D@std@@QAE@XZ
	?deallocate@?$allocator@D@std@@QAEXPADI@Z
	?allocate@?$allocator@D@std@@QAEPADI@Z
	?max_size@?$allocator@D@std@@QBEIXZ
	?max_size@?$allocator_traits@V?$allocator@D@std@@@std@@SAIABV?$allocator@D@2@@Z
	??0?$_Wrap_alloc@V?$allocator@D@std@@@std@@QAE@XZ
	?allocate@?$_Wrap_alloc@V?$allocator@D@std@@@std@@QAEPADI@Z
	?deallocate@?$_Wrap_alloc@V?$allocator@D@std@@@std@@QAEXPADI@Z
	?max_size@?$_Wrap_alloc@V?$allocator@D@std@@@std@@QBEIXZ
	??0?$_String_val@U?$_Simple_types@D@std@@@std@@QAE@XZ
	?_Myptr@?$_String_val@U?$_Simple_types@D@std@@@std@@QAEPADXZ
	?_Myptr@?$_String_val@U?$_Simple_types@D@std@@@std@@QBEPBDXZ
	??0?$_String_alloc@$0A@U?$_String_base_types@DV?$allocator@D@std@@@std@@@std@@QAE@ABV?$allocator@D@1@@Z
	?_Getal@?$_String_alloc@$0A@U?$_String_base_types@DV?$allocator@D@std@@@std@@@std@@QBE?AU?$_Wrap_alloc@V?$allocator@D@std@@@2@XZ
	??0?$basic_string@DU?$char_traits@D@std@@V?$allocator@D@2@@std@@QAE@XZ
	??0?$basic_string@DU?$char_traits@D@std@@V?$allocator@D@2@@std@@QAE@PBD@Z
	??1?$basic_string@DU?$char_traits@D@std@@V?$allocator@D@2@@std@@QAE@XZ
	??4?$basic_string@DU?$char_traits@D@std@@V?$allocator@D@2@@std@@QAEAAV01@PBD@Z
	?assign@?$basic_string@DU?$char_traits@D@std@@V?$allocator@D@2@@std@@QAEAAV12@ABV12@II@Z
	?assign@?$basic_string@DU?$char_traits@D@std@@V?$allocator@D@2@@std@@QAEAAV12@PBDI@Z
	?assign@?$basic_string@DU?$char_traits@D@std@@V?$allocator@D@2@@std@@QAEAAV12@PBD@Z
	?erase@?$basic_string@DU?$char_traits@D@std@@V?$allocator@D@2@@std@@QAEAAV12@I@Z
	?erase@?$basic_string@DU?$char_traits@D@std@@V?$allocator@D@2@@std@@QAEAAV12@II@Z
	?c_str@?$basic_string@DU?$char_traits@D@std@@V?$allocator@D@2@@std@@QBEPBDXZ
	?length@?$basic_string@DU?$char_traits@D@std@@V?$allocator@D@2@@std@@QBEIXZ
	?size@?$basic_string@DU?$char_traits@D@std@@V?$allocator@D@2@@std@@QBEIXZ
	?max_size@?$basic_string@DU?$char_traits@D@std@@V?$allocator@D@2@@std@@QBEIXZ
	?_Copy@?$basic_string@DU?$char_traits@D@std@@V?$allocator@D@2@@std@@QAEXII@Z
	?_Eos@?$basic_string@DU?$char_traits@D@std@@V?$allocator@D@2@@std@@QAEXI@Z
	?_Grow@?$basic_string@DU?$char_traits@D@std@@V?$allocator@D@2@@std@@QAE_NI_N@Z
	?_Inside@?$basic_string@DU?$char_traits@D@std@@V?$allocator@D@2@@std@@QAE_NPBD@Z
	?_Tidy@?$basic_string@DU?$char_traits@D@std@@V?$allocator@D@2@@std@@QAEX_NI@Z
	?_Xlen@?$basic_string@DU?$char_traits@D@std@@V?$allocator@D@2@@std@@QBEXXZ
	?_Xran@?$basic_string@DU?$char_traits@D@std@@V?$allocator@D@2@@std@@QBEXXZ
	?generic_category@std@@YAABVerror_category@1@XZ
	?system_category@std@@YAABVerror_category@1@XZ
	??0error_category@std@@QAE@XZ
	??1error_category@std@@UAE@XZ
	?default_error_condition@error_category@std@@UBE?AVerror_condition@2@H@Z
	?equivalent@error_category@std@@UBE_NHABVerror_condition@2@@Z
	?equivalent@error_category@std@@UBE_NABVerror_code@2@H@Z
	??8error_category@std@@QBE_NABV01@@Z
	?value@error_code@std@@QBEHXZ
	?category@error_code@std@@QBEABVerror_category@2@XZ
	??0error_condition@std@@QAE@HABVerror_category@1@@Z
	?value@error_condition@std@@QBEHXZ
	?category@error_condition@std@@QBEABVerror_category@2@XZ
	??8error_condition@std@@QBE_NABV01@@Z
	??0_Generic_error_category@std@@QAE@XZ
	?name@_Generic_error_category@std@@UBEPBDXZ
	?message@_Generic_error_category@std@@UBE?AV?$basic_string@DU?$char_traits@D@std@@V?$allocator@D@2@@2@H@Z
	??1_Generic_error_category@std@@UAE@XZ
	??0_Iostream_error_category@std@@QAE@XZ
	?name@_Iostream_error_category@std@@UBEPBDXZ
	?message@_Iostream_error_category@std@@UBE?AV?$basic_string@DU?$char_traits@D@std@@V?$allocator@D@2@@2@H@Z
	??1_Iostream_error_category@std@@UAE@XZ
	??0_System_error_category@std@@QAE@XZ
	?name@_System_error_category@std@@UBEPBDXZ
	?message@_System_error_category@std@@UBE?AV?$basic_string@DU?$char_traits@D@std@@V?$allocator@D@2@@2@H@Z
	?default_error_condition@_System_error_category@std@@UBE?AVerror_condition@2@H@Z
	??1_System_error_category@std@@UAE@XZ
	??1TiXmlVisitor@@UAE@XZ
	?VisitEnter@TiXmlVisitor@@UAE_NABVTiXmlDocument@@@Z
	?VisitExit@TiXmlVisitor@@UAE_NABVTiXmlDocument@@@Z
	?VisitEnter@TiXmlVisitor@@UAE_NABVTiXmlElement@@PBVTiXmlAttribute@@@Z
	?VisitExit@TiXmlVisitor@@UAE_NABVTiXmlElement@@@Z
	?Visit@TiXmlVisitor@@UAE_NABVTiXmlDeclaration@@@Z
	?Visit@TiXmlVisitor@@UAE_NABVTiXmlText@@@Z
	?Visit@TiXmlVisitor@@UAE_NABVTiXmlComment@@@Z
	?Visit@TiXmlVisitor@@UAE_NABVTiXmlUnknown@@@Z
	??0TiXmlVisitor@@QAE@XZ
	?SetValue@TiXmlNode@@QAEXPBD@Z
	?ToDocument@TiXmlNode@@UBEPBVTiXmlDocument@@XZ
	?ToElement@TiXmlNode@@UBEPBVTiXmlElement@@XZ
	?ToComment@TiXmlNode@@UBEPBVTiXmlComment@@XZ
	?ToUnknown@TiXmlNode@@UBEPBVTiXmlUnknown@@XZ
	?ToDeclaration@TiXmlNode@@UBEPBVTiXmlDeclaration@@XZ
	?ToDocument@TiXmlNode@@UAEPAVTiXmlDocument@@XZ
	?ToElement@TiXmlNode@@UAEPAVTiXmlElement@@XZ
	?ToComment@TiXmlNode@@UAEPAVTiXmlComment@@XZ
	?ToUnknown@TiXmlNode@@UAEPAVTiXmlUnknown@@XZ
	?ToDeclaration@TiXmlNode@@UAEPAVTiXmlDeclaration@@XZ
	??0TiXmlText@@QAE@PBD@Z
	??1TiXmlText@@UAE@XZ
	?ToText@TiXmlText@@UBEPBV1@XZ
	?ToText@TiXmlText@@UAEPAV1@XZ
	??0TiXmlPrinter@@QAE@XZ
	?CStr@TiXmlPrinter@@QAEPBDXZ
	??1TiXmlPrinter@@UAE@XZ
	?Clean@MessageManager@@QAEXXZ
	?CreateMessage@MessageManager@@QAEXXZ
	?AddStopNode@MessageManager@@QAEXXZ
	?AddStartNode@MessageManager@@QAEXPBD00@Z
	?AddMarksNode@MessageManager@@QAEXHHPBD@Z
	?AddGetModuleParamsNode@MessageManager@@QAAXPBDZZ
	?AddSetModuleParamsNode@MessageManager@@QAAXPBDZZ
	?AddGetPathParamsNode@MessageManager@@QAAXPBD0ZZ
	?AddSetPathParamsNode@MessageManager@@QAAXPBD0ZZ
	?FillBuff@MessageManager@@QAEXXZ
	??$construct@PADAAPAD@?$_Wrap_alloc@V?$allocator@D@std@@@std@@QAEXPAPADAAPAD@Z
	??$destroy@PAD@?$_Wrap_alloc@V?$allocator@D@std@@@std@@QAEXPAPAD@Z
	??$addressof@D@std@@YAPADAAD@Z
	??$_Allocate@D@std@@YAPADIPAD@Z
	??$forward@AAPAD@std@@YAAAPADAAPAD@Z
	??$construct@PADAAPAD@?$allocator_traits@V?$allocator@D@std@@@std@@SAXAAV?$allocator@D@1@PAPADAAPAD@Z
	??$destroy@PAD@?$allocator_traits@V?$allocator@D@std@@@std@@SAXAAV?$allocator@D@1@PAPAD@Z
	??$construct@PADAAPAD@?$allocator@D@std@@QAEXPAPADAAPAD@Z
	??$destroy@PAD@?$allocator@D@std@@QAEXPAPAD@Z
	?_Generic_object@?$_Error_objects@H@std@@2V_Generic_error_category@2@A 	 DATA
	?_Iostream_object@?$_Error_objects@H@std@@2V_Iostream_error_category@2@A 	 DATA
	?_System_object@?$_Error_objects@H@std@@2V_System_error_category@2@A 	 DATA
	?id@?$num_put@DV?$back_insert_iterator@V?$basic_string@DU?$char_traits@D@std@@V?$allocator@D@2@@std@@@std@@@std@@2V0locale@2@A 	 DATA
	?id@?$num_put@_WV?$back_insert_iterator@V?$basic_string@_WU?$char_traits@_W@std@@V?$allocator@_W@2@@std@@@std@@@std@@2V0locale@2@A 	 DATA
	??_R0?AVerror_category@std@@@8 	 DATA
	??_R0?AV_Generic_error_category@std@@@8 	 DATA
	??_R0?AV_Iostream_error_category@std@@@8 	 DATA
	??_R0?AV_System_error_category@std@@@8 	 DATA
	??_R0?AVTiXmlNode@@@8 	 DATA
	??_R0?AVTiXmlBase@@@8 	 DATA
	??_R0?AVTiXmlText@@@8 	 DATA
	??_R0?AVTiXmlVisitor@@@8 	 DATA
	??_R0?AVTiXmlPrinter@@@8 	 DATA
	hypot
	??2@YAPAXIPAX@Z
	??3@YAXPAX0@Z
	?compare@?$char_traits@D@std@@SAHPBD0I@Z
	?length@?$char_traits@D@std@@SAIPBD@Z
	?copy@?$char_traits@D@std@@SAPADPADPBDI@Z
	?move@?$char_traits@D@std@@SAPADPADPBDI@Z
	?assign@?$char_traits@D@std@@SAXAADABD@Z
	?_Adopt@_Iterator_base0@std@@QAEXPBX@Z
	?_Fill_n@std@@YAPAEPAEIE@Z
	?select_on_container_copy_construction@?$allocator@D@std@@QBE?AV12@XZ
	??0?$allocator@D@std@@QAE@XZ
	??0?$allocator@D@std@@QAE@ABV01@@Z
	?deallocate@?$allocator@D@std@@QAEXPADI@Z
	?allocate@?$allocator@D@std@@QAEPADI@Z
	?max_size@?$allocator@D@std@@QBEIXZ
	?max_size@?$allocator_traits@V?$allocator@D@std@@@std@@SAIABV?$allocator@D@2@@Z
	?select_on_container_copy_construction@?$allocator_traits@V?$allocator@D@std@@@std@@SA?AV?$allocator@D@2@ABV32@@Z
	?select_on_container_copy_construction@?$_Wrap_alloc@V?$allocator@D@std@@@std@@QBE?AU12@XZ
	??0?$_Wrap_alloc@V?$allocator@D@std@@@std@@QAE@XZ
	??0?$_Wrap_alloc@V?$allocator@D@std@@@std@@QAE@ABV?$allocator@D@1@@Z
	?allocate@?$_Wrap_alloc@V?$allocator@D@std@@@std@@QAEPADI@Z
	?deallocate@?$_Wrap_alloc@V?$allocator@D@std@@@std@@QAEXPADI@Z
	?max_size@?$_Wrap_alloc@V?$allocator@D@std@@@std@@QBEIXZ
	??0?$_String_val@U?$_Simple_types@D@std@@@std@@QAE@XZ
	?_Myptr@?$_String_val@U?$_Simple_types@D@std@@@std@@QAEPADXZ
	?_Myptr@?$_String_val@U?$_Simple_types@D@std@@@std@@QBEPBDXZ
	??0?$_String_alloc@$0A@U?$_String_base_types@DV?$allocator@D@std@@@std@@@std@@QAE@ABV?$allocator@D@1@@Z
	?_Getal@?$_String_alloc@$0A@U?$_String_base_types@DV?$allocator@D@std@@@std@@@std@@QBE?AU?$_Wrap_alloc@V?$allocator@D@std@@@2@XZ
	??0?$basic_string@DU?$char_traits@D@std@@V?$allocator@D@2@@std@@QAE@ABV01@@Z
	??0?$basic_string@DU?$char_traits@D@std@@V?$allocator@D@2@@std@@QAE@XZ
	??0?$basic_string@DU?$char_traits@D@std@@V?$allocator@D@2@@std@@QAE@PBD@Z
	??1?$basic_string@DU?$char_traits@D@std@@V?$allocator@D@2@@std@@QAE@XZ
	??4?$basic_string@DU?$char_traits@D@std@@V?$allocator@D@2@@std@@QAEAAV01@PBD@Z
	??Y?$basic_string@DU?$char_traits@D@std@@V?$allocator@D@2@@std@@QAEAAV01@PBD@Z
	?append@?$basic_string@DU?$char_traits@D@std@@V?$allocator@D@2@@std@@QAEAAV12@ABV12@II@Z
	?append@?$basic_string@DU?$char_traits@D@std@@V?$allocator@D@2@@std@@QAEAAV12@PBDI@Z
	?append@?$basic_string@DU?$char_traits@D@std@@V?$allocator@D@2@@std@@QAEAAV12@PBD@Z
	?assign@?$basic_string@DU?$char_traits@D@std@@V?$allocator@D@2@@std@@QAEAAV12@ABV12@II@Z
	?assign@?$basic_string@DU?$char_traits@D@std@@V?$allocator@D@2@@std@@QAEAAV12@PBDI@Z
	?assign@?$basic_string@DU?$char_traits@D@std@@V?$allocator@D@2@@std@@QAEAAV12@PBD@Z
	?erase@?$basic_string@DU?$char_traits@D@std@@V?$allocator@D@2@@std@@QAEAAV12@I@Z
	?erase@?$basic_string@DU?$char_traits@D@std@@V?$allocator@D@2@@std@@QAEAAV12@II@Z
	?c_str@?$basic_string@DU?$char_traits@D@std@@V?$allocator@D@2@@std@@QBEPBDXZ
	?size@?$basic_string@DU?$char_traits@D@std@@V?$allocator@D@2@@std@@QBEIXZ
	?max_size@?$basic_string@DU?$char_traits@D@std@@V?$allocator@D@2@@std@@QBEIXZ
	?compare@?$basic_string@DU?$char_traits@D@std@@V?$allocator@D@2@@std@@QBEHABV12@@Z
	?compare@?$basic_string@DU?$char_traits@D@std@@V?$allocator@D@2@@std@@QBEHPBD@Z
	?compare@?$basic_string@DU?$char_traits@D@std@@V?$allocator@D@2@@std@@QBEHIIPBDI@Z
	?_Copy@?$basic_string@DU?$char_traits@D@std@@V?$allocator@D@2@@std@@QAEXII@Z
	?_Eos@?$basic_string@DU?$char_traits@D@std@@V?$allocator@D@2@@std@@QAEXI@Z
	?_Grow@?$basic_string@DU?$char_traits@D@std@@V?$allocator@D@2@@std@@QAE_NI_N@Z
	?_Inside@?$basic_string@DU?$char_traits@D@std@@V?$allocator@D@2@@std@@QAE_NPBD@Z
	?_Tidy@?$basic_string@DU?$char_traits@D@std@@V?$allocator@D@2@@std@@QAEX_NI@Z
	?_Xlen@?$basic_string@DU?$char_traits@D@std@@V?$allocator@D@2@@std@@QBEXXZ
	?_Xran@?$basic_string@DU?$char_traits@D@std@@V?$allocator@D@2@@std@@QBEXXZ
	?generic_category@std@@YAABVerror_category@1@XZ
	?system_category@std@@YAABVerror_category@1@XZ
	??0error_category@std@@QAE@XZ
	??1error_category@std@@UAE@XZ
	?default_error_condition@error_category@std@@UBE?AVerror_condition@2@H@Z
	?equivalent@error_category@std@@UBE_NHABVerror_condition@2@@Z
	?equivalent@error_category@std@@UBE_NABVerror_code@2@H@Z
	??8error_category@std@@QBE_NABV01@@Z
	?value@error_code@std@@QBEHXZ
	?category@error_code@std@@QBEABVerror_category@2@XZ
	??0error_condition@std@@QAE@HABVerror_category@1@@Z
	?value@error_condition@std@@QBEHXZ
	?category@error_condition@std@@QBEABVerror_category@2@XZ
	??8error_condition@std@@QBE_NABV01@@Z
	??0_Generic_error_category@std@@QAE@XZ
	?name@_Generic_error_category@std@@UBEPBDXZ
	?message@_Generic_error_category@std@@UBE?AV?$basic_string@DU?$char_traits@D@std@@V?$allocator@D@2@@2@H@Z
	??1_Generic_error_category@std@@UAE@XZ
	??0_Iostream_error_category@std@@QAE@XZ
	?name@_Iostream_error_category@std@@UBEPBDXZ
	?message@_Iostream_error_category@std@@UBE?AV?$basic_string@DU?$char_traits@D@std@@V?$allocator@D@2@@2@H@Z
	??1_Iostream_error_category@std@@UAE@XZ
	??0_System_error_category@std@@QAE@XZ
	?name@_System_error_category@std@@UBEPBDXZ
	?message@_System_error_category@std@@UBE?AV?$basic_string@DU?$char_traits@D@std@@V?$allocator@D@2@@2@H@Z
	?default_error_condition@_System_error_category@std@@UBE?AVerror_condition@2@H@Z
	??1_System_error_category@std@@UAE@XZ
	?Value@TiXmlNode@@QBEPBDXZ
	?ValueStr@TiXmlNode@@QBEABV?$basic_string@DU?$char_traits@D@std@@V?$allocator@D@2@@std@@XZ
	?NextSiblingElement@TiXmlNode@@QAEPAVTiXmlElement@@XZ
	?FirstChildElement@TiXmlNode@@QAEPAVTiXmlElement@@XZ
	?FirstChildElement@TiXmlNode@@QAEPAVTiXmlElement@@PBD@Z
	??$?8DU?$char_traits@D@std@@V?$allocator@D@1@@std@@YA_NABV?$basic_string@DU?$char_traits@D@std@@V?$allocator@D@2@@0@0@Z
	??$?MDU?$char_traits@D@std@@V?$allocator@D@1@@std@@YA_NABV?$basic_string@DU?$char_traits@D@std@@V?$allocator@D@2@@0@0@Z
	?Error@TiXmlDocument@@QBE_NXZ
	?ErrorDesc@TiXmlDocument@@QBEPBDXZ
	?ErrorRow@TiXmlDocument@@QBEHXZ
	?ErrorCol@TiXmlDocument@@QBEHXZ
	??0_Ignore@std@@QAE@XZ
	??0?$tuple@$$$V@std@@QAE@XZ
	??0?$tuple@$$$V@std@@QAE@ABV01@@Z
	?Load@MessageReader@@QAE_NPAEI@Z
	?Process@MessageReader@@QAEXXZ
	?ProcessStopNode@MessageReader@@QAEXPAVTiXmlElement@@@Z
	?ProcessStartNode@MessageReader@@QAEXPAVTiXmlElement@@@Z
	?ProcessMarksNode@MessageReader@@QAEXPAVTiXmlElement@@@Z
	?ProcessSMPNode@MessageReader@@QAEXPAVTiXmlElement@@@Z
	?ProcessSPPNode@MessageReader@@QAEXPAVTiXmlElement@@@Z
	?ProcessGMPNode@MessageReader@@QAEXPAVTiXmlElement@@@Z
	?ProcessGPPNode@MessageReader@@QAEXPAVTiXmlElement@@@Z
	?ProcessErrorNode@MessageReader@@QAEXPAVTiXmlElement@@@Z
	?GetErrorStr@MessageReader@@QAE?AV?$basic_string@DU?$char_traits@D@std@@V?$allocator@D@2@@std@@H@Z
	??R?$less@V?$basic_string@DU?$char_traits@D@std@@V?$allocator@D@2@@std@@@std@@QBE_NABV?$basic_string@DU?$char_traits@D@std@@V?$allocator@D@2@@1@0@Z
	??0?$allocator@U?$_Tree_node@U?$pair@$$CBV?$basic_string@DU?$char_traits@D@std@@V?$allocator@D@2@@std@@V12@@std@@PAX@std@@@std@@QAE@XZ
	?deallocate@?$allocator@U?$_Tree_node@U?$pair@$$CBV?$basic_string@DU?$char_traits@D@std@@V?$allocator@D@2@@std@@V12@@std@@PAX@std@@@std@@QAEXPAU?$_Tree_node@U?$pair@$$CBV?$basic_string@DU?$char_traits@D@std@@V?$allocator@D@2@@std@@V12@@std@@PAX@2@I@Z
	?allocate@?$allocator@U?$_Tree_node@U?$pair@$$CBV?$basic_string@DU?$char_traits@D@std@@V?$allocator@D@2@@std@@V12@@std@@PAX@std@@@std@@QAEPAU?$_Tree_node@U?$pair@$$CBV?$basic_string@DU?$char_traits@D@std@@V?$allocator@D@2@@std@@V12@@std@@PAX@2@I@Z
	?max_size@?$allocator@U?$_Tree_node@U?$pair@$$CBV?$basic_string@DU?$char_traits@D@std@@V?$allocator@D@2@@std@@V12@@std@@PAX@std@@@std@@QBEIXZ
	?max_size@?$allocator_traits@V?$allocator@U?$_Tree_node@U?$pair@$$CBV?$basic_string@DU?$char_traits@D@std@@V?$allocator@D@2@@std@@V12@@std@@PAX@std@@@std@@@std@@SAIABV?$allocator@U?$_Tree_node@U?$pair@$$CBV?$basic_string@DU?$char_traits@D@std@@V?$allocator@D@2@@std@@V12@@std@@PAX@std@@@2@@Z
	??0?$_Wrap_alloc@V?$allocator@U?$_Tree_node@U?$pair@$$CBV?$basic_string@DU?$char_traits@D@std@@V?$allocator@D@2@@std@@V12@@std@@PAX@std@@@std@@@std@@QAE@XZ
	?allocate@?$_Wrap_alloc@V?$allocator@U?$_Tree_node@U?$pair@$$CBV?$basic_string@DU?$char_traits@D@std@@V?$allocator@D@2@@std@@V12@@std@@PAX@std@@@std@@@std@@QAEPAU?$_Tree_node@U?$pair@$$CBV?$basic_string@DU?$char_traits@D@std@@V?$allocator@D@2@@std@@V12@@std@@PAX@2@I@Z
	?deallocate@?$_Wrap_alloc@V?$allocator@U?$_Tree_node@U?$pair@$$CBV?$basic_string@DU?$char_traits@D@std@@V?$allocator@D@2@@std@@V12@@std@@PAX@std@@@std@@@std@@QAEXPAU?$_Tree_node@U?$pair@$$CBV?$basic_string@DU?$char_traits@D@std@@V?$allocator@D@2@@std@@V12@@std@@PAX@2@I@Z
	?max_size@?$_Wrap_alloc@V?$allocator@U?$_Tree_node@U?$pair@$$CBV?$basic_string@DU?$char_traits@D@std@@V?$allocator@D@2@@std@@V12@@std@@PAX@std@@@std@@@std@@QBEIXZ
	?_Color@?$_Tree_val@U?$_Tree_simple_types@U?$pair@$$CBV?$basic_string@DU?$char_traits@D@std@@V?$allocator@D@2@@std@@V12@@std@@@std@@@std@@SAAADPAU?$_Tree_node@U?$pair@$$CBV?$basic_string@DU?$char_traits@D@std@@V?$allocator@D@2@@std@@V12@@std@@PAX@2@@Z
	?_Isnil@?$_Tree_val@U?$_Tree_simple_types@U?$pair@$$CBV?$basic_string@DU?$char_traits@D@std@@V?$allocator@D@2@@std@@V12@@std@@@std@@@std@@SAAADPAU?$_Tree_node@U?$pair@$$CBV?$basic_string@DU?$char_traits@D@std@@V?$allocator@D@2@@std@@V12@@std@@PAX@2@@Z
	?_Left@?$_Tree_val@U?$_Tree_simple_types@U?$pair@$$CBV?$basic_string@DU?$char_traits@D@std@@V?$allocator@D@2@@std@@V12@@std@@@std@@@std@@SAAAPAU?$_Tree_node@U?$pair@$$CBV?$basic_string@DU?$char_traits@D@std@@V?$allocator@D@2@@std@@V12@@std@@PAX@2@PAU32@@Z
	?_Parent@?$_Tree_val@U?$_Tree_simple_types@U?$pair@$$CBV?$basic_string@DU?$char_traits@D@std@@V?$allocator@D@2@@std@@V12@@std@@@std@@@std@@SAAAPAU?$_Tree_node@U?$pair@$$CBV?$basic_string@DU?$char_traits@D@std@@V?$allocator@D@2@@std@@V12@@std@@PAX@2@PAU32@@Z
	?_Right@?$_Tree_val@U?$_Tree_simple_types@U?$pair@$$CBV?$basic_string@DU?$char_traits@D@std@@V?$allocator@D@2@@std@@V12@@std@@@std@@@std@@SAAAPAU?$_Tree_node@U?$pair@$$CBV?$basic_string@DU?$char_traits@D@std@@V?$allocator@D@2@@std@@V12@@std@@PAX@2@PAU32@@Z
	?_Myval@?$_Tree_val@U?$_Tree_simple_types@U?$pair@$$CBV?$basic_string@DU?$char_traits@D@std@@V?$allocator@D@2@@std@@V12@@std@@@std@@@std@@SAAAU?$pair@$$CBV?$basic_string@DU?$char_traits@D@std@@V?$allocator@D@2@@std@@V12@@2@PAU?$_Tree_node@U?$pair@$$CBV?$basic_string@DU?$char_traits@D@std@@V?$allocator@D@2@@std@@V12@@std@@PAX@2@@Z
	?_Max@?$_Tree_val@U?$_Tree_simple_types@U?$pair@$$CBV?$basic_string@DU?$char_traits@D@std@@V?$allocator@D@2@@std@@V12@@std@@@std@@@std@@SAPAU?$_Tree_node@U?$pair@$$CBV?$basic_string@DU?$char_traits@D@std@@V?$allocator@D@2@@std@@V12@@std@@PAX@2@PAU32@@Z
	?_Min@?$_Tree_val@U?$_Tree_simple_types@U?$pair@$$CBV?$basic_string@DU?$char_traits@D@std@@V?$allocator@D@2@@std@@V12@@std@@@std@@@std@@SAPAU?$_Tree_node@U?$pair@$$CBV?$basic_string@DU?$char_traits@D@std@@V?$allocator@D@2@@std@@V12@@std@@PAX@2@PAU32@@Z
	?_Getal@?$_Tree_alloc@$0A@U?$_Tree_base_types@U?$pair@$$CBV?$basic_string@DU?$char_traits@D@std@@V?$allocator@D@2@@std@@V12@@std@@V?$allocator@U?$pair@$$CBV?$basic_string@DU?$char_traits@D@std@@V?$allocator@D@2@@std@@V12@@std@@@2@@std@@@std@@QBE?AU?$_Wrap_alloc@V?$allocator@U?$_Tree_node@U?$pair@$$CBV?$basic_string@DU?$char_traits@D@std@@V?$allocator@D@2@@std@@V12@@std@@PAX@std@@@std@@@2@XZ
	?_Buynode0@?$_Tree_buy@U?$pair@$$CBV?$basic_string@DU?$char_traits@D@std@@V?$allocator@D@2@@std@@V12@@std@@V?$allocator@U?$pair@$$CBV?$basic_string@DU?$char_traits@D@std@@V?$allocator@D@2@@std@@V12@@std@@@2@@std@@QAEPAU?$_Tree_node@U?$pair@$$CBV?$basic_string@DU?$char_traits@D@std@@V?$allocator@D@2@@std@@V12@@std@@PAX@2@XZ
	?_Freenode0@?$_Tree_buy@U?$pair@$$CBV?$basic_string@DU?$char_traits@D@std@@V?$allocator@D@2@@std@@V12@@std@@V?$allocator@U?$pair@$$CBV?$basic_string@DU?$char_traits@D@std@@V?$allocator@D@2@@std@@V12@@std@@@2@@std@@QAEXPAU?$_Tree_node@U?$pair@$$CBV?$basic_string@DU?$char_traits@D@std@@V?$allocator@D@2@@std@@V12@@std@@PAX@2@@Z
	?_Getcomp@?$_Tree_comp@$0A@V?$_Tmap_traits@V?$basic_string@DU?$char_traits@D@std@@V?$allocator@D@2@@std@@V12@U?$less@V?$basic_string@DU?$char_traits@D@std@@V?$allocator@D@2@@std@@@2@V?$allocator@U?$pair@$$CBV?$basic_string@DU?$char_traits@D@std@@V?$allocator@D@2@@std@@V12@@std@@@2@$0A@@std@@@std@@QBE?AU?$less@V?$basic_string@DU?$char_traits@D@std@@V?$allocator@D@2@@std@@@2@XZ
	?begin@?$_Tree@V?$_Tmap_traits@V?$basic_string@DU?$char_traits@D@std@@V?$allocator@D@2@@std@@V12@U?$less@V?$basic_string@DU?$char_traits@D@std@@V?$allocator@D@2@@std@@@2@V?$allocator@U?$pair@$$CBV?$basic_string@DU?$char_traits@D@std@@V?$allocator@D@2@@std@@V12@@std@@@2@$0A@@std@@@std@@QAE?AV?$_Tree_iterator@V?$_Tree_val@U?$_Tree_simple_types@U?$pair@$$CBV?$basic_string@DU?$char_traits@D@std@@V?$allocator@D@2@@std@@V12@@std@@@std@@@std@@@2@XZ
	?end@?$_Tree@V?$_Tmap_traits@V?$basic_string@DU?$char_traits@D@std@@V?$allocator@D@2@@std@@V12@U?$less@V?$basic_string@DU?$char_traits@D@std@@V?$allocator@D@2@@std@@@2@V?$allocator@U?$pair@$$CBV?$basic_string@DU?$char_traits@D@std@@V?$allocator@D@2@@std@@V12@@std@@@2@$0A@@std@@@std@@QAE?AV?$_Tree_iterator@V?$_Tree_val@U?$_Tree_simple_types@U?$pair@$$CBV?$basic_string@DU?$char_traits@D@std@@V?$allocator@D@2@@std@@V12@@std@@@std@@@std@@@2@XZ
	?size@?$_Tree@V?$_Tmap_traits@V?$basic_string@DU?$char_traits@D@std@@V?$allocator@D@2@@std@@V12@U?$less@V?$basic_string@DU?$char_traits@D@std@@V?$allocator@D@2@@std@@@2@V?$allocator@U?$pair@$$CBV?$basic_string@DU?$char_traits@D@std@@V?$allocator@D@2@@std@@V12@@std@@@2@$0A@@std@@@std@@QBEIXZ
	?max_size@?$_Tree@V?$_Tmap_traits@V?$basic_string@DU?$char_traits@D@std@@V?$allocator@D@2@@std@@V12@U?$less@V?$basic_string@DU?$char_traits@D@std@@V?$allocator@D@2@@std@@@2@V?$allocator@U?$pair@$$CBV?$basic_string@DU?$char_traits@D@std@@V?$allocator@D@2@@std@@V12@@std@@@2@$0A@@std@@@std@@QBEIXZ
	?clear@?$_Tree@V?$_Tmap_traits@V?$basic_string@DU?$char_traits@D@std@@V?$allocator@D@2@@std@@V12@U?$less@V?$basic_string@DU?$char_traits@D@std@@V?$allocator@D@2@@std@@@2@V?$allocator@U?$pair@$$CBV?$basic_string@DU?$char_traits@D@std@@V?$allocator@D@2@@std@@V12@@std@@@2@$0A@@std@@@std@@QAEXXZ
	?lower_bound@?$_Tree@V?$_Tmap_traits@V?$basic_string@DU?$char_traits@D@std@@V?$allocator@D@2@@std@@V12@U?$less@V?$basic_string@DU?$char_traits@D@std@@V?$allocator@D@2@@std@@@2@V?$allocator@U?$pair@$$CBV?$basic_string@DU?$char_traits@D@std@@V?$allocator@D@2@@std@@V12@@std@@@2@$0A@@std@@@std@@QAE?AV?$_Tree_iterator@V?$_Tree_val@U?$_Tree_simple_types@U?$pair@$$CBV?$basic_string@DU?$char_traits@D@std@@V?$allocator@D@2@@std@@V12@@std@@@std@@@std@@@2@ABV?$basic_string@DU?$char_traits@D@std@@V?$allocator@D@2@@2@@Z
	?_Destroy_if_not_nil@?$_Tree@V?$_Tmap_traits@V?$basic_string@DU?$char_traits@D@std@@V?$allocator@D@2@@std@@V12@U?$less@V?$basic_string@DU?$char_traits@D@std@@V?$allocator@D@2@@std@@@2@V?$allocator@U?$pair@$$CBV?$basic_string@DU?$char_traits@D@std@@V?$allocator@D@2@@std@@V12@@std@@@2@$0A@@std@@@std@@IAEXPAU?$_Tree_node@U?$pair@$$CBV?$basic_string@DU?$char_traits@D@std@@V?$allocator@D@2@@std@@V12@@std@@PAX@2@@Z
	?_Erase@?$_Tree@V?$_Tmap_traits@V?$basic_string@DU?$char_traits@D@std@@V?$allocator@D@2@@std@@V12@U?$less@V?$basic_string@DU?$char_traits@D@std@@V?$allocator@D@2@@std@@@2@V?$allocator@U?$pair@$$CBV?$basic_string@DU?$char_traits@D@std@@V?$allocator@D@2@@std@@V12@@std@@@2@$0A@@std@@@std@@IAEXPAU?$_Tree_node@U?$pair@$$CBV?$basic_string@DU?$char_traits@D@std@@V?$allocator@D@2@@std@@V12@@std@@PAX@2@@Z
	?_Lbound@?$_Tree@V?$_Tmap_traits@V?$basic_string@DU?$char_traits@D@std@@V?$allocator@D@2@@std@@V12@U?$less@V?$basic_string@DU?$char_traits@D@std@@V?$allocator@D@2@@std@@@2@V?$allocator@U?$pair@$$CBV?$basic_string@DU?$char_traits@D@std@@V?$allocator@D@2@@std@@V12@@std@@@2@$0A@@std@@@std@@IAEPAU?$_Tree_node@U?$pair@$$CBV?$basic_string@DU?$char_traits@D@std@@V?$allocator@D@2@@std@@V12@@std@@PAX@2@ABV?$basic_string@DU?$char_traits@D@std@@V?$allocator@D@2@@2@@Z
	?_Lmost@?$_Tree@V?$_Tmap_traits@V?$basic_string@DU?$char_traits@D@std@@V?$allocator@D@2@@std@@V12@U?$less@V?$basic_string@DU?$char_traits@D@std@@V?$allocator@D@2@@std@@@2@V?$allocator@U?$pair@$$CBV?$basic_string@DU?$char_traits@D@std@@V?$allocator@D@2@@std@@V12@@std@@@2@$0A@@std@@@std@@IBEAAPAU?$_Tree_node@U?$pair@$$CBV?$basic_string@DU?$char_traits@D@std@@V?$allocator@D@2@@std@@V12@@std@@PAX@2@XZ
	?_Lrotate@?$_Tree@V?$_Tmap_traits@V?$basic_string@DU?$char_traits@D@std@@V?$allocator@D@2@@std@@V12@U?$less@V?$basic_string@DU?$char_traits@D@std@@V?$allocator@D@2@@std@@@2@V?$allocator@U?$pair@$$CBV?$basic_string@DU?$char_traits@D@std@@V?$allocator@D@2@@std@@V12@@std@@@2@$0A@@std@@@std@@IAEXPAU?$_Tree_node@U?$pair@$$CBV?$basic_string@DU?$char_traits@D@std@@V?$allocator@D@2@@std@@V12@@std@@PAX@2@@Z
	?_Rmost@?$_Tree@V?$_Tmap_traits@V?$basic_string@DU?$char_traits@D@std@@V?$allocator@D@2@@std@@V12@U?$less@V?$basic_string@DU?$char_traits@D@std@@V?$allocator@D@2@@std@@@2@V?$allocator@U?$pair@$$CBV?$basic_string@DU?$char_traits@D@std@@V?$allocator@D@2@@std@@V12@@std@@@2@$0A@@std@@@std@@IBEAAPAU?$_Tree_node@U?$pair@$$CBV?$basic_string@DU?$char_traits@D@std@@V?$allocator@D@2@@std@@V12@@std@@PAX@2@XZ
	?_Root@?$_Tree@V?$_Tmap_traits@V?$basic_string@DU?$char_traits@D@std@@V?$allocator@D@2@@std@@V12@U?$less@V?$basic_string@DU?$char_traits@D@std@@V?$allocator@D@2@@std@@@2@V?$allocator@U?$pair@$$CBV?$basic_string@DU?$char_traits@D@std@@V?$allocator@D@2@@std@@V12@@std@@@2@$0A@@std@@@std@@IBEAAPAU?$_Tree_node@U?$pair@$$CBV?$basic_string@DU?$char_traits@D@std@@V?$allocator@D@2@@std@@V12@@std@@PAX@2@XZ
	?_Rrotate@?$_Tree@V?$_Tmap_traits@V?$basic_string@DU?$char_traits@D@std@@V?$allocator@D@2@@std@@V12@U?$less@V?$basic_string@DU?$char_traits@D@std@@V?$allocator@D@2@@std@@@2@V?$allocator@U?$pair@$$CBV?$basic_string@DU?$char_traits@D@std@@V?$allocator@D@2@@std@@V12@@std@@@2@$0A@@std@@@std@@IAEXPAU?$_Tree_node@U?$pair@$$CBV?$basic_string@DU?$char_traits@D@std@@V?$allocator@D@2@@std@@V12@@std@@PAX@2@@Z
	?_Kfn@?$_Tree@V?$_Tmap_traits@V?$basic_string@DU?$char_traits@D@std@@V?$allocator@D@2@@std@@V12@U?$less@V?$basic_string@DU?$char_traits@D@std@@V?$allocator@D@2@@std@@@2@V?$allocator@U?$pair@$$CBV?$basic_string@DU?$char_traits@D@std@@V?$allocator@D@2@@std@@V12@@std@@@2@$0A@@std@@@std@@IBEABV?$basic_string@DU?$char_traits@D@std@@V?$allocator@D@2@@2@ABU?$pair@$$CBV?$basic_string@DU?$char_traits@D@std@@V?$allocator@D@2@@std@@V12@@2@@Z
	?_Key@?$_Tree@V?$_Tmap_traits@V?$basic_string@DU?$char_traits@D@std@@V?$allocator@D@2@@std@@V12@U?$less@V?$basic_string@DU?$char_traits@D@std@@V?$allocator@D@2@@std@@@2@V?$allocator@U?$pair@$$CBV?$basic_string@DU?$char_traits@D@std@@V?$allocator@D@2@@std@@V12@@std@@@2@$0A@@std@@@std@@IBEABV?$basic_string@DU?$char_traits@D@std@@V?$allocator@D@2@@2@PAU?$_Tree_node@U?$pair@$$CBV?$basic_string@DU?$char_traits@D@std@@V?$allocator@D@2@@std@@V12@@std@@PAX@2@@Z
	??A?$map@V?$basic_string@DU?$char_traits@D@std@@V?$allocator@D@2@@std@@V12@U?$less@V?$basic_string@DU?$char_traits@D@std@@V?$allocator@D@2@@std@@@2@V?$allocator@U?$pair@$$CBV?$basic_string@DU?$char_traits@D@std@@V?$allocator@D@2@@std@@V12@@std@@@2@@std@@QAEAAV?$basic_string@DU?$char_traits@D@std@@V?$allocator@D@2@@1@ABV21@@Z
	??0?$_Tree_unchecked_const_iterator@V?$_Tree_val@U?$_Tree_simple_types@U?$pair@$$CBV?$basic_string@DU?$char_traits@D@std@@V?$allocator@D@2@@std@@V12@@std@@@std@@@std@@U_Iterator_base0@2@@std@@QAE@XZ
	??0?$_Tree_unchecked_const_iterator@V?$_Tree_val@U?$_Tree_simple_types@U?$pair@$$CBV?$basic_string@DU?$char_traits@D@std@@V?$allocator@D@2@@std@@V12@@std@@@std@@@std@@U_Iterator_base0@2@@std@@QAE@PAU?$_Tree_node@U?$pair@$$CBV?$basic_string@DU?$char_traits@D@std@@V?$allocator@D@2@@std@@V12@@std@@PAX@1@PBV?$_Tree_val@U?$_Tree_simple_types@U?$pair@$$CBV?$basic_string@DU?$char_traits@D@std@@V?$allocator@D@2@@std@@V12@@std@@@std@@@1@@Z
	??E?$_Tree_unchecked_const_iterator@V?$_Tree_val@U?$_Tree_simple_types@U?$pair@$$CBV?$basic_string@DU?$char_traits@D@std@@V?$allocator@D@2@@std@@V12@@std@@@std@@@std@@U_Iterator_base0@2@@std@@QAEAAV01@XZ
	??F?$_Tree_unchecked_const_iterator@V?$_Tree_val@U?$_Tree_simple_types@U?$pair@$$CBV?$basic_string@DU?$char_traits@D@std@@V?$allocator@D@2@@std@@V12@@std@@@std@@@std@@U_Iterator_base0@2@@std@@QAEAAV01@XZ
	?_Mynode@?$_Tree_unchecked_const_iterator@V?$_Tree_val@U?$_Tree_simple_types@U?$pair@$$CBV?$basic_string@DU?$char_traits@D@std@@V?$allocator@D@2@@std@@V12@@std@@@std@@@std@@U_Iterator_base0@2@@std@@QBEPAU?$_Tree_node@U?$pair@$$CBV?$basic_string@DU?$char_traits@D@std@@V?$allocator@D@2@@std@@V12@@std@@PAX@2@XZ
	??0?$_Tree_const_iterator@V?$_Tree_val@U?$_Tree_simple_types@U?$pair@$$CBV?$basic_string@DU?$char_traits@D@std@@V?$allocator@D@2@@std@@V12@@std@@@std@@@std@@@std@@QAE@XZ
	??0?$_Tree_const_iterator@V?$_Tree_val@U?$_Tree_simple_types@U?$pair@$$CBV?$basic_string@DU?$char_traits@D@std@@V?$allocator@D@2@@std@@V12@@std@@@std@@@std@@@std@@QAE@PAU?$_Tree_node@U?$pair@$$CBV?$basic_string@DU?$char_traits@D@std@@V?$allocator@D@2@@std@@V12@@std@@PAX@1@PBV?$_Tree_val@U?$_Tree_simple_types@U?$pair@$$CBV?$basic_string@DU?$char_traits@D@std@@V?$allocator@D@2@@std@@V12@@std@@@std@@@1@@Z
	??D?$_Tree_const_iterator@V?$_Tree_val@U?$_Tree_simple_types@U?$pair@$$CBV?$basic_string@DU?$char_traits@D@std@@V?$allocator@D@2@@std@@V12@@std@@@std@@@std@@@std@@QBEABU?$pair@$$CBV?$basic_string@DU?$char_traits@D@std@@V?$allocator@D@2@@std@@V12@@1@XZ
	??E?$_Tree_const_iterator@V?$_Tree_val@U?$_Tree_simple_types@U?$pair@$$CBV?$basic_string@DU?$char_traits@D@std@@V?$allocator@D@2@@std@@V12@@std@@@std@@@std@@@std@@QAEAAV01@XZ
	??F?$_Tree_const_iterator@V?$_Tree_val@U?$_Tree_simple_types@U?$pair@$$CBV?$basic_string@DU?$char_traits@D@std@@V?$allocator@D@2@@std@@V12@@std@@@std@@@std@@@std@@QAEAAV01@XZ
	??8?$_Tree_const_iterator@V?$_Tree_val@U?$_Tree_simple_types@U?$pair@$$CBV?$basic_string@DU?$char_traits@D@std@@V?$allocator@D@2@@std@@V12@@std@@@std@@@std@@@std@@QBE_NABV01@@Z
	??0?$_Tree_iterator@V?$_Tree_val@U?$_Tree_simple_types@U?$pair@$$CBV?$basic_string@DU?$char_traits@D@std@@V?$allocator@D@2@@std@@V12@@std@@@std@@@std@@@std@@QAE@PAU?$_Tree_node@U?$pair@$$CBV?$basic_string@DU?$char_traits@D@std@@V?$allocator@D@2@@std@@V12@@std@@PAX@1@PBV?$_Tree_val@U?$_Tree_simple_types@U?$pair@$$CBV?$basic_string@DU?$char_traits@D@std@@V?$allocator@D@2@@std@@V12@@std@@@std@@@1@@Z
	??D?$_Tree_iterator@V?$_Tree_val@U?$_Tree_simple_types@U?$pair@$$CBV?$basic_string@DU?$char_traits@D@std@@V?$allocator@D@2@@std@@V12@@std@@@std@@@std@@@std@@QBEAAU?$pair@$$CBV?$basic_string@DU?$char_traits@D@std@@V?$allocator@D@2@@std@@V12@@1@XZ
	??C?$_Tree_iterator@V?$_Tree_val@U?$_Tree_simple_types@U?$pair@$$CBV?$basic_string@DU?$char_traits@D@std@@V?$allocator@D@2@@std@@V12@@std@@@std@@@std@@@std@@QBEPAU?$pair@$$CBV?$basic_string@DU?$char_traits@D@std@@V?$allocator@D@2@@std@@V12@@1@XZ
	??F?$_Tree_iterator@V?$_Tree_val@U?$_Tree_simple_types@U?$pair@$$CBV?$basic_string@DU?$char_traits@D@std@@V?$allocator@D@2@@std@@V12@@std@@@std@@@std@@@std@@QAEAAV01@XZ
	??0?$allocator@E@std@@QAE@XZ
	?deallocate@?$allocator@E@std@@QAEXPAEI@Z
	?allocate@?$allocator@E@std@@QAEPAEI@Z
	?max_size@?$allocator@E@std@@QBEIXZ
	?max_size@?$allocator_traits@V?$allocator@E@std@@@std@@SAIABV?$allocator@E@2@@Z
	??0?$_Wrap_alloc@V?$allocator@E@std@@@std@@QAE@XZ
	?allocate@?$_Wrap_alloc@V?$allocator@E@std@@@std@@QAEPAEI@Z
	?deallocate@?$_Wrap_alloc@V?$allocator@E@std@@@std@@QAEXPAEI@Z
	?max_size@?$_Wrap_alloc@V?$allocator@E@std@@@std@@QBEIXZ
	??0?$_Vector_val@U?$_Simple_types@E@std@@@std@@QAE@XZ
	??0?$_Vector_alloc@$0A@U?$_Vec_base_types@EV?$allocator@E@std@@@std@@@std@@QAE@ABV?$allocator@E@1@@Z
	?_Getal@?$_Vector_alloc@$0A@U?$_Vec_base_types@EV?$allocator@E@std@@@std@@@std@@QBE?AU?$_Wrap_alloc@V?$allocator@E@std@@@2@XZ
	??0?$vector@EV?$allocator@E@std@@@std@@QAE@XZ
	??1?$vector@EV?$allocator@E@std@@@std@@QAE@XZ
	?capacity@?$vector@EV?$allocator@E@std@@@std@@QBEIXZ
	?_Unused_capacity@?$vector@EV?$allocator@E@std@@@std@@QBEIXZ
	?resize@?$vector@EV?$allocator@E@std@@@std@@QAEXI@Z
	?size@?$vector@EV?$allocator@E@std@@@std@@QBEIXZ
	?max_size@?$vector@EV?$allocator@E@std@@@std@@QBEIXZ
	??A?$vector@EV?$allocator@E@std@@@std@@QAEAAEI@Z
	?_Pop_back_n@?$vector@EV?$allocator@E@std@@@std@@QAEXI@Z
	?_Destroy@?$vector@EV?$allocator@E@std@@@std@@IAEXPAE0@Z
	?_Grow_to@?$vector@EV?$allocator@E@std@@@std@@IBEII@Z
	?_Reallocate@?$vector@EV?$allocator@E@std@@@std@@IAEXI@Z
	?_Reserve@?$vector@EV?$allocator@E@std@@@std@@IAEXI@Z
	?_Tidy@?$vector@EV?$allocator@E@std@@@std@@IAEXXZ
	?_Xlen@?$vector@EV?$allocator@E@std@@@std@@IBEXXZ
	??$?9DU?$char_traits@D@std@@V?$allocator@D@1@@std@@YA_NABV?$basic_string@DU?$char_traits@D@std@@V?$allocator@D@2@@0@PBD@Z
	??1?$pair@$$CBV?$basic_string@DU?$char_traits@D@std@@V?$allocator@D@2@@std@@V12@@std@@QAE@XZ
	??$forward_as_tuple@ABV?$basic_string@DU?$char_traits@D@std@@V?$allocator@D@2@@std@@@std@@YA?AV?$tuple@ABV?$basic_string@DU?$char_traits@D@std@@V?$allocator@D@2@@std@@@0@ABV?$basic_string@DU?$char_traits@D@std@@V?$allocator@D@2@@0@@Z
	??0?$tuple@ABV?$basic_string@DU?$char_traits@D@std@@V?$allocator@D@2@@std@@@std@@QAE@ABV?$basic_string@DU?$char_traits@D@std@@V?$allocator@D@2@@1@@Z
	?_Get_rest@?$tuple@ABV?$basic_string@DU?$char_traits@D@std@@V?$allocator@D@2@@std@@@std@@QAEAAV?$tuple@$$$V@2@XZ
	??$emplace_hint@ABUpiecewise_construct_t@std@@V?$tuple@ABV?$basic_string@DU?$char_traits@D@std@@V?$allocator@D@2@@std@@@2@V?$tuple@$$$V@2@@?$_Tree@V?$_Tmap_traits@V?$basic_string@DU?$char_traits@D@std@@V?$allocator@D@2@@std@@V12@U?$less@V?$basic_string@DU?$char_traits@D@std@@V?$allocator@D@2@@std@@@2@V?$allocator@U?$pair@$$CBV?$basic_string@DU?$char_traits@D@std@@V?$allocator@D@2@@std@@V12@@std@@@2@$0A@@std@@@std@@QAE?AV?$_Tree_iterator@V?$_Tree_val@U?$_Tree_simple_types@U?$pair@$$CBV?$basic_string@DU?$char_traits@D@std@@V?$allocator@D@2@@std@@V12@@std@@@std@@@std@@@1@V?$_Tree_const_iterator@V?$_Tree_val@U?$_Tree_simple_types@U?$pair@$$CBV?$basic_string@DU?$char_traits@D@std@@V?$allocator@D@2@@std@@V12@@std@@@std@@@std@@@1@ABUpiecewise_construct_t@1@$$QAV?$tuple@ABV?$basic_string@DU?$char_traits@D@std@@V?$allocator@D@2@@std@@@1@$$QAV?$tuple@$$$V@1@@Z
	??$_Uninitialized_default_fill_n@PAEIU?$_Wrap_alloc@V?$allocator@E@std@@@std@@@std@@YAXPAEIAAU?$_Wrap_alloc@V?$allocator@E@std@@@0@@Z
	??$construct@PADAAPAD@?$_Wrap_alloc@V?$allocator@D@std@@@std@@QAEXPAPADAAPAD@Z
	??$destroy@PAD@?$_Wrap_alloc@V?$allocator@D@std@@@std@@QAEXPAPAD@Z
	??$addressof@D@std@@YAPADAAD@Z
	??$addressof@U?$pair@$$CBV?$basic_string@DU?$char_traits@D@std@@V?$allocator@D@2@@std@@V12@@std@@@std@@YAPAU?$pair@$$CBV?$basic_string@DU?$char_traits@D@std@@V?$allocator@D@2@@std@@V12@@0@AAU10@@Z
	??$destroy@U?$pair@$$CBV?$basic_string@DU?$char_traits@D@std@@V?$allocator@D@2@@std@@V12@@std@@@?$_Wrap_alloc@V?$allocator@U?$_Tree_node@U?$pair@$$CBV?$basic_string@DU?$char_traits@D@std@@V?$allocator@D@2@@std@@V12@@std@@PAX@std@@@std@@@std@@QAEXPAU?$pair@$$CBV?$basic_string@DU?$char_traits@D@std@@V?$allocator@D@2@@std@@V12@@1@@Z
	?pointer_to@?$pointer_traits@PAU?$pair@$$CBV?$basic_string@DU?$char_traits@D@std@@V?$allocator@D@2@@std@@V12@@std@@@std@@SAPAU?$pair@$$CBV?$basic_string@DU?$char_traits@D@std@@V?$allocator@D@2@@std@@V12@@2@AAU32@@Z
	??$_Kfn@$$CBV?$basic_string@DU?$char_traits@D@std@@V?$allocator@D@2@@std@@V12@@?$_Tmap_traits@V?$basic_string@DU?$char_traits@D@std@@V?$allocator@D@2@@std@@V12@U?$less@V?$basic_string@DU?$char_traits@D@std@@V?$allocator@D@2@@std@@@2@V?$allocator@U?$pair@$$CBV?$basic_string@DU?$char_traits@D@std@@V?$allocator@D@2@@std@@V12@@std@@@2@$0A@@std@@SAABV?$basic_string@DU?$char_traits@D@std@@V?$allocator@D@2@@1@ABU?$pair@$$CBV?$basic_string@DU?$char_traits@D@std@@V?$allocator@D@2@@std@@V12@@1@@Z
	??$addressof@PAU?$_Tree_node@U?$pair@$$CBV?$basic_string@DU?$char_traits@D@std@@V?$allocator@D@2@@std@@V12@@std@@PAX@std@@@std@@YAPAPAU?$_Tree_node@U?$pair@$$CBV?$basic_string@DU?$char_traits@D@std@@V?$allocator@D@2@@std@@V12@@std@@PAX@0@AAPAU10@@Z
	??$destroy@PAU?$_Tree_node@U?$pair@$$CBV?$basic_string@DU?$char_traits@D@std@@V?$allocator@D@2@@std@@V12@@std@@PAX@std@@@?$_Wrap_alloc@V?$allocator@U?$_Tree_node@U?$pair@$$CBV?$basic_string@DU?$char_traits@D@std@@V?$allocator@D@2@@std@@V12@@std@@PAX@std@@@std@@@std@@QAEXPAPAU?$_Tree_node@U?$pair@$$CBV?$basic_string@DU?$char_traits@D@std@@V?$allocator@D@2@@std@@V12@@std@@PAX@1@@Z
	??$_Destroy_range@U?$_Wrap_alloc@V?$allocator@E@std@@@std@@@std@@YAXPAE0AAU?$_Wrap_alloc@V?$allocator@E@std@@@0@@Z
	??$_Umove@PAE@?$vector@EV?$allocator@E@std@@@std@@IAEPAEPAE00@Z
	??$_Allocate@E@std@@YAPAEIPAE@Z
	??$_Allocate@D@std@@YAPADIPAD@Z
	??$construct@PAU?$_Tree_node@U?$pair@$$CBV?$basic_string@DU?$char_traits@D@std@@V?$allocator@D@2@@std@@V12@@std@@PAX@std@@AAPAU12@@?$_Wrap_alloc@V?$allocator@U?$_Tree_node@U?$pair@$$CBV?$basic_string@DU?$char_traits@D@std@@V?$allocator@D@2@@std@@V12@@std@@PAX@std@@@std@@@std@@QAEXPAPAU?$_Tree_node@U?$pair@$$CBV?$basic_string@DU?$char_traits@D@std@@V?$allocator@D@2@@std@@V12@@std@@PAX@1@AAPAU21@@Z
	??$_Allocate@U?$_Tree_node@U?$pair@$$CBV?$basic_string@DU?$char_traits@D@std@@V?$allocator@D@2@@std@@V12@@std@@PAX@std@@@std@@YAPAU?$_Tree_node@U?$pair@$$CBV?$basic_string@DU?$char_traits@D@std@@V?$allocator@D@2@@std@@V12@@std@@PAX@0@IPAU10@@Z
	??$?8DU?$char_traits@D@std@@V?$allocator@D@1@@std@@YA_NABV?$basic_string@DU?$char_traits@D@std@@V?$allocator@D@2@@0@PBD@Z
	??$forward@ABUpiecewise_construct_t@std@@@std@@YAABUpiecewise_construct_t@0@ABU10@@Z
	??$forward@V?$tuple@$$$V@std@@@std@@YA$$QAV?$tuple@$$$V@0@AAV10@@Z
	??$_Insert_hint@AAU?$pair@$$CBV?$basic_string@DU?$char_traits@D@std@@V?$allocator@D@2@@std@@V12@@std@@PAU?$_Tree_node@U?$pair@$$CBV?$basic_string@DU?$char_traits@D@std@@V?$allocator@D@2@@std@@V12@@std@@PAX@2@@?$_Tree@V?$_Tmap_traits@V?$basic_string@DU?$char_traits@D@std@@V?$allocator@D@2@@std@@V12@U?$less@V?$basic_string@DU?$char_traits@D@std@@V?$allocator@D@2@@std@@@2@V?$allocator@U?$pair@$$CBV?$basic_string@DU?$char_traits@D@std@@V?$allocator@D@2@@std@@V12@@std@@@2@$0A@@std@@@std@@IAE?AV?$_Tree_iterator@V?$_Tree_val@U?$_Tree_simple_types@U?$pair@$$CBV?$basic_string@DU?$char_traits@D@std@@V?$allocator@D@2@@std@@V12@@std@@@std@@@std@@@1@V?$_Tree_const_iterator@V?$_Tree_val@U?$_Tree_simple_types@U?$pair@$$CBV?$basic_string@DU?$char_traits@D@std@@V?$allocator@D@2@@std@@V12@@std@@@std@@@std@@@1@AAU?$pair@$$CBV?$basic_string@DU?$char_traits@D@std@@V?$allocator@D@2@@std@@V12@@1@PAU?$_Tree_node@U?$pair@$$CBV?$basic_string@DU?$char_traits@D@std@@V?$allocator@D@2@@std@@V12@@std@@PAX@1@@Z
	??$forward@ABV?$basic_string@DU?$char_traits@D@std@@V?$allocator@D@2@@std@@@std@@YAABV?$basic_string@DU?$char_traits@D@std@@V?$allocator@D@2@@0@ABV10@@Z
	??$?0ABV?$basic_string@DU?$char_traits@D@std@@V?$allocator@D@2@@std@@PAPAX@?$tuple@ABV?$basic_string@DU?$char_traits@D@std@@V?$allocator@D@2@@std@@@std@@QAE@$$QAV01@@Z
	??$forward@V?$tuple@ABV?$basic_string@DU?$char_traits@D@std@@V?$allocator@D@2@@std@@@std@@@std@@YA$$QAV?$tuple@ABV?$basic_string@DU?$char_traits@D@std@@V?$allocator@D@2@@std@@@0@AAV10@@Z
	??$_Buynode@ABUpiecewise_construct_t@std@@V?$tuple@ABV?$basic_string@DU?$char_traits@D@std@@V?$allocator@D@2@@std@@@2@V?$tuple@$$$V@2@@?$_Tree_buy@U?$pair@$$CBV?$basic_string@DU?$char_traits@D@std@@V?$allocator@D@2@@std@@V12@@std@@V?$allocator@U?$pair@$$CBV?$basic_string@DU?$char_traits@D@std@@V?$allocator@D@2@@std@@V12@@std@@@2@@std@@QAEPAU?$_Tree_node@U?$pair@$$CBV?$basic_string@DU?$char_traits@D@std@@V?$allocator@D@2@@std@@V12@@std@@PAX@1@ABUpiecewise_construct_t@1@$$QAV?$tuple@ABV?$basic_string@DU?$char_traits@D@std@@V?$allocator@D@2@@std@@@1@$$QAV?$tuple@$$$V@1@@Z
	??$_Val_type@PAE@std@@YAPAEPAE@Z
	??$_Ptr_cat@EE@std@@YA?AU_Scalar_ptr_iterator_tag@0@PAE0@Z
	??$_Uninit_def_fill_n@EIE@std@@YAXPAEIAAU?$_Wrap_alloc@V?$allocator@E@std@@@0@0U_Scalar_ptr_iterator_tag@0@@Z
	??$forward@AAPAD@std@@YAAAPADAAPAD@Z
	??$construct@PADAAPAD@?$allocator_traits@V?$allocator@D@std@@@std@@SAXAAV?$allocator@D@1@PAPADAAPAD@Z
	??$destroy@PAD@?$allocator_traits@V?$allocator@D@std@@@std@@SAXAAV?$allocator@D@1@PAPAD@Z
	??$destroy@U?$pair@$$CBV?$basic_string@DU?$char_traits@D@std@@V?$allocator@D@2@@std@@V12@@std@@@?$allocator_traits@V?$allocator@U?$_Tree_node@U?$pair@$$CBV?$basic_string@DU?$char_traits@D@std@@V?$allocator@D@2@@std@@V12@@std@@PAX@std@@@std@@@std@@SAXAAV?$allocator@U?$_Tree_node@U?$pair@$$CBV?$basic_string@DU?$char_traits@D@std@@V?$allocator@D@2@@std@@V12@@std@@PAX@std@@@1@PAU?$pair@$$CBV?$basic_string@DU?$char_traits@D@std@@V?$allocator@D@2@@std@@V12@@1@@Z
	??$destroy@PAU?$_Tree_node@U?$pair@$$CBV?$basic_string@DU?$char_traits@D@std@@V?$allocator@D@2@@std@@V12@@std@@PAX@std@@@?$allocator_traits@V?$allocator@U?$_Tree_node@U?$pair@$$CBV?$basic_string@DU?$char_traits@D@std@@V?$allocator@D@2@@std@@V12@@std@@PAX@std@@@std@@@std@@SAXAAV?$allocator@U?$_Tree_node@U?$pair@$$CBV?$basic_string@DU?$char_traits@D@std@@V?$allocator@D@2@@std@@V12@@std@@PAX@std@@@1@PAPAU?$_Tree_node@U?$pair@$$CBV?$basic_string@DU?$char_traits@D@std@@V?$allocator@D@2@@std@@V12@@std@@PAX@1@@Z
	??$_Destroy_range@U?$_Wrap_alloc@V?$allocator@E@std@@@std@@@std@@YAXPAE0AAU?$_Wrap_alloc@V?$allocator@E@std@@@0@U_Scalar_ptr_iterator_tag@0@@Z
	??$_Uninitialized_move@PAEPAEU?$_Wrap_alloc@V?$allocator@E@std@@@std@@@std@@YAPAEPAE00AAU?$_Wrap_alloc@V?$allocator@E@std@@@0@@Z
	??$forward@AAPAU?$_Tree_node@U?$pair@$$CBV?$basic_string@DU?$char_traits@D@std@@V?$allocator@D@2@@std@@V12@@std@@PAX@std@@@std@@YAAAPAU?$_Tree_node@U?$pair@$$CBV?$basic_string@DU?$char_traits@D@std@@V?$allocator@D@2@@std@@V12@@std@@PAX@0@AAPAU10@@Z
	??$construct@PAU?$_Tree_node@U?$pair@$$CBV?$basic_string@DU?$char_traits@D@std@@V?$allocator@D@2@@std@@V12@@std@@PAX@std@@AAPAU12@@?$allocator_traits@V?$allocator@U?$_Tree_node@U?$pair@$$CBV?$basic_string@DU?$char_traits@D@std@@V?$allocator@D@2@@std@@V12@@std@@PAX@std@@@std@@@std@@SAXAAV?$allocator@U?$_Tree_node@U?$pair@$$CBV?$basic_string@DU?$char_traits@D@std@@V?$allocator@D@2@@std@@V12@@std@@PAX@std@@@1@PAPAU?$_Tree_node@U?$pair@$$CBV?$basic_string@DU?$char_traits@D@std@@V?$allocator@D@2@@std@@V12@@std@@PAX@1@AAPAU31@@Z
	??$?0ABV?$basic_string@DU?$char_traits@D@std@@V?$allocator@D@2@@std@@@?$_Tuple_val@ABV?$basic_string@DU?$char_traits@D@std@@V?$allocator@D@2@@std@@@std@@QAE@ABV?$basic_string@DU?$char_traits@D@std@@V?$allocator@D@2@@1@@Z
	??$forward@AAU?$pair@$$CBV?$basic_string@DU?$char_traits@D@std@@V?$allocator@D@2@@std@@V12@@std@@@std@@YAAAU?$pair@$$CBV?$basic_string@DU?$char_traits@D@std@@V?$allocator@D@2@@std@@V12@@0@AAU10@@Z
	??$_Insert_at@AAU?$pair@$$CBV?$basic_string@DU?$char_traits@D@std@@V?$allocator@D@2@@std@@V12@@std@@PAU?$_Tree_node@U?$pair@$$CBV?$basic_string@DU?$char_traits@D@std@@V?$allocator@D@2@@std@@V12@@std@@PAX@2@@?$_Tree@V?$_Tmap_traits@V?$basic_string@DU?$char_traits@D@std@@V?$allocator@D@2@@std@@V12@U?$less@V?$basic_string@DU?$char_traits@D@std@@V?$allocator@D@2@@std@@@2@V?$allocator@U?$pair@$$CBV?$basic_string@DU?$char_traits@D@std@@V?$allocator@D@2@@std@@V12@@std@@@2@$0A@@std@@@std@@IAE?AV?$_Tree_iterator@V?$_Tree_val@U?$_Tree_simple_types@U?$pair@$$CBV?$basic_string@DU?$char_traits@D@std@@V?$allocator@D@2@@std@@V12@@std@@@std@@@std@@@1@_NPAU?$_Tree_node@U?$pair@$$CBV?$basic_string@DU?$char_traits@D@std@@V?$allocator@D@2@@std@@V12@@std@@PAX@1@AAU?$pair@$$CBV?$basic_string@DU?$char_traits@D@std@@V?$allocator@D@2@@std@@V12@@1@1@Z
	??$_Insert_nohint@AAU?$pair@$$CBV?$basic_string@DU?$char_traits@D@std@@V?$allocator@D@2@@std@@V12@@std@@PAU?$_Tree_node@U?$pair@$$CBV?$basic_string@DU?$char_traits@D@std@@V?$allocator@D@2@@std@@V12@@std@@PAX@2@@?$_Tree@V?$_Tmap_traits@V?$basic_string@DU?$char_traits@D@std@@V?$allocator@D@2@@std@@V12@U?$less@V?$basic_string@DU?$char_traits@D@std@@V?$allocator@D@2@@std@@@2@V?$allocator@U?$pair@$$CBV?$basic_string@DU?$char_traits@D@std@@V?$allocator@D@2@@std@@V12@@std@@@2@$0A@@std@@@std@@IAE?AU?$pair@V?$_Tree_iterator@V?$_Tree_val@U?$_Tree_simple_types@U?$pair@$$CBV?$basic_string@DU?$char_traits@D@std@@V?$allocator@D@2@@std@@V12@@std@@@std@@@std@@@std@@_N@1@_NAAU?$pair@$$CBV?$basic_string@DU?$char_traits@D@std@@V?$allocator@D@2@@std@@V12@@1@PAU?$_Tree_node@U?$pair@$$CBV?$basic_string@DU?$char_traits@D@std@@V?$allocator@D@2@@std@@V12@@std@@PAX@1@@Z
	??$construct@U?$pair@$$CBV?$basic_string@DU?$char_traits@D@std@@V?$allocator@D@2@@std@@V12@@std@@ABUpiecewise_construct_t@2@V?$tuple@ABV?$basic_string@DU?$char_traits@D@std@@V?$allocator@D@2@@std@@@2@V?$tuple@$$$V@2@@?$_Wrap_alloc@V?$allocator@U?$_Tree_node@U?$pair@$$CBV?$basic_string@DU?$char_traits@D@std@@V?$allocator@D@2@@std@@V12@@std@@PAX@std@@@std@@@std@@QAEXPAU?$pair@$$CBV?$basic_string@DU?$char_traits@D@std@@V?$allocator@D@2@@std@@V12@@1@ABUpiecewise_construct_t@1@$$QAV?$tuple@ABV?$basic_string@DU?$char_traits@D@std@@V?$allocator@D@2@@std@@@1@$$QAV?$tuple@$$$V@1@@Z
	??$construct@PADAAPAD@?$allocator@D@std@@QAEXPAPADAAPAD@Z
	??$destroy@PAD@?$allocator@D@std@@QAEXPAPAD@Z
	??$destroy@U?$pair@$$CBV?$basic_string@DU?$char_traits@D@std@@V?$allocator@D@2@@std@@V12@@std@@@?$allocator@U?$_Tree_node@U?$pair@$$CBV?$basic_string@DU?$char_traits@D@std@@V?$allocator@D@2@@std@@V12@@std@@PAX@std@@@std@@QAEXPAU?$pair@$$CBV?$basic_string@DU?$char_traits@D@std@@V?$allocator@D@2@@std@@V12@@1@@Z
	??$destroy@PAU?$_Tree_node@U?$pair@$$CBV?$basic_string@DU?$char_traits@D@std@@V?$allocator@D@2@@std@@V12@@std@@PAX@std@@@?$allocator@U?$_Tree_node@U?$pair@$$CBV?$basic_string@DU?$char_traits@D@std@@V?$allocator@D@2@@std@@V12@@std@@PAX@std@@@std@@QAEXPAPAU?$_Tree_node@U?$pair@$$CBV?$basic_string@DU?$char_traits@D@std@@V?$allocator@D@2@@std@@V12@@std@@PAX@1@@Z
	??$_Unchecked@PAE@std@@YAPAEPAE@Z
	??$_Uninit_move@PAEPAEU?$_Wrap_alloc@V?$allocator@E@std@@@std@@@std@@YAPAEPAE00AAU?$_Wrap_alloc@V?$allocator@E@std@@@0@@Z
	??$_Rechecked@PAEPAE@std@@YAAAPAEAAPAEPAE@Z
	??$construct@PAU?$_Tree_node@U?$pair@$$CBV?$basic_string@DU?$char_traits@D@std@@V?$allocator@D@2@@std@@V12@@std@@PAX@std@@AAPAU12@@?$allocator@U?$_Tree_node@U?$pair@$$CBV?$basic_string@DU?$char_traits@D@std@@V?$allocator@D@2@@std@@V12@@std@@PAX@std@@@std@@QAEXPAPAU?$_Tree_node@U?$pair@$$CBV?$basic_string@DU?$char_traits@D@std@@V?$allocator@D@2@@std@@V12@@std@@PAX@1@AAPAU21@@Z
	??$_Buynode_if_nil@AAU?$pair@$$CBV?$basic_string@DU?$char_traits@D@std@@V?$allocator@D@2@@std@@V12@@std@@@?$_Tree@V?$_Tmap_traits@V?$basic_string@DU?$char_traits@D@std@@V?$allocator@D@2@@std@@V12@U?$less@V?$basic_string@DU?$char_traits@D@std@@V?$allocator@D@2@@std@@@2@V?$allocator@U?$pair@$$CBV?$basic_string@DU?$char_traits@D@std@@V?$allocator@D@2@@std@@V12@@std@@@2@$0A@@std@@@std@@IAEPAU?$_Tree_node@U?$pair@$$CBV?$basic_string@DU?$char_traits@D@std@@V?$allocator@D@2@@std@@V12@@std@@PAX@1@PAU21@AAU?$pair@$$CBV?$basic_string@DU?$char_traits@D@std@@V?$allocator@D@2@@std@@V12@@1@@Z
	??$?0V?$_Tree_iterator@V?$_Tree_val@U?$_Tree_simple_types@U?$pair@$$CBV?$basic_string@DU?$char_traits@D@std@@V?$allocator@D@2@@std@@V12@@std@@@std@@@std@@@std@@_NX@?$pair@V?$_Tree_iterator@V?$_Tree_val@U?$_Tree_simple_types@U?$pair@$$CBV?$basic_string@DU?$char_traits@D@std@@V?$allocator@D@2@@std@@V12@@std@@@std@@@std@@@std@@_N@std@@QAE@$$QAV?$_Tree_iterator@V?$_Tree_val@U?$_Tree_simple_types@U?$pair@$$CBV?$basic_string@DU?$char_traits@D@std@@V?$allocator@D@2@@std@@V12@@std@@@std@@@std@@@1@$$QA_N@Z
	??$?0AAV?$_Tree_iterator@V?$_Tree_val@U?$_Tree_simple_types@U?$pair@$$CBV?$basic_string@DU?$char_traits@D@std@@V?$allocator@D@2@@std@@V12@@std@@@std@@@std@@@std@@_NX@?$pair@V?$_Tree_iterator@V?$_Tree_val@U?$_Tree_simple_types@U?$pair@$$CBV?$basic_string@DU?$char_traits@D@std@@V?$allocator@D@2@@std@@V12@@std@@@std@@@std@@@std@@_N@std@@QAE@AAV?$_Tree_iterator@V?$_Tree_val@U?$_Tree_simple_types@U?$pair@$$CBV?$basic_string@DU?$char_traits@D@std@@V?$allocator@D@2@@std@@V12@@std@@@std@@@std@@@1@$$QA_N@Z
	??$construct@U?$pair@$$CBV?$basic_string@DU?$char_traits@D@std@@V?$allocator@D@2@@std@@V12@@std@@ABUpiecewise_construct_t@2@V?$tuple@ABV?$basic_string@DU?$char_traits@D@std@@V?$allocator@D@2@@std@@@2@V?$tuple@$$$V@2@@?$allocator_traits@V?$allocator@U?$_Tree_node@U?$pair@$$CBV?$basic_string@DU?$char_traits@D@std@@V?$allocator@D@2@@std@@V12@@std@@PAX@std@@@std@@@std@@SAXAAV?$allocator@U?$_Tree_node@U?$pair@$$CBV?$basic_string@DU?$char_traits@D@std@@V?$allocator@D@2@@std@@V12@@std@@PAX@std@@@1@PAU?$pair@$$CBV?$basic_string@DU?$char_traits@D@std@@V?$allocator@D@2@@std@@V12@@1@ABUpiecewise_construct_t@1@$$QAV?$tuple@ABV?$basic_string@DU?$char_traits@D@std@@V?$allocator@D@2@@std@@@1@$$QAV?$tuple@$$$V@1@@Z
	??$_Uninit_move@EEE@std@@YAPAEPAE00AAU?$_Wrap_alloc@V?$allocator@E@std@@@0@0U_Scalar_ptr_iterator_tag@0@@Z
	??$forward@V?$_Tree_iterator@V?$_Tree_val@U?$_Tree_simple_types@U?$pair@$$CBV?$basic_string@DU?$char_traits@D@std@@V?$allocator@D@2@@std@@V12@@std@@@std@@@std@@@std@@@std@@YA$$QAV?$_Tree_iterator@V?$_Tree_val@U?$_Tree_simple_types@U?$pair@$$CBV?$basic_string@DU?$char_traits@D@std@@V?$allocator@D@2@@std@@V12@@std@@@std@@@std@@@0@AAV10@@Z
	??$forward@_N@std@@YA$$QA_NAA_N@Z
	??$forward@AAV?$_Tree_iterator@V?$_Tree_val@U?$_Tree_simple_types@U?$pair@$$CBV?$basic_string@DU?$char_traits@D@std@@V?$allocator@D@2@@std@@V12@@std@@@std@@@std@@@std@@@std@@YAAAV?$_Tree_iterator@V?$_Tree_val@U?$_Tree_simple_types@U?$pair@$$CBV?$basic_string@DU?$char_traits@D@std@@V?$allocator@D@2@@std@@V12@@std@@@std@@@std@@@0@AAV10@@Z
	??$construct@U?$pair@$$CBV?$basic_string@DU?$char_traits@D@std@@V?$allocator@D@2@@std@@V12@@std@@ABUpiecewise_construct_t@2@V?$tuple@ABV?$basic_string@DU?$char_traits@D@std@@V?$allocator@D@2@@std@@@2@V?$tuple@$$$V@2@@?$allocator@U?$_Tree_node@U?$pair@$$CBV?$basic_string@DU?$char_traits@D@std@@V?$allocator@D@2@@std@@V12@@std@@PAX@std@@@std@@QAEXPAU?$pair@$$CBV?$basic_string@DU?$char_traits@D@std@@V?$allocator@D@2@@std@@V12@@1@ABUpiecewise_construct_t@1@$$QAV?$tuple@ABV?$basic_string@DU?$char_traits@D@std@@V?$allocator@D@2@@std@@@1@$$QAV?$tuple@$$$V@1@@Z
	??$?0ABV?$basic_string@DU?$char_traits@D@std@@V?$allocator@D@2@@std@@$$$V@?$pair@$$CBV?$basic_string@DU?$char_traits@D@std@@V?$allocator@D@2@@std@@V12@@std@@QAE@Upiecewise_construct_t@1@V?$tuple@ABV?$basic_string@DU?$char_traits@D@std@@V?$allocator@D@2@@std@@@1@V?$tuple@$$$V@1@@Z
	??$?0V?$tuple@ABV?$basic_string@DU?$char_traits@D@std@@V?$allocator@D@2@@std@@@std@@V?$tuple@$$$V@1@$0A@$S@?$pair@$$CBV?$basic_string@DU?$char_traits@D@std@@V?$allocator@D@2@@std@@V12@@std@@QAE@AAV?$tuple@ABV?$basic_string@DU?$char_traits@D@std@@V?$allocator@D@2@@std@@@1@AAV?$tuple@$$$V@1@U?$_Arg_idx@$0A@@1@U?$_Arg_idx@$S@1@@Z
	??$move@AAV?$tuple@ABV?$basic_string@DU?$char_traits@D@std@@V?$allocator@D@2@@std@@@std@@@std@@YA$$QAV?$tuple@ABV?$basic_string@DU?$char_traits@D@std@@V?$allocator@D@2@@std@@@0@AAV10@@Z
	??$get@$0A@ABV?$basic_string@DU?$char_traits@D@std@@V?$allocator@D@2@@std@@@std@@YAABV?$basic_string@DU?$char_traits@D@std@@V?$allocator@D@2@@0@$$QAV?$tuple@ABV?$basic_string@DU?$char_traits@D@std@@V?$allocator@D@2@@std@@@0@@Z
	?_Generic_object@?$_Error_objects@H@std@@2V_Generic_error_category@2@A 	 DATA
	?_Iostream_object@?$_Error_objects@H@std@@2V_Iostream_error_category@2@A 	 DATA
	?_System_object@?$_Error_objects@H@std@@2V_System_error_category@2@A 	 DATA
	?id@?$num_put@DV?$back_insert_iterator@V?$basic_string@DU?$char_traits@D@std@@V?$allocator@D@2@@std@@@std@@@std@@2V0locale@2@A 	 DATA
	?id@?$num_put@_WV?$back_insert_iterator@V?$basic_string@_WU?$char_traits@_W@std@@V?$allocator@_W@2@@std@@@std@@@std@@2V0locale@2@A 	 DATA
	??_R0?AVerror_category@std@@@8 	 DATA
	??_R0?AV_Generic_error_category@std@@@8 	 DATA
	??_R0?AV_Iostream_error_category@std@@@8 	 DATA
	??_R0?AV_System_error_category@std@@@8 	 DATA
	?condenseWhiteSpace@TiXmlBase@@0_NA 	 DATA
	hypot
	??2@YAPAXIPAX@Z
	??3@YAXPAX0@Z
	?compare@?$char_traits@D@std@@SAHPBD0I@Z
	?length@?$char_traits@D@std@@SAIPBD@Z
	?copy@?$char_traits@D@std@@SAPADPADPBDI@Z
	?find@?$char_traits@D@std@@SAPBDPBDIABD@Z
	?move@?$char_traits@D@std@@SAPADPADPBDI@Z
	?assign@?$char_traits@D@std@@SAPADPADID@Z
	?assign@?$char_traits@D@std@@SAXAADABD@Z
	?eq_int_type@?$char_traits@D@std@@SA_NABH0@Z
	?eof@?$char_traits@D@std@@SAHXZ
	??0?$allocator@D@std@@QAE@XZ
	??0?$allocator@D@std@@QAE@ABV01@@Z
	?deallocate@?$allocator@D@std@@QAEXPADI@Z
	?allocate@?$allocator@D@std@@QAEPADI@Z
	?max_size@?$allocator@D@std@@QBEIXZ
	?max_size@?$allocator_traits@V?$allocator@D@std@@@std@@SAIABV?$allocator@D@2@@Z
	??0?$_Wrap_alloc@V?$allocator@D@std@@@std@@QAE@XZ
	?allocate@?$_Wrap_alloc@V?$allocator@D@std@@@std@@QAEPADI@Z
	?deallocate@?$_Wrap_alloc@V?$allocator@D@std@@@std@@QAEXPADI@Z
	?max_size@?$_Wrap_alloc@V?$allocator@D@std@@@std@@QBEIXZ
	??0?$_String_val@U?$_Simple_types@D@std@@@std@@QAE@XZ
	?_Myptr@?$_String_val@U?$_Simple_types@D@std@@@std@@QAEPADXZ
	?_Myptr@?$_String_val@U?$_Simple_types@D@std@@@std@@QBEPBDXZ
	??0?$_String_alloc@$0A@U?$_String_base_types@DV?$allocator@D@std@@@std@@@std@@QAE@ABV?$allocator@D@1@@Z
	?_Change_alloc@?$_String_alloc@$0A@U?$_String_base_types@DV?$allocator@D@std@@@std@@@std@@QAEXABU?$_Wrap_alloc@V?$allocator@D@std@@@2@@Z
	?_Getal@?$_String_alloc@$0A@U?$_String_base_types@DV?$allocator@D@std@@@std@@@std@@QBE?AU?$_Wrap_alloc@V?$allocator@D@std@@@2@XZ
	??0?$basic_string@DU?$char_traits@D@std@@V?$allocator@D@2@@std@@QAE@XZ
	??0?$basic_string@DU?$char_traits@D@std@@V?$allocator@D@2@@std@@QAE@PBD@Z
	??1?$basic_string@DU?$char_traits@D@std@@V?$allocator@D@2@@std@@QAE@XZ
	??4?$basic_string@DU?$char_traits@D@std@@V?$allocator@D@2@@std@@QAEAAV01@ABV01@@Z
	??4?$basic_string@DU?$char_traits@D@std@@V?$allocator@D@2@@std@@QAEAAV01@PBD@Z
	??Y?$basic_string@DU?$char_traits@D@std@@V?$allocator@D@2@@std@@QAEAAV01@ABV01@@Z
	??Y?$basic_string@DU?$char_traits@D@std@@V?$allocator@D@2@@std@@QAEAAV01@PBD@Z
	??Y?$basic_string@DU?$char_traits@D@std@@V?$allocator@D@2@@std@@QAEAAV01@D@Z
	?append@?$basic_string@DU?$char_traits@D@std@@V?$allocator@D@2@@std@@QAEAAV12@ABV12@@Z
	?append@?$basic_string@DU?$char_traits@D@std@@V?$allocator@D@2@@std@@QAEAAV12@ABV12@II@Z
	?append@?$basic_string@DU?$char_traits@D@std@@V?$allocator@D@2@@std@@QAEAAV12@PBDI@Z
	?append@?$basic_string@DU?$char_traits@D@std@@V?$allocator@D@2@@std@@QAEAAV12@PBD@Z
	?append@?$basic_string@DU?$char_traits@D@std@@V?$allocator@D@2@@std@@QAEAAV12@ID@Z
	?assign@?$basic_string@DU?$char_traits@D@std@@V?$allocator@D@2@@std@@QAEAAV12@ABV12@@Z
	?assign@?$basic_string@DU?$char_traits@D@std@@V?$allocator@D@2@@std@@QAEAAV12@ABV12@II@Z
	?assign@?$basic_string@DU?$char_traits@D@std@@V?$allocator@D@2@@std@@QAEAAV12@PBDI@Z
	?assign@?$basic_string@DU?$char_traits@D@std@@V?$allocator@D@2@@std@@QAEAAV12@PBD@Z
	?erase@?$basic_string@DU?$char_traits@D@std@@V?$allocator@D@2@@std@@QAEAAV12@I@Z
	?erase@?$basic_string@DU?$char_traits@D@std@@V?$allocator@D@2@@std@@QAEAAV12@II@Z
	??A?$basic_string@DU?$char_traits@D@std@@V?$allocator@D@2@@std@@QBEABDI@Z
	?c_str@?$basic_string@DU?$char_traits@D@std@@V?$allocator@D@2@@std@@QBEPBDXZ
	?length@?$basic_string@DU?$char_traits@D@std@@V?$allocator@D@2@@std@@QBEIXZ
	?size@?$basic_string@DU?$char_traits@D@std@@V?$allocator@D@2@@std@@QBEIXZ
	?max_size@?$basic_string@DU?$char_traits@D@std@@V?$allocator@D@2@@std@@QBEIXZ
	?reserve@?$basic_string@DU?$char_traits@D@std@@V?$allocator@D@2@@std@@QAEXI@Z
	?empty@?$basic_string@DU?$char_traits@D@std@@V?$allocator@D@2@@std@@QBE_NXZ
	?find@?$basic_string@DU?$char_traits@D@std@@V?$allocator@D@2@@std@@QBEIPBDII@Z
	?find@?$basic_string@DU?$char_traits@D@std@@V?$allocator@D@2@@std@@QBEIDI@Z
	?compare@?$basic_string@DU?$char_traits@D@std@@V?$allocator@D@2@@std@@QBEHABV12@@Z
	?compare@?$basic_string@DU?$char_traits@D@std@@V?$allocator@D@2@@std@@QBEHIIPBDI@Z
	?_Chassign@?$basic_string@DU?$char_traits@D@std@@V?$allocator@D@2@@std@@QAEXIID@Z
	?_Copy@?$basic_string@DU?$char_traits@D@std@@V?$allocator@D@2@@std@@QAEXII@Z
	?_Eos@?$basic_string@DU?$char_traits@D@std@@V?$allocator@D@2@@std@@QAEXI@Z
	?_Grow@?$basic_string@DU?$char_traits@D@std@@V?$allocator@D@2@@std@@QAE_NI_N@Z
	?_Inside@?$basic_string@DU?$char_traits@D@std@@V?$allocator@D@2@@std@@QAE_NPBD@Z
	?_Tidy@?$basic_string@DU?$char_traits@D@std@@V?$allocator@D@2@@std@@QAEX_NI@Z
	?_Xlen@?$basic_string@DU?$char_traits@D@std@@V?$allocator@D@2@@std@@QBEXXZ
	?_Xran@?$basic_string@DU?$char_traits@D@std@@V?$allocator@D@2@@std@@QBEXXZ
	?generic_category@std@@YAABVerror_category@1@XZ
	?system_category@std@@YAABVerror_category@1@XZ
	??0error_category@std@@QAE@XZ
	??1error_category@std@@UAE@XZ
	?default_error_condition@error_category@std@@UBE?AVerror_condition@2@H@Z
	?equivalent@error_category@std@@UBE_NHABVerror_condition@2@@Z
	?equivalent@error_category@std@@UBE_NABVerror_code@2@H@Z
	??8error_category@std@@QBE_NABV01@@Z
	?value@error_code@std@@QBEHXZ
	?category@error_code@std@@QBEABVerror_category@2@XZ
	??0error_condition@std@@QAE@HABVerror_category@1@@Z
	?value@error_condition@std@@QBEHXZ
	?category@error_condition@std@@QBEABVerror_category@2@XZ
	??8error_condition@std@@QBE_NABV01@@Z
	??0_Generic_error_category@std@@QAE@XZ
	?name@_Generic_error_category@std@@UBEPBDXZ
	?message@_Generic_error_category@std@@UBE?AV?$basic_string@DU?$char_traits@D@std@@V?$allocator@D@2@@2@H@Z
	??1_Generic_error_category@std@@UAE@XZ
	??0_Iostream_error_category@std@@QAE@XZ
	?name@_Iostream_error_category@std@@UBEPBDXZ
	?message@_Iostream_error_category@std@@UBE?AV?$basic_string@DU?$char_traits@D@std@@V?$allocator@D@2@@2@H@Z
	??1_Iostream_error_category@std@@UAE@XZ
	??0_System_error_category@std@@QAE@XZ
	?name@_System_error_category@std@@UBEPBDXZ
	?message@_System_error_category@std@@UBE?AV?$basic_string@DU?$char_traits@D@std@@V?$allocator@D@2@@2@H@Z
	?default_error_condition@_System_error_category@std@@UBE?AVerror_condition@2@H@Z
	??1_System_error_category@std@@UAE@XZ
	??0TiXmlCursor@@QAE@XZ
	?Clear@TiXmlCursor@@QAEXXZ
	??1TiXmlVisitor@@UAE@XZ
	?VisitEnter@TiXmlVisitor@@UAE_NABVTiXmlDocument@@@Z
	?VisitExit@TiXmlVisitor@@UAE_NABVTiXmlDocument@@@Z
	?VisitEnter@TiXmlVisitor@@UAE_NABVTiXmlElement@@PBVTiXmlAttribute@@@Z
	?VisitExit@TiXmlVisitor@@UAE_NABVTiXmlElement@@@Z
	?Visit@TiXmlVisitor@@UAE_NABVTiXmlDeclaration@@@Z
	?Visit@TiXmlVisitor@@UAE_NABVTiXmlText@@@Z
	?Visit@TiXmlVisitor@@UAE_NABVTiXmlComment@@@Z
	?Visit@TiXmlVisitor@@UAE_NABVTiXmlUnknown@@@Z
	??0TiXmlVisitor@@QAE@XZ
	??0TiXmlBase@@QAE@XZ
	??1TiXmlBase@@UAE@XZ
	?EncodeString@TiXmlBase@@SAXABV?$basic_string@DU?$char_traits@D@std@@V?$allocator@D@2@@std@@PAV23@@Z
	??5@YAAAV?$basic_istream@DU?$char_traits@D@std@@@std@@AAV01@AAVTiXmlNode@@@Z
	??6@YAAAV?$basic_ostream@DU?$char_traits@D@std@@@std@@AAV01@ABVTiXmlNode@@@Z
	??6@YAAAV?$basic_string@DU?$char_traits@D@std@@V?$allocator@D@2@@std@@AAV01@ABVTiXmlNode@@@Z
	??1TiXmlNode@@UAE@XZ
	?Value@TiXmlNode@@QBEPBDXZ
	?ValueTStr@TiXmlNode@@QBEABV?$basic_string@DU?$char_traits@D@std@@V?$allocator@D@2@@std@@XZ
	?SetValue@TiXmlNode@@QAEXPBD@Z
	?Clear@TiXmlNode@@QAEXXZ
	?FirstChild@TiXmlNode@@QBEPBV1@XZ
	?FirstChild@TiXmlNode@@QAEPAV1@XZ
	?FirstChild@TiXmlNode@@QBEPBV1@PBD@Z
	?FirstChild@TiXmlNode@@QAEPAV1@PBD@Z
	?LastChild@TiXmlNode@@QBEPBV1@XZ
	?LastChild@TiXmlNode@@QBEPBV1@PBD@Z
	?IterateChildren@TiXmlNode@@QBEPBV1@PBV1@@Z
	?IterateChildren@TiXmlNode@@QBEPBV1@PBDPBV1@@Z
	?InsertEndChild@TiXmlNode@@QAEPAV1@ABV1@@Z
	?LinkEndChild@TiXmlNode@@QAEPAV1@PAV1@@Z
	?InsertBeforeChild@TiXmlNode@@QAEPAV1@PAV1@ABV1@@Z
	?InsertAfterChild@TiXmlNode@@QAEPAV1@PAV1@ABV1@@Z
	?ReplaceChild@TiXmlNode@@QAEPAV1@PAV1@ABV1@@Z
	?RemoveChild@TiXmlNode@@QAE_NPAV1@@Z
	?PreviousSibling@TiXmlNode@@QBEPBV1@PBD@Z
	?NextSibling@TiXmlNode@@QBEPBV1@XZ
	?NextSibling@TiXmlNode@@QAEPAV1@XZ
	?NextSibling@TiXmlNode@@QBEPBV1@PBD@Z
	?NextSibling@TiXmlNode@@QAEPAV1@PBD@Z
	?NextSiblingElement@TiXmlNode@@QBEPBVTiXmlElement@@XZ
	?NextSiblingElement@TiXmlNode@@QAEPAVTiXmlElement@@XZ
	?NextSiblingElement@TiXmlNode@@QBEPBVTiXmlElement@@PBD@Z
	?NextSiblingElement@TiXmlNode@@QAEPAVTiXmlElement@@PBD@Z
	?FirstChildElement@TiXmlNode@@QBEPBVTiXmlElement@@XZ
	?FirstChildElement@TiXmlNode@@QAEPAVTiXmlElement@@XZ
	?FirstChildElement@TiXmlNode@@QBEPBVTiXmlElement@@PBD@Z
	?FirstChildElement@TiXmlNode@@QAEPAVTiXmlElement@@PBD@Z
	?Type@TiXmlNode@@QBEHXZ
	?GetDocument@TiXmlNode@@QBEPBVTiXmlDocument@@XZ
	?GetDocument@TiXmlNode@@QAEPAVTiXmlDocument@@XZ
	?ToDocument@TiXmlNode@@UBEPBVTiXmlDocument@@XZ
	?ToElement@TiXmlNode@@UBEPBVTiXmlElement@@XZ
	?ToComment@TiXmlNode@@UBEPBVTiXmlComment@@XZ
	?ToUnknown@TiXmlNode@@UBEPBVTiXmlUnknown@@XZ
	?ToText@TiXmlNode@@UBEPBVTiXmlText@@XZ
	?ToDeclaration@TiXmlNode@@UBEPBVTiXmlDeclaration@@XZ
	?ToDocument@TiXmlNode@@UAEPAVTiXmlDocument@@XZ
	?ToElement@TiXmlNode@@UAEPAVTiXmlElement@@XZ
	?ToComment@TiXmlNode@@UAEPAVTiXmlComment@@XZ
	?ToUnknown@TiXmlNode@@UAEPAVTiXmlUnknown@@XZ
	?ToText@TiXmlNode@@UAEPAVTiXmlText@@XZ
	?ToDeclaration@TiXmlNode@@UAEPAVTiXmlDeclaration@@XZ
	??0TiXmlNode@@IAE@W4NodeType@0@@Z
	?CopyTo@TiXmlNode@@IBEXPAV1@@Z
	??0TiXmlAttribute@@QAE@XZ
	?Name@TiXmlAttribute@@QBEPBDXZ
	?Value@TiXmlAttribute@@QBEPBDXZ
	?ValueStr@TiXmlAttribute@@QBEABV?$basic_string@DU?$char_traits@D@std@@V?$allocator@D@2@@std@@XZ
	?IntValue@TiXmlAttribute@@QBEHXZ
	?DoubleValue@TiXmlAttribute@@QBENXZ
	?QueryIntValue@TiXmlAttribute@@QBEHPAH@Z
	?QueryDoubleValue@TiXmlAttribute@@QBEHPAN@Z
	?SetName@TiXmlAttribute@@QAEXPBD@Z
	?SetValue@TiXmlAttribute@@QAEXPBD@Z
	?SetIntValue@TiXmlAttribute@@QAEXH@Z
	?SetDoubleValue@TiXmlAttribute@@QAEXN@Z
	?SetName@TiXmlAttribute@@QAEXABV?$basic_string@DU?$char_traits@D@std@@V?$allocator@D@2@@std@@@Z
	?SetValue@TiXmlAttribute@@QAEXABV?$basic_string@DU?$char_traits@D@std@@V?$allocator@D@2@@std@@@Z
	?Next@TiXmlAttribute@@QBEPBV1@XZ
	?Previous@TiXmlAttribute@@QBEPBV1@XZ
	?Print@TiXmlAttribute@@UBEXPAU_iobuf@@H@Z
	?Print@TiXmlAttribute@@QBEXPAU_iobuf@@HPAV?$basic_string@DU?$char_traits@D@std@@V?$allocator@D@2@@std@@@Z
	??1TiXmlAttribute@@UAE@XZ
	??$?8DU?$char_traits@D@std@@V?$allocator@D@1@@std@@YA_NABV?$basic_string@DU?$char_traits@D@std@@V?$allocator@D@2@@0@0@Z
	??0TiXmlAttributeSet@@QAE@XZ
	??1TiXmlAttributeSet@@QAE@XZ
	?Add@TiXmlAttributeSet@@QAEXPAVTiXmlAttribute@@@Z
	?Remove@TiXmlAttributeSet@@QAEXPAVTiXmlAttribute@@@Z
	?First@TiXmlAttributeSet@@QBEPBVTiXmlAttribute@@XZ
	?First@TiXmlAttributeSet@@QAEPAVTiXmlAttribute@@XZ
	?Find@TiXmlAttributeSet@@QBEPAVTiXmlAttribute@@PBD@Z
	?FindOrCreate@TiXmlAttributeSet@@QAEPAVTiXmlAttribute@@PBD@Z
	?Find@TiXmlAttributeSet@@QBEPAVTiXmlAttribute@@ABV?$basic_string@DU?$char_traits@D@std@@V?$allocator@D@2@@std@@@Z
	?FindOrCreate@TiXmlAttributeSet@@QAEPAVTiXmlAttribute@@ABV?$basic_string@DU?$char_traits@D@std@@V?$allocator@D@2@@std@@@Z
	??0TiXmlElement@@QAE@PBD@Z
	??0TiXmlElement@@QAE@ABV?$basic_string@DU?$char_traits@D@std@@V?$allocator@D@2@@std@@@Z
	??0TiXmlElement@@QAE@ABV0@@Z
	??4TiXmlElement@@QAEAAV0@ABV0@@Z
	??1TiXmlElement@@UAE@XZ
	?Attribute@TiXmlElement@@QBEPBDPBD@Z
	?Attribute@TiXmlElement@@QBEPBDPBDPAH@Z
	?Attribute@TiXmlElement@@QBEPBDPBDPAN@Z
	?QueryIntAttribute@TiXmlElement@@QBEHPBDPAH@Z
	?QueryUnsignedAttribute@TiXmlElement@@QBEHPBDPAI@Z
	?QueryBoolAttribute@TiXmlElement@@QBEHPBDPA_N@Z
	?QueryDoubleAttribute@TiXmlElement@@QBEHPBDPAN@Z
	?SetAttribute@TiXmlElement@@QAEXPBD0@Z
	?Attribute@TiXmlElement@@QBEPBV?$basic_string@DU?$char_traits@D@std@@V?$allocator@D@2@@std@@ABV23@@Z
	?Attribute@TiXmlElement@@QBEPBV?$basic_string@DU?$char_traits@D@std@@V?$allocator@D@2@@std@@ABV23@PAH@Z
	?Attribute@TiXmlElement@@QBEPBV?$basic_string@DU?$char_traits@D@std@@V?$allocator@D@2@@std@@ABV23@PAN@Z
	?QueryIntAttribute@TiXmlElement@@QBEHABV?$basic_string@DU?$char_traits@D@std@@V?$allocator@D@2@@std@@PAH@Z
	?QueryDoubleAttribute@TiXmlElement@@QBEHABV?$basic_string@DU?$char_traits@D@std@@V?$allocator@D@2@@std@@PAN@Z
	?SetAttribute@TiXmlElement@@QAEXABV?$basic_string@DU?$char_traits@D@std@@V?$allocator@D@2@@std@@0@Z
	?SetAttribute@TiXmlElement@@QAEXABV?$basic_string@DU?$char_traits@D@std@@V?$allocator@D@2@@std@@H@Z
	?SetDoubleAttribute@TiXmlElement@@QAEXABV?$basic_string@DU?$char_traits@D@std@@V?$allocator@D@2@@std@@N@Z
	?SetAttribute@TiXmlElement@@QAEXPBDH@Z
	?SetDoubleAttribute@TiXmlElement@@QAEXPBDN@Z
	?RemoveAttribute@TiXmlElement@@QAEXPBD@Z
	?GetText@TiXmlElement@@QBEPBDXZ
	?Clone@TiXmlElement@@UBEPAVTiXmlNode@@XZ
	?Print@TiXmlElement@@UBEXPAU_iobuf@@H@Z
	?ToElement@TiXmlElement@@UBEPBV1@XZ
	?ToElement@TiXmlElement@@UAEPAV1@XZ
	?Accept@TiXmlElement@@UBE_NPAVTiXmlVisitor@@@Z
	?CopyTo@TiXmlElement@@IBEXPAV1@@Z
	?ClearThis@TiXmlElement@@IAEXXZ
	??0TiXmlComment@@QAE@XZ
	??0TiXmlComment@@QAE@ABV0@@Z
	??4TiXmlComment@@QAEAAV0@ABV0@@Z
	??1TiXmlComment@@UAE@XZ
	?Clone@TiXmlComment@@UBEPAVTiXmlNode@@XZ
	?Print@TiXmlComment@@UBEXPAU_iobuf@@H@Z
	?ToComment@TiXmlComment@@UBEPBV1@XZ
	?ToComment@TiXmlComment@@UAEPAV1@XZ
	?Accept@TiXmlComment@@UBE_NPAVTiXmlVisitor@@@Z
	?CopyTo@TiXmlComment@@IBEXPAV1@@Z
	??0TiXmlText@@QAE@PBD@Z
	??1TiXmlText@@UAE@XZ
	?Print@TiXmlText@@UBEXPAU_iobuf@@H@Z
	?CDATA@TiXmlText@@QBE_NXZ
	?ToText@TiXmlText@@UBEPBV1@XZ
	?ToText@TiXmlText@@UAEPAV1@XZ
	?Accept@TiXmlText@@UBE_NPAVTiXmlVisitor@@@Z
	?Clone@TiXmlText@@MBEPAVTiXmlNode@@XZ
	?CopyTo@TiXmlText@@IBEXPAV1@@Z
	??0TiXmlDeclaration@@QAE@XZ
	??0TiXmlDeclaration@@QAE@ABV?$basic_string@DU?$char_traits@D@std@@V?$allocator@D@2@@std@@00@Z
	??0TiXmlDeclaration@@QAE@PBD00@Z
	??0TiXmlDeclaration@@QAE@ABV0@@Z
	??4TiXmlDeclaration@@QAEAAV0@ABV0@@Z
	??1TiXmlDeclaration@@UAE@XZ
	?Clone@TiXmlDeclaration@@UBEPAVTiXmlNode@@XZ
	?Print@TiXmlDeclaration@@UBEXPAU_iobuf@@HPAV?$basic_string@DU?$char_traits@D@std@@V?$allocator@D@2@@std@@@Z
	?Print@TiXmlDeclaration@@UBEXPAU_iobuf@@H@Z
	?ToDeclaration@TiXmlDeclaration@@UBEPBV1@XZ
	?ToDeclaration@TiXmlDeclaration@@UAEPAV1@XZ
	?Accept@TiXmlDeclaration@@UBE_NPAVTiXmlVisitor@@@Z
	?CopyTo@TiXmlDeclaration@@IBEXPAV1@@Z
	??0TiXmlUnknown@@QAE@XZ
	??1TiXmlUnknown@@UAE@XZ
	?Clone@TiXmlUnknown@@UBEPAVTiXmlNode@@XZ
	?Print@TiXmlUnknown@@UBEXPAU_iobuf@@H@Z
	?ToUnknown@TiXmlUnknown@@UBEPBV1@XZ
	?ToUnknown@TiXmlUnknown@@UAEPAV1@XZ
	?Accept@TiXmlUnknown@@UBE_NPAVTiXmlVisitor@@@Z
	?CopyTo@TiXmlUnknown@@IBEXPAV1@@Z
	??0TiXmlDocument@@QAE@XZ
	??0TiXmlDocument@@QAE@PBD@Z
	??0TiXmlDocument@@QAE@ABV?$basic_string@DU?$char_traits@D@std@@V?$allocator@D@2@@std@@@Z
	??0TiXmlDocument@@QAE@ABV0@@Z
	??4TiXmlDocument@@QAEAAV0@ABV0@@Z
	??1TiXmlDocument@@UAE@XZ
	?LoadFile@TiXmlDocument@@QAE_NW4TiXmlEncoding@@@Z
	?SaveFile@TiXmlDocument@@QBE_NXZ
	?LoadFile@TiXmlDocument@@QAE_NPBDW4TiXmlEncoding@@@Z
	?SaveFile@TiXmlDocument@@QBE_NPBD@Z
	?LoadFile@TiXmlDocument@@QAE_NPAU_iobuf@@W4TiXmlEncoding@@@Z
	?SaveFile@TiXmlDocument@@QBE_NPAU_iobuf@@@Z
	?Error@TiXmlDocument@@QBE_NXZ
	?ClearError@TiXmlDocument@@QAEXXZ
	?Print@TiXmlDocument@@UBEXPAU_iobuf@@H@Z
	?ToDocument@TiXmlDocument@@UBEPBV1@XZ
	?ToDocument@TiXmlDocument@@UAEPAV1@XZ
	?Accept@TiXmlDocument@@UBE_NPAVTiXmlVisitor@@@Z
	?Clone@TiXmlDocument@@MBEPAVTiXmlNode@@XZ
	?CopyTo@TiXmlDocument@@ABEXPAV1@@Z
	??0TiXmlHandle@@QAE@PAVTiXmlNode@@@Z
	?FirstChild@TiXmlHandle@@QBE?AV1@XZ
	?FirstChild@TiXmlHandle@@QBE?AV1@PBD@Z
	?FirstChildElement@TiXmlHandle@@QBE?AV1@XZ
	?FirstChildElement@TiXmlHandle@@QBE?AV1@PBD@Z
	?Child@TiXmlHandle@@QBE?AV1@PBDH@Z
	?Child@TiXmlHandle@@QBE?AV1@H@Z
	?ChildElement@TiXmlHandle@@QBE?AV1@PBDH@Z
	?ChildElement@TiXmlHandle@@QBE?AV1@H@Z
	??0TiXmlPrinter@@QAE@XZ
	?VisitEnter@TiXmlPrinter@@UAE_NABVTiXmlDocument@@@Z
	?VisitExit@TiXmlPrinter@@UAE_NABVTiXmlDocument@@@Z
	?VisitEnter@TiXmlPrinter@@UAE_NABVTiXmlElement@@PBVTiXmlAttribute@@@Z
	?VisitExit@TiXmlPrinter@@UAE_NABVTiXmlElement@@@Z
	?Visit@TiXmlPrinter@@UAE_NABVTiXmlDeclaration@@@Z
	?Visit@TiXmlPrinter@@UAE_NABVTiXmlText@@@Z
	?Visit@TiXmlPrinter@@UAE_NABVTiXmlComment@@@Z
	?Visit@TiXmlPrinter@@UAE_NABVTiXmlUnknown@@@Z
	?SetStreamPrinting@TiXmlPrinter@@QAEXXZ
	?Str@TiXmlPrinter@@QAEABV?$basic_string@DU?$char_traits@D@std@@V?$allocator@D@2@@std@@XZ
	?DoIndent@TiXmlPrinter@@AAEXXZ
	?DoLineBreak@TiXmlPrinter@@AAEXXZ
	??1TiXmlPrinter@@UAE@XZ
	?TiXmlFOpen@@YAPAU_iobuf@@PBD0@Z
	??$_snprintf_s@$0CA@@@YAHAAY0CA@DIPBDZZ
	??$_snprintf_s@$0EA@@@YAHAAY0EA@DIPBDZZ
	??$_snprintf_s@$0BAA@@@YAHAAY0BAA@DIPBDZZ
	??$?6DU?$char_traits@D@std@@V?$allocator@D@1@@std@@YAAAV?$basic_ostream@DU?$char_traits@D@std@@@0@AAV10@ABV?$basic_string@DU?$char_traits@D@std@@V?$allocator@D@2@@0@@Z
	??$?9V?$allocator@D@std@@V01@@std@@YA_NABU?$_Wrap_alloc@V?$allocator@D@std@@@0@0@Z
	??$construct@PADAAPAD@?$_Wrap_alloc@V?$allocator@D@std@@@std@@QAEXPAPADAAPAD@Z
	??$destroy@PAD@?$_Wrap_alloc@V?$allocator@D@std@@@std@@QAEXPAPAD@Z
	??$addressof@D@std@@YAPADAAD@Z
	??0_Sentry_base@?$basic_ostream@DU?$char_traits@D@std@@@std@@QAE@AAV12@@Z
	??1_Sentry_base@?$basic_ostream@DU?$char_traits@D@std@@@std@@QAE@XZ
	??0sentry@?$basic_ostream@DU?$char_traits@D@std@@@std@@QAE@AAV12@@Z
	??1sentry@?$basic_ostream@DU?$char_traits@D@std@@@std@@QAE@XZ
	??Bsentry@?$basic_ostream@DU?$char_traits@D@std@@@std@@QBE_NXZ
	??$_Allocate@D@std@@YAPADIPAD@Z
	??$?8V?$allocator@D@std@@V01@@std@@YA_NABU?$_Wrap_alloc@V?$allocator@D@std@@@0@0@Z
	??$?8DD@std@@YA_NABV?$allocator@D@0@0@Z
	??$forward@AAPAD@std@@YAAAPADAAPAD@Z
	??$construct@PADAAPAD@?$allocator_traits@V?$allocator@D@std@@@std@@SAXAAV?$allocator@D@1@PAPADAAPAD@Z
	??$destroy@PAD@?$allocator_traits@V?$allocator@D@std@@@std@@SAXAAV?$allocator@D@1@PAPAD@Z
	??$construct@PADAAPAD@?$allocator@D@std@@QAEXPAPADAAPAD@Z
	??$destroy@PAD@?$allocator@D@std@@QAEXPAPAD@Z
	?_Generic_object@?$_Error_objects@H@std@@2V_Generic_error_category@2@A 	 DATA
	?_Iostream_object@?$_Error_objects@H@std@@2V_Iostream_error_category@2@A 	 DATA
	?_System_object@?$_Error_objects@H@std@@2V_System_error_category@2@A 	 DATA
	?id@?$num_put@DV?$back_insert_iterator@V?$basic_string@DU?$char_traits@D@std@@V?$allocator@D@2@@std@@@std@@@std@@2V0locale@2@A 	 DATA
	?id@?$num_put@_WV?$back_insert_iterator@V?$basic_string@_WU?$char_traits@_W@std@@V?$allocator@_W@2@@std@@@std@@@std@@2V0locale@2@A 	 DATA
	??_R0?AVerror_category@std@@@8 	 DATA
	??_R0?AV_Generic_error_category@std@@@8 	 DATA
	??_R0?AV_Iostream_error_category@std@@@8 	 DATA
	??_R0?AV_System_error_category@std@@@8 	 DATA
	??_R0?AVTiXmlDocument@@@8 	 DATA
	??_R0?AVTiXmlNode@@@8 	 DATA
	??_R0?AVTiXmlBase@@@8 	 DATA
	??_R0?AVTiXmlElement@@@8 	 DATA
	??_R0?AVTiXmlComment@@@8 	 DATA
	??_R0?AVTiXmlUnknown@@@8 	 DATA
	??_R0?AVTiXmlAttribute@@@8 	 DATA
	??_R0?AVTiXmlText@@@8 	 DATA
	??_R0?AVTiXmlDeclaration@@@8 	 DATA
	??_R0?AVTiXmlVisitor@@@8 	 DATA
	??_R0?AVTiXmlPrinter@@@8 	 DATA
	?errorString@TiXmlBase@@1PAPBDA 	 DATA
	hypot
	??2@YAPAXIPAX@Z
	??3@YAXPAX0@Z
	?length@?$char_traits@D@std@@SAIPBD@Z
	?copy@?$char_traits@D@std@@SAPADPADPBDI@Z
	?move@?$char_traits@D@std@@SAPADPADPBDI@Z
	?assign@?$char_traits@D@std@@SAXAADABD@Z
	??0?$allocator@D@std@@QAE@XZ
	?deallocate@?$allocator@D@std@@QAEXPADI@Z
	?allocate@?$allocator@D@std@@QAEPADI@Z
	?max_size@?$allocator@D@std@@QBEIXZ
	?max_size@?$allocator_traits@V?$allocator@D@std@@@std@@SAIABV?$allocator@D@2@@Z
	??0?$_Wrap_alloc@V?$allocator@D@std@@@std@@QAE@XZ
	?allocate@?$_Wrap_alloc@V?$allocator@D@std@@@std@@QAEPADI@Z
	?deallocate@?$_Wrap_alloc@V?$allocator@D@std@@@std@@QAEXPADI@Z
	?max_size@?$_Wrap_alloc@V?$allocator@D@std@@@std@@QBEIXZ
	??0?$_String_val@U?$_Simple_types@D@std@@@std@@QAE@XZ
	?_Myptr@?$_String_val@U?$_Simple_types@D@std@@@std@@QAEPADXZ
	?_Myptr@?$_String_val@U?$_Simple_types@D@std@@@std@@QBEPBDXZ
	??0?$_String_alloc@$0A@U?$_String_base_types@DV?$allocator@D@std@@@std@@@std@@QAE@ABV?$allocator@D@1@@Z
	?_Getal@?$_String_alloc@$0A@U?$_String_base_types@DV?$allocator@D@std@@@std@@@std@@QBE?AU?$_Wrap_alloc@V?$allocator@D@std@@@2@XZ
	??0?$basic_string@DU?$char_traits@D@std@@V?$allocator@D@2@@std@@QAE@PBD@Z
	??1?$basic_string@DU?$char_traits@D@std@@V?$allocator@D@2@@std@@QAE@XZ
	?assign@?$basic_string@DU?$char_traits@D@std@@V?$allocator@D@2@@std@@QAEAAV12@ABV12@II@Z
	?assign@?$basic_string@DU?$char_traits@D@std@@V?$allocator@D@2@@std@@QAEAAV12@PBDI@Z
	?assign@?$basic_string@DU?$char_traits@D@std@@V?$allocator@D@2@@std@@QAEAAV12@PBD@Z
	?erase@?$basic_string@DU?$char_traits@D@std@@V?$allocator@D@2@@std@@QAEAAV12@I@Z
	?erase@?$basic_string@DU?$char_traits@D@std@@V?$allocator@D@2@@std@@QAEAAV12@II@Z
	?size@?$basic_string@DU?$char_traits@D@std@@V?$allocator@D@2@@std@@QBEIXZ
	?max_size@?$basic_string@DU?$char_traits@D@std@@V?$allocator@D@2@@std@@QBEIXZ
	?_Copy@?$basic_string@DU?$char_traits@D@std@@V?$allocator@D@2@@std@@QAEXII@Z
	?_Eos@?$basic_string@DU?$char_traits@D@std@@V?$allocator@D@2@@std@@QAEXI@Z
	?_Grow@?$basic_string@DU?$char_traits@D@std@@V?$allocator@D@2@@std@@QAE_NI_N@Z
	?_Inside@?$basic_string@DU?$char_traits@D@std@@V?$allocator@D@2@@std@@QAE_NPBD@Z
	?_Tidy@?$basic_string@DU?$char_traits@D@std@@V?$allocator@D@2@@std@@QAEX_NI@Z
	?_Xlen@?$basic_string@DU?$char_traits@D@std@@V?$allocator@D@2@@std@@QBEXXZ
	?_Xran@?$basic_string@DU?$char_traits@D@std@@V?$allocator@D@2@@std@@QBEXXZ
	?generic_category@std@@YAABVerror_category@1@XZ
	?system_category@std@@YAABVerror_category@1@XZ
	??0error_category@std@@QAE@XZ
	??1error_category@std@@UAE@XZ
	?default_error_condition@error_category@std@@UBE?AVerror_condition@2@H@Z
	?equivalent@error_category@std@@UBE_NHABVerror_condition@2@@Z
	?equivalent@error_category@std@@UBE_NABVerror_code@2@H@Z
	??8error_category@std@@QBE_NABV01@@Z
	?value@error_code@std@@QBEHXZ
	?category@error_code@std@@QBEABVerror_category@2@XZ
	??0error_condition@std@@QAE@HABVerror_category@1@@Z
	?value@error_condition@std@@QBEHXZ
	?category@error_condition@std@@QBEABVerror_category@2@XZ
	??8error_condition@std@@QBE_NABV01@@Z
	??0_Generic_error_category@std@@QAE@XZ
	?name@_Generic_error_category@std@@UBEPBDXZ
	?message@_Generic_error_category@std@@UBE?AV?$basic_string@DU?$char_traits@D@std@@V?$allocator@D@2@@2@H@Z
	??1_Generic_error_category@std@@UAE@XZ
	??0_Iostream_error_category@std@@QAE@XZ
	?name@_Iostream_error_category@std@@UBEPBDXZ
	?message@_Iostream_error_category@std@@UBE?AV?$basic_string@DU?$char_traits@D@std@@V?$allocator@D@2@@2@H@Z
	??1_Iostream_error_category@std@@UAE@XZ
	??0_System_error_category@std@@QAE@XZ
	?name@_System_error_category@std@@UBEPBDXZ
	?message@_System_error_category@std@@UBE?AV?$basic_string@DU?$char_traits@D@std@@V?$allocator@D@2@@2@H@Z
	?default_error_condition@_System_error_category@std@@UBE?AVerror_condition@2@H@Z
	??1_System_error_category@std@@UAE@XZ
	??$construct@PADAAPAD@?$_Wrap_alloc@V?$allocator@D@std@@@std@@QAEXPAPADAAPAD@Z
	??$destroy@PAD@?$_Wrap_alloc@V?$allocator@D@std@@@std@@QAEXPAPAD@Z
	??$addressof@D@std@@YAPADAAD@Z
	??$_Allocate@D@std@@YAPADIPAD@Z
	??$forward@AAPAD@std@@YAAAPADAAPAD@Z
	??$construct@PADAAPAD@?$allocator_traits@V?$allocator@D@std@@@std@@SAXAAV?$allocator@D@1@PAPADAAPAD@Z
	??$destroy@PAD@?$allocator_traits@V?$allocator@D@std@@@std@@SAXAAV?$allocator@D@1@PAPAD@Z
	??$construct@PADAAPAD@?$allocator@D@std@@QAEXPAPADAAPAD@Z
	??$destroy@PAD@?$allocator@D@std@@QAEXPAPAD@Z
	?_Generic_object@?$_Error_objects@H@std@@2V_Generic_error_category@2@A 	 DATA
	?_Iostream_object@?$_Error_objects@H@std@@2V_Iostream_error_category@2@A 	 DATA
	?_System_object@?$_Error_objects@H@std@@2V_System_error_category@2@A 	 DATA
	?id@?$num_put@DV?$back_insert_iterator@V?$basic_string@DU?$char_traits@D@std@@V?$allocator@D@2@@std@@@std@@@std@@2V0locale@2@A 	 DATA
	?id@?$num_put@_WV?$back_insert_iterator@V?$basic_string@_WU?$char_traits@_W@std@@V?$allocator@_W@2@@std@@@std@@@std@@2V0locale@2@A 	 DATA
	??_R0?AVerror_category@std@@@8 	 DATA
	??_R0?AV_Generic_error_category@std@@@8 	 DATA
	??_R0?AV_Iostream_error_category@std@@@8 	 DATA
	??_R0?AV_System_error_category@std@@@8 	 DATA
	?entity@TiXmlBase@@0PAUEntity@1@A 	 DATA
	hypot
	??2@YAPAXIPAX@Z
	??3@YAXPAX0@Z
	?length@?$char_traits@D@std@@SAIPBD@Z
	?copy@?$char_traits@D@std@@SAPADPADPBDI@Z
	?move@?$char_traits@D@std@@SAPADPADPBDI@Z
	?assign@?$char_traits@D@std@@SAPADPADID@Z
	?assign@?$char_traits@D@std@@SAXAADABD@Z
	??0?$allocator@D@std@@QAE@XZ
	?deallocate@?$allocator@D@std@@QAEXPADI@Z
	?allocate@?$allocator@D@std@@QAEPADI@Z
	?max_size@?$allocator@D@std@@QBEIXZ
	?max_size@?$allocator_traits@V?$allocator@D@std@@@std@@SAIABV?$allocator@D@2@@Z
	??0?$_Wrap_alloc@V?$allocator@D@std@@@std@@QAE@XZ
	?allocate@?$_Wrap_alloc@V?$allocator@D@std@@@std@@QAEPADI@Z
	?deallocate@?$_Wrap_alloc@V?$allocator@D@std@@@std@@QAEXPADI@Z
	?max_size@?$_Wrap_alloc@V?$allocator@D@std@@@std@@QBEIXZ
	??0?$_String_val@U?$_Simple_types@D@std@@@std@@QAE@XZ
	?_Myptr@?$_String_val@U?$_Simple_types@D@std@@@std@@QAEPADXZ
	?_Myptr@?$_String_val@U?$_Simple_types@D@std@@@std@@QBEPBDXZ
	??0?$_String_alloc@$0A@U?$_String_base_types@DV?$allocator@D@std@@@std@@@std@@QAE@ABV?$allocator@D@1@@Z
	?_Getal@?$_String_alloc@$0A@U?$_String_base_types@DV?$allocator@D@std@@@std@@@std@@QBE?AU?$_Wrap_alloc@V?$allocator@D@std@@@2@XZ
	??0?$basic_string@DU?$char_traits@D@std@@V?$allocator@D@2@@std@@QAE@XZ
	??0?$basic_string@DU?$char_traits@D@std@@V?$allocator@D@2@@std@@QAE@PBD@Z
	??1?$basic_string@DU?$char_traits@D@std@@V?$allocator@D@2@@std@@QAE@XZ
	??4?$basic_string@DU?$char_traits@D@std@@V?$allocator@D@2@@std@@QAEAAV01@PBD@Z
	??Y?$basic_string@DU?$char_traits@D@std@@V?$allocator@D@2@@std@@QAEAAV01@ABV01@@Z
	??Y?$basic_string@DU?$char_traits@D@std@@V?$allocator@D@2@@std@@QAEAAV01@D@Z
	?append@?$basic_string@DU?$char_traits@D@std@@V?$allocator@D@2@@std@@QAEAAV12@ABV12@@Z
	?append@?$basic_string@DU?$char_traits@D@std@@V?$allocator@D@2@@std@@QAEAAV12@ABV12@II@Z
	?append@?$basic_string@DU?$char_traits@D@std@@V?$allocator@D@2@@std@@QAEAAV12@PBDI@Z
	?append@?$basic_string@DU?$char_traits@D@std@@V?$allocator@D@2@@std@@QAEAAV12@ID@Z
	?assign@?$basic_string@DU?$char_traits@D@std@@V?$allocator@D@2@@std@@QAEAAV12@ABV12@II@Z
	?assign@?$basic_string@DU?$char_traits@D@std@@V?$allocator@D@2@@std@@QAEAAV12@PBDI@Z
	?assign@?$basic_string@DU?$char_traits@D@std@@V?$allocator@D@2@@std@@QAEAAV12@PBD@Z
	?erase@?$basic_string@DU?$char_traits@D@std@@V?$allocator@D@2@@std@@QAEAAV12@I@Z
	?erase@?$basic_string@DU?$char_traits@D@std@@V?$allocator@D@2@@std@@QAEAAV12@II@Z
	?at@?$basic_string@DU?$char_traits@D@std@@V?$allocator@D@2@@std@@QAEAADI@Z
	??A?$basic_string@DU?$char_traits@D@std@@V?$allocator@D@2@@std@@QAEAADI@Z
	??A?$basic_string@DU?$char_traits@D@std@@V?$allocator@D@2@@std@@QBEABDI@Z
	?c_str@?$basic_string@DU?$char_traits@D@std@@V?$allocator@D@2@@std@@QBEPBDXZ
	?length@?$basic_string@DU?$char_traits@D@std@@V?$allocator@D@2@@std@@QBEIXZ
	?size@?$basic_string@DU?$char_traits@D@std@@V?$allocator@D@2@@std@@QBEIXZ
	?max_size@?$basic_string@DU?$char_traits@D@std@@V?$allocator@D@2@@std@@QBEIXZ
	?_Chassign@?$basic_string@DU?$char_traits@D@std@@V?$allocator@D@2@@std@@QAEXIID@Z
	?_Copy@?$basic_string@DU?$char_traits@D@std@@V?$allocator@D@2@@std@@QAEXII@Z
	?_Eos@?$basic_string@DU?$char_traits@D@std@@V?$allocator@D@2@@std@@QAEXI@Z
	?_Grow@?$basic_string@DU?$char_traits@D@std@@V?$allocator@D@2@@std@@QAE_NI_N@Z
	?_Inside@?$basic_string@DU?$char_traits@D@std@@V?$allocator@D@2@@std@@QAE_NPBD@Z
	?_Tidy@?$basic_string@DU?$char_traits@D@std@@V?$allocator@D@2@@std@@QAEX_NI@Z
	?_Xlen@?$basic_string@DU?$char_traits@D@std@@V?$allocator@D@2@@std@@QBEXXZ
	?_Xran@?$basic_string@DU?$char_traits@D@std@@V?$allocator@D@2@@std@@QBEXXZ
	?generic_category@std@@YAABVerror_category@1@XZ
	?system_category@std@@YAABVerror_category@1@XZ
	??0error_category@std@@QAE@XZ
	??1error_category@std@@UAE@XZ
	?default_error_condition@error_category@std@@UBE?AVerror_condition@2@H@Z
	?equivalent@error_category@std@@UBE_NHABVerror_condition@2@@Z
	?equivalent@error_category@std@@UBE_NABVerror_code@2@H@Z
	??8error_category@std@@QBE_NABV01@@Z
	?value@error_code@std@@QBEHXZ
	?category@error_code@std@@QBEABVerror_category@2@XZ
	??0error_condition@std@@QAE@HABVerror_category@1@@Z
	?value@error_condition@std@@QBEHXZ
	?category@error_condition@std@@QBEABVerror_category@2@XZ
	??8error_condition@std@@QBE_NABV01@@Z
	??0_Generic_error_category@std@@QAE@XZ
	?name@_Generic_error_category@std@@UBEPBDXZ
	?message@_Generic_error_category@std@@UBE?AV?$basic_string@DU?$char_traits@D@std@@V?$allocator@D@2@@2@H@Z
	??1_Generic_error_category@std@@UAE@XZ
	??0_Iostream_error_category@std@@QAE@XZ
	?name@_Iostream_error_category@std@@UBEPBDXZ
	?message@_Iostream_error_category@std@@UBE?AV?$basic_string@DU?$char_traits@D@std@@V?$allocator@D@2@@2@H@Z
	??1_Iostream_error_category@std@@UAE@XZ
	??0_System_error_category@std@@QAE@XZ
	?name@_System_error_category@std@@UBEPBDXZ
	?message@_System_error_category@std@@UBE?AV?$basic_string@DU?$char_traits@D@std@@V?$allocator@D@2@@2@H@Z
	?default_error_condition@_System_error_category@std@@UBE?AVerror_condition@2@H@Z
	??1_System_error_category@std@@UAE@XZ
	??0TiXmlCursor@@QAE@XZ
	?Clear@TiXmlCursor@@QAEXXZ
	??0TiXmlBase@@QAE@XZ
	??1TiXmlBase@@UAE@XZ
	?IsWhiteSpaceCondensed@TiXmlBase@@SA_NXZ
	?SkipWhiteSpace@TiXmlBase@@KAPBDPBDW4TiXmlEncoding@@@Z
	?IsWhiteSpace@TiXmlBase@@KA_ND@Z
	?IsWhiteSpace@TiXmlBase@@KA_NH@Z
	?StreamWhiteSpace@TiXmlBase@@KA_NPAV?$basic_istream@DU?$char_traits@D@std@@@std@@PAV?$basic_string@DU?$char_traits@D@std@@V?$allocator@D@2@@3@@Z
	?StreamTo@TiXmlBase@@KA_NPAV?$basic_istream@DU?$char_traits@D@std@@@std@@HPAV?$basic_string@DU?$char_traits@D@std@@V?$allocator@D@2@@3@@Z
	?ReadName@TiXmlBase@@KAPBDPBDPAV?$basic_string@DU?$char_traits@D@std@@V?$allocator@D@2@@std@@W4TiXmlEncoding@@@Z
	?ReadText@TiXmlBase@@KAPBDPBDPAV?$basic_string@DU?$char_traits@D@std@@V?$allocator@D@2@@std@@_N02W4TiXmlEncoding@@@Z
	?GetEntity@TiXmlBase@@KAPBDPBDPADPAHW4TiXmlEncoding@@@Z
	?GetChar@TiXmlBase@@KAPBDPBDPADPAHW4TiXmlEncoding@@@Z
	?StringEqual@TiXmlBase@@KA_NPBD0_NW4TiXmlEncoding@@@Z
	?IsAlpha@TiXmlBase@@KAHEW4TiXmlEncoding@@@Z
	?IsAlphaNum@TiXmlBase@@KAHEW4TiXmlEncoding@@@Z
	?ToLower@TiXmlBase@@KAHHW4TiXmlEncoding@@@Z
	?ConvertUTF32ToUTF8@TiXmlBase@@KAXKPADPAH@Z
	?SetValue@TiXmlNode@@QAEXPBD@Z
	?GetDocument@TiXmlNode@@QAEPAVTiXmlDocument@@XZ
	?ToDocument@TiXmlNode@@UBEPBVTiXmlDocument@@XZ
	?ToElement@TiXmlNode@@UBEPBVTiXmlElement@@XZ
	?ToComment@TiXmlNode@@UBEPBVTiXmlComment@@XZ
	?ToUnknown@TiXmlNode@@UBEPBVTiXmlUnknown@@XZ
	?ToText@TiXmlNode@@UBEPBVTiXmlText@@XZ
	?ToDeclaration@TiXmlNode@@UBEPBVTiXmlDeclaration@@XZ
	?ToDocument@TiXmlNode@@UAEPAVTiXmlDocument@@XZ
	?ToElement@TiXmlNode@@UAEPAVTiXmlElement@@XZ
	?ToComment@TiXmlNode@@UAEPAVTiXmlComment@@XZ
	?ToUnknown@TiXmlNode@@UAEPAVTiXmlUnknown@@XZ
	?ToText@TiXmlNode@@UAEPAVTiXmlText@@XZ
	?ToDeclaration@TiXmlNode@@UAEPAVTiXmlDeclaration@@XZ
	?Identify@TiXmlNode@@IAEPAV1@PBDW4TiXmlEncoding@@@Z
	??0TiXmlAttribute@@QAE@XZ
	?Value@TiXmlAttribute@@QBEPBDXZ
	?NameTStr@TiXmlAttribute@@QBEABV?$basic_string@DU?$char_traits@D@std@@V?$allocator@D@2@@std@@XZ
	?Parse@TiXmlAttribute@@UAEPBDPBDPAVTiXmlParsingData@@W4TiXmlEncoding@@@Z
	?Print@TiXmlAttribute@@UBEXPAU_iobuf@@H@Z
	?SetDocument@TiXmlAttribute@@QAEXPAVTiXmlDocument@@@Z
	??1TiXmlAttribute@@UAE@XZ
	?Parse@TiXmlElement@@UAEPBDPBDPAVTiXmlParsingData@@W4TiXmlEncoding@@@Z
	?StreamIn@TiXmlElement@@MAEXPAV?$basic_istream@DU?$char_traits@D@std@@@std@@PAV?$basic_string@DU?$char_traits@D@std@@V?$allocator@D@2@@3@@Z
	?ReadValue@TiXmlElement@@IAEPBDPBDPAVTiXmlParsingData@@W4TiXmlEncoding@@@Z
	??0TiXmlComment@@QAE@XZ
	??1TiXmlComment@@UAE@XZ
	?Parse@TiXmlComment@@UAEPBDPBDPAVTiXmlParsingData@@W4TiXmlEncoding@@@Z
	?ToComment@TiXmlComment@@UBEPBV1@XZ
	?ToComment@TiXmlComment@@UAEPAV1@XZ
	?StreamIn@TiXmlComment@@MAEXPAV?$basic_istream@DU?$char_traits@D@std@@@std@@PAV?$basic_string@DU?$char_traits@D@std@@V?$allocator@D@2@@3@@Z
	??0TiXmlText@@QAE@PBD@Z
	??1TiXmlText@@UAE@XZ
	?SetCDATA@TiXmlText@@QAEX_N@Z
	?Parse@TiXmlText@@UAEPBDPBDPAVTiXmlParsingData@@W4TiXmlEncoding@@@Z
	?ToText@TiXmlText@@UBEPBV1@XZ
	?ToText@TiXmlText@@UAEPAV1@XZ
	?Blank@TiXmlText@@IBE_NXZ
	?StreamIn@TiXmlText@@MAEXPAV?$basic_istream@DU?$char_traits@D@std@@@std@@PAV?$basic_string@DU?$char_traits@D@std@@V?$allocator@D@2@@3@@Z
	??0TiXmlDeclaration@@QAE@XZ
	??1TiXmlDeclaration@@UAE@XZ
	?Encoding@TiXmlDeclaration@@QBEPBDXZ
	?Print@TiXmlDeclaration@@UBEXPAU_iobuf@@H@Z
	?Parse@TiXmlDeclaration@@UAEPBDPBDPAVTiXmlParsingData@@W4TiXmlEncoding@@@Z
	?ToDeclaration@TiXmlDeclaration@@UBEPBV1@XZ
	?ToDeclaration@TiXmlDeclaration@@UAEPAV1@XZ
	?StreamIn@TiXmlDeclaration@@MAEXPAV?$basic_istream@DU?$char_traits@D@std@@@std@@PAV?$basic_string@DU?$char_traits@D@std@@V?$allocator@D@2@@3@@Z
	??0TiXmlUnknown@@QAE@XZ
	??1TiXmlUnknown@@UAE@XZ
	?Parse@TiXmlUnknown@@UAEPBDPBDPAVTiXmlParsingData@@W4TiXmlEncoding@@@Z
	?ToUnknown@TiXmlUnknown@@UBEPBV1@XZ
	?ToUnknown@TiXmlUnknown@@UAEPAV1@XZ
	?StreamIn@TiXmlUnknown@@MAEXPAV?$basic_istream@DU?$char_traits@D@std@@@std@@PAV?$basic_string@DU?$char_traits@D@std@@V?$allocator@D@2@@3@@Z
	?Parse@TiXmlDocument@@UAEPBDPBDPAVTiXmlParsingData@@W4TiXmlEncoding@@@Z
	?TabSize@TiXmlDocument@@QBEHXZ
	?ClearError@TiXmlDocument@@QAEXXZ
	?SetError@TiXmlDocument@@QAEXHPBDPAVTiXmlParsingData@@W4TiXmlEncoding@@@Z
	?StreamIn@TiXmlDocument@@MAEXPAV?$basic_istream@DU?$char_traits@D@std@@@std@@PAV?$basic_string@DU?$char_traits@D@std@@V?$allocator@D@2@@3@@Z
	?Stamp@TiXmlParsingData@@QAEXPBDW4TiXmlEncoding@@@Z
	?Cursor@TiXmlParsingData@@QBEABUTiXmlCursor@@XZ
	??0TiXmlParsingData@@AAE@PBDHHH@Z
	??$construct@PADAAPAD@?$_Wrap_alloc@V?$allocator@D@std@@@std@@QAEXPAPADAAPAD@Z
	??$destroy@PAD@?$_Wrap_alloc@V?$allocator@D@std@@@std@@QAEXPAPAD@Z
	??$addressof@D@std@@YAPADAAD@Z
	??$_Allocate@D@std@@YAPADIPAD@Z
	??$forward@AAPAD@std@@YAAAPADAAPAD@Z
	??$construct@PADAAPAD@?$allocator_traits@V?$allocator@D@std@@@std@@SAXAAV?$allocator@D@1@PAPADAAPAD@Z
	??$destroy@PAD@?$allocator_traits@V?$allocator@D@std@@@std@@SAXAAV?$allocator@D@1@PAPAD@Z
	??$construct@PADAAPAD@?$allocator@D@std@@QAEXPAPADAAPAD@Z
	??$destroy@PAD@?$allocator@D@std@@QAEXPAPAD@Z
	?_Generic_object@?$_Error_objects@H@std@@2V_Generic_error_category@2@A 	 DATA
	?_Iostream_object@?$_Error_objects@H@std@@2V_Iostream_error_category@2@A 	 DATA
	?_System_object@?$_Error_objects@H@std@@2V_System_error_category@2@A 	 DATA
	?id@?$num_put@DV?$back_insert_iterator@V?$basic_string@DU?$char_traits@D@std@@V?$allocator@D@2@@std@@@std@@@std@@2V0locale@2@A 	 DATA
	?id@?$num_put@_WV?$back_insert_iterator@V?$basic_string@_WU?$char_traits@_W@std@@V?$allocator@_W@2@@std@@@std@@@std@@2V0locale@2@A 	 DATA
	??_R0?AVerror_category@std@@@8 	 DATA
	??_R0?AV_Generic_error_category@std@@@8 	 DATA
	??_R0?AV_Iostream_error_category@std@@@8 	 DATA
	??_R0?AV_System_error_category@std@@@8 	 DATA
	??_R0?AVTiXmlNode@@@8 	 DATA
	??_R0?AVTiXmlBase@@@8 	 DATA
	??_R0?AVTiXmlComment@@@8 	 DATA
	??_R0?AVTiXmlUnknown@@@8 	 DATA
	??_R0?AVTiXmlAttribute@@@8 	 DATA
	??_R0?AVTiXmlText@@@8 	 DATA
	??_R0?AVTiXmlDeclaration@@@8 	 DATA
	hypot
	?_Fill_n@std@@YAPAEPAEIE@Z
	??0PAVProtocol@@QAE@XZ
	??1PAVProtocol@@UAE@XZ
	?Crc32@PAVProtocol@@QAEIIPBE@Z
	?WriteMessage@PAVProtocol@@UAE_NAAV?$vector@EV?$allocator@E@std@@@std@@PBXI@Z
	?WriteMessageRaw@PAVProtocol@@UAE_NAAV?$vector@EV?$allocator@E@std@@@std@@PBXI@Z
	?ReadMessage@PAVProtocol@@UAE_NPAEIAAV?$vector@EV?$allocator@E@std@@@std@@@Z
	?ReadMessageRaw@PAVProtocol@@UAE_NPAEIAAV?$vector@EV?$allocator@E@std@@@std@@@Z
	??0?$allocator@E@std@@QAE@XZ
	?deallocate@?$allocator@E@std@@QAEXPAEI@Z
	?allocate@?$allocator@E@std@@QAEPAEI@Z
	?max_size@?$allocator@E@std@@QBEIXZ
	?max_size@?$allocator_traits@V?$allocator@E@std@@@std@@SAIABV?$allocator@E@2@@Z
	??0?$_Wrap_alloc@V?$allocator@E@std@@@std@@QAE@XZ
	?allocate@?$_Wrap_alloc@V?$allocator@E@std@@@std@@QAEPAEI@Z
	?deallocate@?$_Wrap_alloc@V?$allocator@E@std@@@std@@QAEXPAEI@Z
	?max_size@?$_Wrap_alloc@V?$allocator@E@std@@@std@@QBEIXZ
	?_Getal@?$_Vector_alloc@$0A@U?$_Vec_base_types@EV?$allocator@E@std@@@std@@@std@@QBE?AU?$_Wrap_alloc@V?$allocator@E@std@@@2@XZ
	?capacity@?$vector@EV?$allocator@E@std@@@std@@QBEIXZ
	?_Unused_capacity@?$vector@EV?$allocator@E@std@@@std@@QBEIXZ
	?resize@?$vector@EV?$allocator@E@std@@@std@@QAEXI@Z
	?size@?$vector@EV?$allocator@E@std@@@std@@QBEIXZ
	?max_size@?$vector@EV?$allocator@E@std@@@std@@QBEIXZ
	??A?$vector@EV?$allocator@E@std@@@std@@QAEAAEI@Z
	?_Pop_back_n@?$vector@EV?$allocator@E@std@@@std@@QAEXI@Z
	?_Destroy@?$vector@EV?$allocator@E@std@@@std@@IAEXPAE0@Z
	?_Grow_to@?$vector@EV?$allocator@E@std@@@std@@IBEII@Z
	?_Reallocate@?$vector@EV?$allocator@E@std@@@std@@IAEXI@Z
	?_Reserve@?$vector@EV?$allocator@E@std@@@std@@IAEXI@Z
	?_Tidy@?$vector@EV?$allocator@E@std@@@std@@IAEXXZ
	?_Xlen@?$vector@EV?$allocator@E@std@@@std@@IBEXXZ
	??$_Uninitialized_default_fill_n@PAEIU?$_Wrap_alloc@V?$allocator@E@std@@@std@@@std@@YAXPAEIAAU?$_Wrap_alloc@V?$allocator@E@std@@@0@@Z
	??$_Destroy_range@U?$_Wrap_alloc@V?$allocator@E@std@@@std@@@std@@YAXPAE0AAU?$_Wrap_alloc@V?$allocator@E@std@@@0@@Z
	??$_Umove@PAE@?$vector@EV?$allocator@E@std@@@std@@IAEPAEPAE00@Z
	??$_Allocate@E@std@@YAPAEIPAE@Z
	??$_Val_type@PAE@std@@YAPAEPAE@Z
	??$_Ptr_cat@EE@std@@YA?AU_Scalar_ptr_iterator_tag@0@PAE0@Z
	??$_Uninit_def_fill_n@EIE@std@@YAXPAEIAAU?$_Wrap_alloc@V?$allocator@E@std@@@0@0U_Scalar_ptr_iterator_tag@0@@Z
	??$_Destroy_range@U?$_Wrap_alloc@V?$allocator@E@std@@@std@@@std@@YAXPAE0AAU?$_Wrap_alloc@V?$allocator@E@std@@@0@U_Scalar_ptr_iterator_tag@0@@Z
	??$_Uninitialized_move@PAEPAEU?$_Wrap_alloc@V?$allocator@E@std@@@std@@@std@@YAPAEPAE00AAU?$_Wrap_alloc@V?$allocator@E@std@@@0@@Z
	??$_Unchecked@PAE@std@@YAPAEPAE@Z
	??$_Uninit_move@PAEPAEU?$_Wrap_alloc@V?$allocator@E@std@@@std@@@std@@YAPAEPAE00AAU?$_Wrap_alloc@V?$allocator@E@std@@@0@@Z
	??$_Rechecked@PAEPAE@std@@YAAAPAEAAPAEPAE@Z
	??$_Uninit_move@EEE@std@@YAPAEPAE00AAU?$_Wrap_alloc@V?$allocator@E@std@@@0@0U_Scalar_ptr_iterator_tag@0@@Z
	??_R0?AVPAVProtocol@@@8 	 DATA
	?fgIsA@EdbScanClientCommon@@0PAVTClass@@A 	 DATA
	?fgIsA@EdbTrackAssembler@@0PAVTClass@@A 	 DATA
	?fgIsA@EdbScanTracking@@0PAVTClass@@A 	 DATA
	?fgIsA@EdbScanClient@@0PAVTClass@@A 	 DATA
	?fgIsA@EdbScanClientPav@@0PAVTClass@@A 	 DATA
	?fgIsA@EdbScanClientSysal@@0PAVTClass@@A 	 DATA
	?fgIsA@EdbScanProc@@0PAVTClass@@A 	 DATA
	?G__ScanDictLN_TClass@@3UG__linked_taginfo@@A 	 DATA
	?G__ScanDictLN_TBuffer@@3UG__linked_taginfo@@A 	 DATA
	?G__ScanDictLN_TMemberInspector@@3UG__linked_taginfo@@A 	 DATA
	?G__ScanDictLN_TObject@@3UG__linked_taginfo@@A 	 DATA
	?G__ScanDictLN_TNamed@@3UG__linked_taginfo@@A 	 DATA
	?G__ScanDictLN_TString@@3UG__linked_taginfo@@A 	 DATA
	?G__ScanDictLN_iteratorlErandom_access_iterator_tagcOcharcOlongcOcharmUcOcharaNgR@@3UG__linked_taginfo@@A 	 DATA
	?G__ScanDictLN_vectorlEunsignedsPcharcOallocatorlEunsignedsPchargRsPgR@@3UG__linked_taginfo@@A 	 DATA
	?G__ScanDictLN_vectorlEunsignedsPintcOallocatorlEunsignedsPintgRsPgR@@3UG__linked_taginfo@@A 	 DATA
	?G__ScanDictLN_string@@3UG__linked_taginfo@@A 	 DATA
	?G__ScanDictLN_vectorlEROOTcLcLTSchemaHelpercOallocatorlEROOTcLcLTSchemaHelpergRsPgR@@3UG__linked_taginfo@@A 	 DATA
	?G__ScanDictLN_reverse_iteratorlEvectorlEROOTcLcLTSchemaHelpercOallocatorlEROOTcLcLTSchemaHelpergRsPgRcLcLiteratorgR@@3UG__linked_taginfo@@A 	 DATA
	?G__ScanDictLN_iteratorlErandom_access_iterator_tagcOROOTcLcLTSchemaHelpercOlongcOROOTcLcLTSchemaHelpermUcOROOTcLcLTSchemaHelperaNgR@@3UG__linked_taginfo@@A 	 DATA
	?G__ScanDictLN_reverse_iteratorlEvectorlEROOTcLcLTSchemaHelpercOallocatorlEROOTcLcLTSchemaHelpergRsPgRcLcLconst_iteratorgR@@3UG__linked_taginfo@@A 	 DATA
	?G__ScanDictLN_TObjArray@@3UG__linked_taginfo@@A 	 DATA
	?G__ScanDictLN_vectorlETVirtualArraymUcOallocatorlETVirtualArraymUgRsPgR@@3UG__linked_taginfo@@A 	 DATA
	?G__ScanDictLN_reverse_iteratorlEvectorlETVirtualArraymUcOallocatorlETVirtualArraymUgRsPgRcLcLiteratorgR@@3UG__linked_taginfo@@A 	 DATA
	?G__ScanDictLN_iteratorlErandom_access_iterator_tagcOTVirtualArraymUcOlongcOTVirtualArraymUmUcOTVirtualArraymUaNgR@@3UG__linked_taginfo@@A 	 DATA
	?G__ScanDictLN_reverse_iteratorlEvectorlETVirtualArraymUcOallocatorlETVirtualArraymUgRsPgRcLcLconst_iteratorgR@@3UG__linked_taginfo@@A 	 DATA
	?G__ScanDictLN_TSocket@@3UG__linked_taginfo@@A 	 DATA
	?G__ScanDictLN_vectorlETStringcOallocatorlETStringgRsPgR@@3UG__linked_taginfo@@A 	 DATA
	?G__ScanDictLN_reverse_iteratorlEvectorlETStringcOallocatorlETStringgRsPgRcLcLiteratorgR@@3UG__linked_taginfo@@A 	 DATA
	?G__ScanDictLN_iteratorlErandom_access_iterator_tagcOTStringcOlongcOTStringmUcOTStringaNgR@@3UG__linked_taginfo@@A 	 DATA
	?G__ScanDictLN_reverse_iteratorlEvectorlETStringcOallocatorlETStringgRsPgRcLcLconst_iteratorgR@@3UG__linked_taginfo@@A 	 DATA
	?G__ScanDictLN_iteratorlEbidirectional_iterator_tagcOTObjectmUcOlongcOconstsPTObjectmUmUcOconstsPTObjectmUaNgR@@3UG__linked_taginfo@@A 	 DATA
	?G__ScanDictLN_TTree@@3UG__linked_taginfo@@A 	 DATA
	?G__ScanDictLN_maplEstringcOTObjArraymUcOlesslEstringgRcOallocatorlEpairlEconstsPstringcOTObjArraymUgRsPgRsPgR@@3UG__linked_taginfo@@A 	 DATA
	?G__ScanDictLN_TCut@@3UG__linked_taginfo@@A 	 DATA
	?G__ScanDictLN_TArrayF@@3UG__linked_taginfo@@A 	 DATA
	?G__ScanDictLN_EdbAffine2D@@3UG__linked_taginfo@@A 	 DATA
	?G__ScanDictLN_TH1F@@3UG__linked_taginfo@@A 	 DATA
	?G__ScanDictLN_EdbMarksSet@@3UG__linked_taginfo@@A 	 DATA
	?G__ScanDictLN_EdbRun@@3UG__linked_taginfo@@A 	 DATA
	?G__ScanDictLN_TMatrixTBaselEfloatgR@@3UG__linked_taginfo@@A 	 DATA
	?G__ScanDictLN_TMatrixTBaselEdoublegR@@3UG__linked_taginfo@@A 	 DATA
	?G__ScanDictLN_TVectorTlEfloatgR@@3UG__linked_taginfo@@A 	 DATA
	?G__ScanDictLN_TVectorTlEdoublegR@@3UG__linked_taginfo@@A 	 DATA
	?G__ScanDictLN_TElementActionTlEfloatgR@@3UG__linked_taginfo@@A 	 DATA
	?G__ScanDictLN_TElementPosActionTlEfloatgR@@3UG__linked_taginfo@@A 	 DATA
	?G__ScanDictLN_TElementActionTlEdoublegR@@3UG__linked_taginfo@@A 	 DATA
	?G__ScanDictLN_TElementPosActionTlEdoublegR@@3UG__linked_taginfo@@A 	 DATA
	?G__ScanDictLN_TMatrixTlEdoublegR@@3UG__linked_taginfo@@A 	 DATA
	?G__ScanDictLN_TMatrixTRow_constlEdoublegR@@3UG__linked_taginfo@@A 	 DATA
	?G__ScanDictLN_TMatrixTRowlEdoublegR@@3UG__linked_taginfo@@A 	 DATA
	?G__ScanDictLN_TMatrixTDiag_constlEdoublegR@@3UG__linked_taginfo@@A 	 DATA
	?G__ScanDictLN_TMatrixTColumn_constlEdoublegR@@3UG__linked_taginfo@@A 	 DATA
	?G__ScanDictLN_TMatrixTFlat_constlEdoublegR@@3UG__linked_taginfo@@A 	 DATA
	?G__ScanDictLN_TMatrixTSub_constlEdoublegR@@3UG__linked_taginfo@@A 	 DATA
	?G__ScanDictLN_TMatrixTSparseRow_constlEdoublegR@@3UG__linked_taginfo@@A 	 DATA
	?G__ScanDictLN_TMatrixTSparseDiag_constlEdoublegR@@3UG__linked_taginfo@@A 	 DATA
	?G__ScanDictLN_TMatrixTColumnlEdoublegR@@3UG__linked_taginfo@@A 	 DATA
	?G__ScanDictLN_TMatrixTDiaglEdoublegR@@3UG__linked_taginfo@@A 	 DATA
	?G__ScanDictLN_TMatrixTFlatlEdoublegR@@3UG__linked_taginfo@@A 	 DATA
	?G__ScanDictLN_TMatrixTSublEdoublegR@@3UG__linked_taginfo@@A 	 DATA
	?G__ScanDictLN_TMatrixTSparseRowlEdoublegR@@3UG__linked_taginfo@@A 	 DATA
	?G__ScanDictLN_TMatrixTSparseDiaglEdoublegR@@3UG__linked_taginfo@@A 	 DATA
	?G__ScanDictLN_EdbID@@3UG__linked_taginfo@@A 	 DATA
	?G__ScanDictLN_EdbSegP@@3UG__linked_taginfo@@A 	 DATA
	?G__ScanDictLN_EdbTrackP@@3UG__linked_taginfo@@A 	 DATA
	?G__ScanDictLN_EdbPattern@@3UG__linked_taginfo@@A 	 DATA
	?G__ScanDictLN_EdbScanClientBase@@3UG__linked_taginfo@@A 	 DATA
	?G__ScanDictLN_EdbScanClientBasecLcLScanType@@3UG__linked_taginfo@@A 	 DATA
	?G__ScanDictLN_EdbScanClientCommon@@3UG__linked_taginfo@@A 	 DATA
	?G__ScanDictLN_EdbScanClient@@3UG__linked_taginfo@@A 	 DATA
	?G__ScanDictLN_EdbScanClientcLcLScanClientType@@3UG__linked_taginfo@@A 	 DATA
	?G__ScanDictLN_auto_ptrlEEdbScanClientCommongR@@3UG__linked_taginfo@@A 	 DATA
	?G__ScanDictLN_EdbCell2@@3UG__linked_taginfo@@A 	 DATA
	?G__ScanDictLN_EdbLayer@@3UG__linked_taginfo@@A 	 DATA
	?G__ScanDictLN_EdbScanCond@@3UG__linked_taginfo@@A 	 DATA
	?G__ScanDictLN_EdbRunAccess@@3UG__linked_taginfo@@A 	 DATA
	?G__ScanDictLN_EdbMask@@3UG__linked_taginfo@@A 	 DATA
	?G__ScanDictLN_EdbScanSet@@3UG__linked_taginfo@@A 	 DATA
	?G__ScanDictLN_EdbPVRec@@3UG__linked_taginfo@@A 	 DATA
	?G__ScanDictLN_TMatrixTlEfloatgR@@3UG__linked_taginfo@@A 	 DATA
	?G__ScanDictLN_TMatrixTRow_constlEfloatgR@@3UG__linked_taginfo@@A 	 DATA
	?G__ScanDictLN_TMatrixTRowlEfloatgR@@3UG__linked_taginfo@@A 	 DATA
	?G__ScanDictLN_TMatrixTDiag_constlEfloatgR@@3UG__linked_taginfo@@A 	 DATA
	?G__ScanDictLN_TMatrixTColumn_constlEfloatgR@@3UG__linked_taginfo@@A 	 DATA
	?G__ScanDictLN_TMatrixTFlat_constlEfloatgR@@3UG__linked_taginfo@@A 	 DATA
	?G__ScanDictLN_TMatrixTSub_constlEfloatgR@@3UG__linked_taginfo@@A 	 DATA
	?G__ScanDictLN_TMatrixTSparseRow_constlEfloatgR@@3UG__linked_taginfo@@A 	 DATA
	?G__ScanDictLN_TMatrixTSparseDiag_constlEfloatgR@@3UG__linked_taginfo@@A 	 DATA
	?G__ScanDictLN_TMatrixTColumnlEfloatgR@@3UG__linked_taginfo@@A 	 DATA
	?G__ScanDictLN_TMatrixTDiaglEfloatgR@@3UG__linked_taginfo@@A 	 DATA
	?G__ScanDictLN_TMatrixTFlatlEfloatgR@@3UG__linked_taginfo@@A 	 DATA
	?G__ScanDictLN_TMatrixTSublEfloatgR@@3UG__linked_taginfo@@A 	 DATA
	?G__ScanDictLN_TMatrixTSparseRowlEfloatgR@@3UG__linked_taginfo@@A 	 DATA
	?G__ScanDictLN_TMatrixTSparseDiaglEfloatgR@@3UG__linked_taginfo@@A 	 DATA
	?G__ScanDictLN_EdbDataPiece@@3UG__linked_taginfo@@A 	 DATA
	?G__ScanDictLN_EdbPlateP@@3UG__linked_taginfo@@A 	 DATA
	?G__ScanDictLN_TEnv@@3UG__linked_taginfo@@A 	 DATA
	?G__ScanDictLN_EdbScanProc@@3UG__linked_taginfo@@A 	 DATA
	?G__ScanDictLN_EdbProcPars@@3UG__linked_taginfo@@A 	 DATA
	?G__ScanDictLN_EdbTrackFitter@@3UG__linked_taginfo@@A 	 DATA
	?G__ScanDictLN_EdbTrackAssembler@@3UG__linked_taginfo@@A 	 DATA
	?G__ScanDictLN_EdbScanTracking@@3UG__linked_taginfo@@A 	 DATA
	?G__ScanDictLN_MessageManager@@3UG__linked_taginfo@@A 	 DATA
	?G__ScanDictLN_MessageReader@@3UG__linked_taginfo@@A 	 DATA
	?G__ScanDictLN_maplEstringcOstringcOlesslEstringgRcOallocatorlEpairlEconstsPstringcOstringgRsPgRsPgR@@3UG__linked_taginfo@@A 	 DATA
	?G__ScanDictLN_EdbScanClientPav@@3UG__linked_taginfo@@A 	 DATA
	?G__ScanDictLN_EdbScanClientSysal@@3UG__linked_taginfo@@A 	 DATA
	?fgIsA@EdbScanClientBase@@0PAVTClass@@A 	 DATA
	?fgIsA@EdbProcPars@@0PAVTClass@@A 	 DATA
	hypot
	??0funcptr_and_voidptr@G__func2void@@QAE@PAX@Z
	??BG__func2void@@QBEPAXXZ
	??0G__FastAllocString@@QAE@I@Z
	?data@G__FastAllocString@@QBEPBDXZ
	G__cpp_dllrevScanDict
	G__set_cpp_environmentScanDict
	G__cpp_setup_tagtableScanDict
	G__cpp_setup_inheritanceScanDict
	G__cpp_setup_typetableScanDict
	G__cpp_setup_memvarScanDict
	G__cpp_setup_globalScanDict
	G__cpp_setup_memfuncScanDict
	G__cpp_setup_funcScanDict
	G__cpp_setupScanDict
	??2@YAPAXIPAX@Z
	??3@YAXPAX0@Z
	??_U@YAPAXIPAX@Z
	??_V@YAXPAX0@Z
	?length@?$char_traits@D@std@@SAIPBD@Z
	?copy@?$char_traits@D@std@@SAPADPADPBDI@Z
	?move@?$char_traits@D@std@@SAPADPADPBDI@Z
	?assign@?$char_traits@D@std@@SAXAADABD@Z
	?_Adopt@_Iterator_base0@std@@QAEXPBX@Z
	?_Fill_n@std@@YAPAEPAEIE@Z
	??0?$allocator@D@std@@QAE@XZ
	?deallocate@?$allocator@D@std@@QAEXPADI@Z
	?allocate@?$allocator@D@std@@QAEPADI@Z
	?max_size@?$allocator@D@std@@QBEIXZ
	?max_size@?$allocator_traits@V?$allocator@D@std@@@std@@SAIABV?$allocator@D@2@@Z
	??0?$_Wrap_alloc@V?$allocator@D@std@@@std@@QAE@XZ
	?allocate@?$_Wrap_alloc@V?$allocator@D@std@@@std@@QAEPADI@Z
	?deallocate@?$_Wrap_alloc@V?$allocator@D@std@@@std@@QAEXPADI@Z
	?max_size@?$_Wrap_alloc@V?$allocator@D@std@@@std@@QBEIXZ
	??0?$_String_val@U?$_Simple_types@D@std@@@std@@QAE@XZ
	?_Myptr@?$_String_val@U?$_Simple_types@D@std@@@std@@QAEPADXZ
	?_Myptr@?$_String_val@U?$_Simple_types@D@std@@@std@@QBEPBDXZ
	??0?$_String_alloc@$0A@U?$_String_base_types@DV?$allocator@D@std@@@std@@@std@@QAE@ABV?$allocator@D@1@@Z
	?_Getal@?$_String_alloc@$0A@U?$_String_base_types@DV?$allocator@D@std@@@std@@@std@@QBE?AU?$_Wrap_alloc@V?$allocator@D@std@@@2@XZ
	??0?$basic_string@DU?$char_traits@D@std@@V?$allocator@D@2@@std@@QAE@XZ
	??0?$basic_string@DU?$char_traits@D@std@@V?$allocator@D@2@@std@@QAE@PBD@Z
	??1?$basic_string@DU?$char_traits@D@std@@V?$allocator@D@2@@std@@QAE@XZ
	??4?$basic_string@DU?$char_traits@D@std@@V?$allocator@D@2@@std@@QAEAAV01@PBD@Z
	?assign@?$basic_string@DU?$char_traits@D@std@@V?$allocator@D@2@@std@@QAEAAV12@ABV12@II@Z
	?assign@?$basic_string@DU?$char_traits@D@std@@V?$allocator@D@2@@std@@QAEAAV12@PBDI@Z
	?assign@?$basic_string@DU?$char_traits@D@std@@V?$allocator@D@2@@std@@QAEAAV12@PBD@Z
	?erase@?$basic_string@DU?$char_traits@D@std@@V?$allocator@D@2@@std@@QAEAAV12@I@Z
	?erase@?$basic_string@DU?$char_traits@D@std@@V?$allocator@D@2@@std@@QAEAAV12@II@Z
	?c_str@?$basic_string@DU?$char_traits@D@std@@V?$allocator@D@2@@std@@QBEPBDXZ
	?size@?$basic_string@DU?$char_traits@D@std@@V?$allocator@D@2@@std@@QBEIXZ
	?max_size@?$basic_string@DU?$char_traits@D@std@@V?$allocator@D@2@@std@@QBEIXZ
	?_Copy@?$basic_string@DU?$char_traits@D@std@@V?$allocator@D@2@@std@@QAEXII@Z
	?_Eos@?$basic_string@DU?$char_traits@D@std@@V?$allocator@D@2@@std@@QAEXI@Z
	?_Grow@?$basic_string@DU?$char_traits@D@std@@V?$allocator@D@2@@std@@QAE_NI_N@Z
	?_Inside@?$basic_string@DU?$char_traits@D@std@@V?$allocator@D@2@@std@@QAE_NPBD@Z
	?_Tidy@?$basic_string@DU?$char_traits@D@std@@V?$allocator@D@2@@std@@QAEX_NI@Z
	?_Xlen@?$basic_string@DU?$char_traits@D@std@@V?$allocator@D@2@@std@@QBEXXZ
	?_Xran@?$basic_string@DU?$char_traits@D@std@@V?$allocator@D@2@@std@@QBEXXZ
	?generic_category@std@@YAABVerror_category@1@XZ
	?system_category@std@@YAABVerror_category@1@XZ
	??0error_category@std@@QAE@XZ
	??1error_category@std@@UAE@XZ
	?default_error_condition@error_category@std@@UBE?AVerror_condition@2@H@Z
	?equivalent@error_category@std@@UBE_NHABVerror_condition@2@@Z
	?equivalent@error_category@std@@UBE_NABVerror_code@2@H@Z
	??8error_category@std@@QBE_NABV01@@Z
	?value@error_code@std@@QBEHXZ
	?category@error_code@std@@QBEABVerror_category@2@XZ
	??0error_condition@std@@QAE@HABVerror_category@1@@Z
	?value@error_condition@std@@QBEHXZ
	?category@error_condition@std@@QBEABVerror_category@2@XZ
	??8error_condition@std@@QBE_NABV01@@Z
	??0_Generic_error_category@std@@QAE@XZ
	?name@_Generic_error_category@std@@UBEPBDXZ
	?message@_Generic_error_category@std@@UBE?AV?$basic_string@DU?$char_traits@D@std@@V?$allocator@D@2@@2@H@Z
	??1_Generic_error_category@std@@UAE@XZ
	??0_Iostream_error_category@std@@QAE@XZ
	?name@_Iostream_error_category@std@@UBEPBDXZ
	?message@_Iostream_error_category@std@@UBE?AV?$basic_string@DU?$char_traits@D@std@@V?$allocator@D@2@@2@H@Z
	??1_Iostream_error_category@std@@UAE@XZ
	??0_System_error_category@std@@QAE@XZ
	?name@_System_error_category@std@@UBEPBDXZ
	?message@_System_error_category@std@@UBE?AV?$basic_string@DU?$char_traits@D@std@@V?$allocator@D@2@@2@H@Z
	?default_error_condition@_System_error_category@std@@UBE?AVerror_condition@2@H@Z
	??1_System_error_category@std@@UAE@XZ
	?Clear@TObject@@UAEXPBD@Z
	?GetOption@TObject@@UBEPBDXZ
	?IsSortable@TObject@@UBE_NXZ
	??2TObject@@SAPAXI@Z
	??_UTObject@@SAPAXI@Z
	??2TObject@@SAPAXIPAX@Z
	??_UTObject@@SAPAXIPAX@Z
	?IsReading@TBuffer@@QBE_NXZ
	??5@YAAAVTBuffer@@AAV0@AA_N@Z
	??5@YAAAVTBuffer@@AAV0@AAE@Z
	??5@YAAAVTBuffer@@AAV0@AAH@Z
	??5@YAAAVTBuffer@@AAV0@AAI@Z
	??5@YAAAVTBuffer@@AAV0@AAM@Z
	??6@YAAAVTBuffer@@AAV0@_N@Z
	??6@YAAAVTBuffer@@AAV0@E@Z
	??6@YAAAVTBuffer@@AAV0@H@Z
	??6@YAAAVTBuffer@@AAV0@I@Z
	??6@YAAAVTBuffer@@AAV0@M@Z
	??6@YAAAVTBuffer@@AAV0@PBVTObject@@@Z
	?IsLong@TString@@ABE_NXZ
	?GetLongPointer@TString@@ABEPBDXZ
	?GetShortPointer@TString@@ABEPBDXZ
	?GetPointer@TString@@ABEPBDXZ
	??BTString@@QBEPBDXZ
	?Data@TString@@QBEPBDXZ
	??1TNamed@@UAE@XZ
	?GetName@TNamed@@UBEPBDXZ
	?GetTitle@TNamed@@UBEPBDXZ
	?Hash@TNamed@@UBEKXZ
	?IsSortable@TNamed@@UBE_NXZ
	?IsA@TNamed@@UBEPAVTClass@@XZ
	??0TDatime@@QAE@I_N@Z
	??1TDatime@@UAE@XZ
	?IsA@TDatime@@UBEPAVTClass@@XZ
	??0TLockGuard@@QAE@PAVTVirtualMutex@@@Z
	??1TLockGuard@@UAE@XZ
	?IsA@TLockGuard@@UBEPAVTClass@@XZ
	??0_Ignore@std@@QAE@XZ
	??1EdbAffine2D@@UAE@XZ
	?IsA@EdbAffine2D@@UBEPAVTClass@@XZ
	??0EdbAffine2D@@QAE@ABV0@@Z
	??1EdbPoint@@UAE@XZ
	?Transform@EdbPoint@@UAEXPBVEdbAffine2D@@@Z
	?Transform@EdbPoint@@UAEXPBVEdbAffine3D@@@Z
	?Test@EdbPoint@@UBEXXZ
	?IsA@EdbPoint@@UBEPAVTClass@@XZ
	??0EdbPoint@@QAE@XZ
	??1EdbAngle2D@@UAE@XZ
	?Test@EdbAngle2D@@UBEXXZ
	?IsA@EdbAngle2D@@UBEPAVTClass@@XZ
	??0EdbAngle2D@@QAE@XZ
	??1EdbPoint2D@@UAE@XZ
	?Z@EdbPoint2D@@UBEMXZ
	?SetZ@EdbPoint2D@@UAEXM@Z
	?Test@EdbPoint2D@@UBEXXZ
	?TestPoint2D@EdbPoint2D@@UBEXXZ
	?IsA@EdbPoint2D@@UBEPAVTClass@@XZ
	??0EdbPoint2D@@QAE@XZ
	??1EdbTrack2D@@UAE@XZ
	?Test@EdbTrack2D@@UBEXXZ
	?IsA@EdbTrack2D@@UBEPAVTClass@@XZ
	??0EdbTrack2D@@QAE@XZ
	??0EdbID@@QAE@HHHH@Z
	??1EdbID@@UAE@XZ
	?Set@EdbID@@QAEXHHHH@Z
	?Get@EdbID@@QAEXQAH@Z
	?IsA@EdbID@@UBEPAVTClass@@XZ
	??0EdbID@@QAE@ABV0@@Z
	??0EdbSegP@@QAE@ABV0@@Z
	??1EdbSegP@@UAE@XZ
	?SetZ@EdbSegP@@UAEXM@Z
	?Z@EdbSegP@@UBEMXZ
	?X@EdbSegP@@UBEMXZ
	?Y@EdbSegP@@UBEMXZ
	?TX@EdbSegP@@UBEMXZ
	?TY@EdbSegP@@UBEMXZ
	?SetX@EdbSegP@@UAEXM@Z
	?SetY@EdbSegP@@UAEXM@Z
	?SetTX@EdbSegP@@UAEXM@Z
	?SetTY@EdbSegP@@UAEXM@Z
	?IsSortable@EdbSegP@@UBE_NXZ
	?IsA@EdbSegP@@UBEPAVTClass@@XZ
	??1EdbScanClientBase@@UAE@XZ
	?Class@EdbScanClientBase@@SAPAVTClass@@XZ
	?Class_Name@EdbScanClientBase@@SAPBDXZ
	?Class_Version@EdbScanClientBase@@SAFXZ
	?Dictionary@EdbScanClientBase@@SAXXZ
	?IsA@EdbScanClientBase@@UBEPAVTClass@@XZ
	?ShowMembers@EdbScanClientBase@@UAEXAAVTMemberInspector@@@Z
	?Streamer@EdbScanClientBase@@UAEXAAVTBuffer@@@Z
	?StreamerNVirtual@EdbScanClientBase@@QAEXAAVTBuffer@@@Z
	?DeclFileName@EdbScanClientBase@@SAPBDXZ
	?ImplFileLine@EdbScanClientBase@@SAHXZ
	?ImplFileName@EdbScanClientBase@@SAPBDXZ
	?DeclFileLine@EdbScanClientBase@@SAHXZ
	??0EdbScanClientBase@@QAE@ABV0@@Z
	??4EdbScanClientBase@@QAEAAV0@ABV0@@Z
	?ShortBrick@EdbScanClientCommon@@UAEFH@Z
	?GetCmd@EdbScanClientCommon@@QAEPBDXZ
	?SetCmd@EdbScanClientCommon@@QAEXPBD@Z
	?GetMess@EdbScanClientCommon@@QAEPBDXZ
	?SetMess@EdbScanClientCommon@@QAEXPBD@Z
	?GetMess1@EdbScanClientCommon@@QAEPBDXZ
	?SetMess1@EdbScanClientCommon@@QAEXPBD@Z
	?GetNXView@EdbScanClientCommon@@QAEMXZ
	?SetNXview@EdbScanClientCommon@@QAEXM@Z
	?GetNYView@EdbScanClientCommon@@QAEMXZ
	?SetNYview@EdbScanClientCommon@@QAEXM@Z
	?GetXstep@EdbScanClientCommon@@QAEMXZ
	?SetXstep@EdbScanClientCommon@@QAEXM@Z
	?GetYstep@EdbScanClientCommon@@QAEMXZ
	?SetYstep@EdbScanClientCommon@@QAEXM@Z
	?GetMaxAttempts@EdbScanClientCommon@@QAEHXZ
	?SetMaxAttempts@EdbScanClientCommon@@QAEXH@Z
	?GetMaxFails@EdbScanClientCommon@@QAEHXZ
	?SetMaxFails@EdbScanClientCommon@@QAEXH@Z
	?GetPort@EdbScanClientCommon@@QAEHXZ
	?SetPort@EdbScanClientCommon@@QAEXH@Z
	?GetServer@EdbScanClientCommon@@QAEPBDXZ
	?SetServer@EdbScanClientCommon@@QAEXPBD@Z
	?GetRawDirServer@EdbScanClientCommon@@QAEPBDXZ
	?SetRawDirServer@EdbScanClientCommon@@QAEXPBD@Z
	?GetRawDirClient@EdbScanClientCommon@@QAEPBDXZ
	?SetRawDirClient@EdbScanClientCommon@@QAEXPBD@Z
	?GetProcTgtServer@EdbScanClientCommon@@QAEPBDXZ
	?SetProcTgtServer@EdbScanClientCommon@@QAEXPBD@Z
	?GetProcPthServer@EdbScanClientCommon@@QAEPBDXZ
	?SetProcPthServer@EdbScanClientCommon@@QAEXPBD@Z
	?GetServerCreatedRunName@EdbScanClientCommon@@QAEPBDXZ
	?Class@EdbScanClientCommon@@SAPAVTClass@@XZ
	?Class_Name@EdbScanClientCommon@@SAPBDXZ
	?Class_Version@EdbScanClientCommon@@SAFXZ
	?Dictionary@EdbScanClientCommon@@SAXXZ
	?IsA@EdbScanClientCommon@@UBEPAVTClass@@XZ
	?ShowMembers@EdbScanClientCommon@@UAEXAAVTMemberInspector@@@Z
	?Streamer@EdbScanClientCommon@@UAEXAAVTBuffer@@@Z
	?StreamerNVirtual@EdbScanClientCommon@@QAEXAAVTBuffer@@@Z
	?DeclFileName@EdbScanClientCommon@@SAPBDXZ
	?ImplFileLine@EdbScanClientCommon@@SAHXZ
	?ImplFileName@EdbScanClientCommon@@SAPBDXZ
	?DeclFileLine@EdbScanClientCommon@@SAHXZ
	??0EdbScanClientCommon@@QAE@ABV0@@Z
	??4EdbScanClientCommon@@QAEAAV0@ABV0@@Z
	??1EdbScanClient@@UAE@XZ
	?GetCmd@EdbScanClient@@QAEPBDXZ
	?SetCmd@EdbScanClient@@QAEXPBD@Z
	?GetMess@EdbScanClient@@QAEPBDXZ
	?SetMess@EdbScanClient@@QAEXPBD@Z
	?GetMess1@EdbScanClient@@QAEPBDXZ
	?SetMess1@EdbScanClient@@QAEXPBD@Z
	?GetNXView@EdbScanClient@@QAEMXZ
	?SetNXview@EdbScanClient@@QAEXM@Z
	?GetNYView@EdbScanClient@@QAEMXZ
	?SetNYview@EdbScanClient@@QAEXM@Z
	?GetXstep@EdbScanClient@@QAEMXZ
	?SetXstep@EdbScanClient@@QAEXM@Z
	?GetYstep@EdbScanClient@@QAEMXZ
	?SetYstep@EdbScanClient@@QAEXM@Z
	?GetMaxAttempts@EdbScanClient@@QAEHXZ
	?SetMaxAttempts@EdbScanClient@@QAEXH@Z
	?GetMaxFails@EdbScanClient@@QAEHXZ
	?SetMaxFails@EdbScanClient@@QAEXH@Z
	?GetPort@EdbScanClient@@QAEHXZ
	?SetPort@EdbScanClient@@QAEXH@Z
	?GetServer@EdbScanClient@@QAEPBDXZ
	?SetServer@EdbScanClient@@QAEXPBD@Z
	?GetRawDirServer@EdbScanClient@@QAEPBDXZ
	?SetRawDirServer@EdbScanClient@@QAEXPBD@Z
	?GetRawDirClient@EdbScanClient@@QAEPBDXZ
	?SetRawDirClient@EdbScanClient@@QAEXPBD@Z
	?GetProcTgtServer@EdbScanClient@@QAEPBDXZ
	?SetProcTgtServer@EdbScanClient@@QAEXPBD@Z
	?GetProcPthServer@EdbScanClient@@QAEPBDXZ
	?SetProcPthServer@EdbScanClient@@QAEXPBD@Z
	?GetServerCreatedRunName@EdbScanClient@@QAEPBDXZ
	?ServerCreatesRootFile@EdbScanClient@@QAE_NXZ
	?ServerCreatesTarget@EdbScanClient@@QAE_NXZ
	??0?$auto_ptr@VEdbScanClientCommon@@@std@@QAE@AAV01@@Z
	??4?$auto_ptr@VEdbScanClientCommon@@@std@@QAEAAV01@AAV01@@Z
	??1?$auto_ptr@VEdbScanClientCommon@@@std@@QAE@XZ
	??C?$auto_ptr@VEdbScanClientCommon@@@std@@QBEPAVEdbScanClientCommon@@XZ
	?get@?$auto_ptr@VEdbScanClientCommon@@@std@@QBEPAVEdbScanClientCommon@@XZ
	?release@?$auto_ptr@VEdbScanClientCommon@@@std@@QAEPAVEdbScanClientCommon@@XZ
	?reset@?$auto_ptr@VEdbScanClientCommon@@@std@@QAEXPAVEdbScanClientCommon@@@Z
	?Class@EdbScanClient@@SAPAVTClass@@XZ
	?Class_Name@EdbScanClient@@SAPBDXZ
	?Class_Version@EdbScanClient@@SAFXZ
	?Dictionary@EdbScanClient@@SAXXZ
	?IsA@EdbScanClient@@UBEPAVTClass@@XZ
	?ShowMembers@EdbScanClient@@UAEXAAVTMemberInspector@@@Z
	?Streamer@EdbScanClient@@UAEXAAVTBuffer@@@Z
	?StreamerNVirtual@EdbScanClient@@QAEXAAVTBuffer@@@Z
	?DeclFileName@EdbScanClient@@SAPBDXZ
	?ImplFileLine@EdbScanClient@@SAHXZ
	?ImplFileName@EdbScanClient@@SAPBDXZ
	?DeclFileLine@EdbScanClient@@SAHXZ
	??0EdbScanClient@@QAE@AAV0@@Z
	??4EdbScanClient@@QAEAAV0@AAV0@@Z
	??_FEdbScanClient@@QAEXXZ
	?SetRadX0@EdbScanCond@@QAEXM@Z
	??1EdbScanProc@@UAE@XZ
	?CheckProcDir@EdbScanProc@@QAE_NVEdbID@@_N@Z
	?MakeFileName@EdbScanProc@@QAEXAAVTString@@VEdbID@@PBD_N@Z
	?MakeFileNameSrv@EdbScanProc@@QAEXAAVTString@@VEdbID@@PBD_N@Z
	?MakeAffName@EdbScanProc@@QAEXAAVTString@@VEdbID@@1PBD@Z
	?MakeInPar@EdbScanProc@@QAE_NVEdbID@@PBD@Z
	?CopyPar@EdbScanProc@@QAEHVEdbID@@0_N@Z
	?CopyPar@EdbScanProc@@QAEHQAH0_N@Z
	?CopyPred@EdbScanProc@@QAEHQAH0_N@Z
	?ReadPatTXT@EdbScanProc@@QAEHAAVEdbPattern@@VEdbID@@PBDH@Z
	?ReadPred@EdbScanProc@@QAEHAAVEdbPattern@@QAHH@Z
	?WritePred@EdbScanProc@@QAEHAAVEdbPattern@@QAHH@Z
	?ReadFound@EdbScanProc@@QAEHAAVEdbPattern@@QAHH@Z
	?WriteFound@EdbScanProc@@QAEHAAVEdbPattern@@QAHH@Z
	?ReadFound@EdbScanProc@@QAEHAAVEdbPattern@@VEdbID@@H@Z
	?ReadPred@EdbScanProc@@QAEHAAVEdbPattern@@VEdbID@@H@Z
	?WritePred@EdbScanProc@@QAEHAAVEdbPattern@@VEdbID@@H@Z
	?WriteFound@EdbScanProc@@QAEHAAVEdbPattern@@VEdbID@@H@Z
	?WritePatTXT@EdbScanProc@@QAEHAAVEdbPattern@@VEdbID@@PBDH@Z
	?InitPiece@EdbScanProc@@QAE_NAAVEdbDataPiece@@VEdbID@@@Z
	?ReadPatCP@EdbScanProc@@QAEHAAVEdbPattern@@VEdbID@@VTCut@@@Z
	?LinkRunAll@EdbScanProc@@QAEHVEdbID@@HHH@Z
	?Align@EdbScanProc@@QAEHVEdbID@@0PBD@Z
	?AlignAll@EdbScanProc@@QAEHVEdbID@@0HHPBD@Z
	?ProjectFound@EdbScanProc@@QAE_NVEdbID@@0@Z
	?InitRunAccess@EdbScanProc@@QAE_NAAVEdbRunAccess@@VEdbID@@_N@Z
	?CheckRunQualityRaw@EdbScanProc@@QAEXVEdbID@@@Z
	?TestAl@EdbScanProc@@QAEHVEdbID@@0@Z
	?Class@EdbScanProc@@SAPAVTClass@@XZ
	?Class_Name@EdbScanProc@@SAPBDXZ
	?Class_Version@EdbScanProc@@SAFXZ
	?Dictionary@EdbScanProc@@SAXXZ
	?IsA@EdbScanProc@@UBEPAVTClass@@XZ
	?ShowMembers@EdbScanProc@@UAEXAAVTMemberInspector@@@Z
	?Streamer@EdbScanProc@@UAEXAAVTBuffer@@@Z
	?StreamerNVirtual@EdbScanProc@@QAEXAAVTBuffer@@@Z
	?DeclFileName@EdbScanProc@@SAPBDXZ
	?ImplFileLine@EdbScanProc@@SAHXZ
	?ImplFileName@EdbScanProc@@SAPBDXZ
	?DeclFileLine@EdbScanProc@@SAHXZ
	??0EdbScanProc@@QAE@ABV0@@Z
	??4EdbScanProc@@QAEAAV0@ABV0@@Z
	??0EdbProcPars@@QAE@XZ
	??1EdbProcPars@@UAE@XZ
	?Class@EdbProcPars@@SAPAVTClass@@XZ
	?Class_Name@EdbProcPars@@SAPBDXZ
	?Class_Version@EdbProcPars@@SAFXZ
	?Dictionary@EdbProcPars@@SAXXZ
	?IsA@EdbProcPars@@UBEPAVTClass@@XZ
	?ShowMembers@EdbProcPars@@UAEXAAVTMemberInspector@@@Z
	?Streamer@EdbProcPars@@UAEXAAVTBuffer@@@Z
	?StreamerNVirtual@EdbProcPars@@QAEXAAVTBuffer@@@Z
	?DeclFileName@EdbProcPars@@SAPBDXZ
	?ImplFileLine@EdbProcPars@@SAHXZ
	?ImplFileName@EdbProcPars@@SAPBDXZ
	?DeclFileLine@EdbProcPars@@SAHXZ
	??0EdbProcPars@@QAE@ABV0@@Z
	??4EdbProcPars@@QAEAAV0@ABV0@@Z
	?SetMomentum@EdbTrackAssembler@@QAEXM@Z
	?SetRadLength@EdbTrackAssembler@@QAEXM@Z
	?Tracks@EdbTrackAssembler@@QAEAAVTObjArray@@XZ
	?Class@EdbTrackAssembler@@SAPAVTClass@@XZ
	?Class_Name@EdbTrackAssembler@@SAPBDXZ
	?Class_Version@EdbTrackAssembler@@SAFXZ
	?Dictionary@EdbTrackAssembler@@SAXXZ
	?IsA@EdbTrackAssembler@@UBEPAVTClass@@XZ
	?ShowMembers@EdbTrackAssembler@@UAEXAAVTMemberInspector@@@Z
	?Streamer@EdbTrackAssembler@@UAEXAAVTBuffer@@@Z
	?StreamerNVirtual@EdbTrackAssembler@@QAEXAAVTBuffer@@@Z
	?DeclFileName@EdbTrackAssembler@@SAPBDXZ
	?ImplFileLine@EdbTrackAssembler@@SAHXZ
	?ImplFileName@EdbTrackAssembler@@SAPBDXZ
	?DeclFileLine@EdbTrackAssembler@@SAHXZ
	??1EdbScanTracking@@UAE@XZ
	?Class@EdbScanTracking@@SAPAVTClass@@XZ
	?Class_Name@EdbScanTracking@@SAPBDXZ
	?Class_Version@EdbScanTracking@@SAFXZ
	?Dictionary@EdbScanTracking@@SAXXZ
	?IsA@EdbScanTracking@@UBEPAVTClass@@XZ
	?ShowMembers@EdbScanTracking@@UAEXAAVTMemberInspector@@@Z
	?Streamer@EdbScanTracking@@UAEXAAVTBuffer@@@Z
	?StreamerNVirtual@EdbScanTracking@@QAEXAAVTBuffer@@@Z
	?DeclFileName@EdbScanTracking@@SAPBDXZ
	?ImplFileLine@EdbScanTracking@@SAHXZ
	?ImplFileName@EdbScanTracking@@SAPBDXZ
	?DeclFileLine@EdbScanTracking@@SAHXZ
	??0EdbScanTracking@@QAE@ABV0@@Z
	??4EdbScanTracking@@QAEAAV0@ABV0@@Z
	??1PAVProtocol@@UAE@XZ
	?ToElement@TiXmlNode@@UBEPBVTiXmlElement@@XZ
	?ToComment@TiXmlNode@@UBEPBVTiXmlComment@@XZ
	?ToUnknown@TiXmlNode@@UBEPBVTiXmlUnknown@@XZ
	?ToText@TiXmlNode@@UBEPBVTiXmlText@@XZ
	?ToDeclaration@TiXmlNode@@UBEPBVTiXmlDeclaration@@XZ
	?ToElement@TiXmlNode@@UAEPAVTiXmlElement@@XZ
	?ToComment@TiXmlNode@@UAEPAVTiXmlComment@@XZ
	?ToUnknown@TiXmlNode@@UAEPAVTiXmlUnknown@@XZ
	?ToText@TiXmlNode@@UAEPAVTiXmlText@@XZ
	?ToDeclaration@TiXmlNode@@UAEPAVTiXmlDeclaration@@XZ
	??1TiXmlDocument@@UAE@XZ
	?ToDocument@TiXmlDocument@@UBEPBV1@XZ
	?ToDocument@TiXmlDocument@@UAEPAV1@XZ
	??0MessageManager@@QAE@XZ
	??0?$allocator@E@std@@QAE@XZ
	?deallocate@?$allocator@E@std@@QAEXPAEI@Z
	?allocate@?$allocator@E@std@@QAEPAEI@Z
	?construct@?$allocator@E@std@@QAEXPAEABE@Z
	?max_size@?$allocator@E@std@@QBEIXZ
	?max_size@?$allocator_traits@V?$allocator@E@std@@@std@@SAIABV?$allocator@E@2@@Z
	??0?$_Wrap_alloc@V?$allocator@E@std@@@std@@QAE@XZ
	?allocate@?$_Wrap_alloc@V?$allocator@E@std@@@std@@QAEPAEI@Z
	?deallocate@?$_Wrap_alloc@V?$allocator@E@std@@@std@@QAEXPAEI@Z
	?max_size@?$_Wrap_alloc@V?$allocator@E@std@@@std@@QBEIXZ
	??0?$_Vector_val@U?$_Simple_types@E@std@@@std@@QAE@XZ
	??0?$_Vector_alloc@$0A@U?$_Vec_base_types@EV?$allocator@E@std@@@std@@@std@@QAE@ABV?$allocator@E@1@@Z
	?_Getal@?$_Vector_alloc@$0A@U?$_Vec_base_types@EV?$allocator@E@std@@@std@@@std@@QBE?AU?$_Wrap_alloc@V?$allocator@E@std@@@2@XZ
	??0?$vector@EV?$allocator@E@std@@@std@@QAE@XZ
	??1?$vector@EV?$allocator@E@std@@@std@@QAE@XZ
	?reserve@?$vector@EV?$allocator@E@std@@@std@@QAEXI@Z
	?capacity@?$vector@EV?$allocator@E@std@@@std@@QBEIXZ
	?_Unused_capacity@?$vector@EV?$allocator@E@std@@@std@@QBEIXZ
	?begin@?$vector@EV?$allocator@E@std@@@std@@QAE?AV?$_Vector_iterator@V?$_Vector_val@U?$_Simple_types@E@std@@@std@@@2@XZ
	?end@?$vector@EV?$allocator@E@std@@@std@@QAE?AV?$_Vector_iterator@V?$_Vector_val@U?$_Simple_types@E@std@@@std@@@2@XZ
	?resize@?$vector@EV?$allocator@E@std@@@std@@QAEXI@Z
	?size@?$vector@EV?$allocator@E@std@@@std@@QBEIXZ
	?max_size@?$vector@EV?$allocator@E@std@@@std@@QBEIXZ
	?empty@?$vector@EV?$allocator@E@std@@@std@@QBE_NXZ
	?push_back@?$vector@EV?$allocator@E@std@@@std@@QAEXABE@Z
	?_Pop_back_n@?$vector@EV?$allocator@E@std@@@std@@QAEXI@Z
	?clear@?$vector@EV?$allocator@E@std@@@std@@QAEXXZ
	?_Destroy@?$vector@EV?$allocator@E@std@@@std@@IAEXPAE0@Z
	?_Grow_to@?$vector@EV?$allocator@E@std@@@std@@IBEII@Z
	?_Inside@?$vector@EV?$allocator@E@std@@@std@@IBE_NPBE@Z
	?_Reallocate@?$vector@EV?$allocator@E@std@@@std@@IAEXI@Z
	?_Reserve@?$vector@EV?$allocator@E@std@@@std@@IAEXI@Z
	?_Tidy@?$vector@EV?$allocator@E@std@@@std@@IAEXXZ
	?_Xlen@?$vector@EV?$allocator@E@std@@@std@@IBEXXZ
	?_Orphan_range@?$vector@EV?$allocator@E@std@@@std@@IBEXPAE0@Z
	??1MessageManager@@UAE@XZ
	??0MessageReader@@QAE@XZ
	??0?$allocator@U?$pair@$$CBV?$basic_string@DU?$char_traits@D@std@@V?$allocator@D@2@@std@@V12@@std@@@std@@QAE@XZ
	??0?$allocator@U?$_Tree_node@U?$pair@$$CBV?$basic_string@DU?$char_traits@D@std@@V?$allocator@D@2@@std@@V12@@std@@PAX@std@@@std@@QAE@XZ
	?deallocate@?$allocator@U?$_Tree_node@U?$pair@$$CBV?$basic_string@DU?$char_traits@D@std@@V?$allocator@D@2@@std@@V12@@std@@PAX@std@@@std@@QAEXPAU?$_Tree_node@U?$pair@$$CBV?$basic_string@DU?$char_traits@D@std@@V?$allocator@D@2@@std@@V12@@std@@PAX@2@I@Z
	?allocate@?$allocator@U?$_Tree_node@U?$pair@$$CBV?$basic_string@DU?$char_traits@D@std@@V?$allocator@D@2@@std@@V12@@std@@PAX@std@@@std@@QAEPAU?$_Tree_node@U?$pair@$$CBV?$basic_string@DU?$char_traits@D@std@@V?$allocator@D@2@@std@@V12@@std@@PAX@2@I@Z
	??0?$_Wrap_alloc@V?$allocator@U?$_Tree_node@U?$pair@$$CBV?$basic_string@DU?$char_traits@D@std@@V?$allocator@D@2@@std@@V12@@std@@PAX@std@@@std@@@std@@QAE@XZ
	?allocate@?$_Wrap_alloc@V?$allocator@U?$_Tree_node@U?$pair@$$CBV?$basic_string@DU?$char_traits@D@std@@V?$allocator@D@2@@std@@V12@@std@@PAX@std@@@std@@@std@@QAEPAU?$_Tree_node@U?$pair@$$CBV?$basic_string@DU?$char_traits@D@std@@V?$allocator@D@2@@std@@V12@@std@@PAX@2@I@Z
	?deallocate@?$_Wrap_alloc@V?$allocator@U?$_Tree_node@U?$pair@$$CBV?$basic_string@DU?$char_traits@D@std@@V?$allocator@D@2@@std@@V12@@std@@PAX@std@@@std@@@std@@QAEXPAU?$_Tree_node@U?$pair@$$CBV?$basic_string@DU?$char_traits@D@std@@V?$allocator@D@2@@std@@V12@@std@@PAX@2@I@Z
	??0?$_Tree_val@U?$_Tree_simple_types@U?$pair@$$CBV?$basic_string@DU?$char_traits@D@std@@V?$allocator@D@2@@std@@V12@@std@@@std@@@std@@QAE@XZ
	?_Color@?$_Tree_val@U?$_Tree_simple_types@U?$pair@$$CBV?$basic_string@DU?$char_traits@D@std@@V?$allocator@D@2@@std@@V12@@std@@@std@@@std@@SAAADPAU?$_Tree_node@U?$pair@$$CBV?$basic_string@DU?$char_traits@D@std@@V?$allocator@D@2@@std@@V12@@std@@PAX@2@@Z
	?_Isnil@?$_Tree_val@U?$_Tree_simple_types@U?$pair@$$CBV?$basic_string@DU?$char_traits@D@std@@V?$allocator@D@2@@std@@V12@@std@@@std@@@std@@SAAADPAU?$_Tree_node@U?$pair@$$CBV?$basic_string@DU?$char_traits@D@std@@V?$allocator@D@2@@std@@V12@@std@@PAX@2@@Z
	?_Left@?$_Tree_val@U?$_Tree_simple_types@U?$pair@$$CBV?$basic_string@DU?$char_traits@D@std@@V?$allocator@D@2@@std@@V12@@std@@@std@@@std@@SAAAPAU?$_Tree_node@U?$pair@$$CBV?$basic_string@DU?$char_traits@D@std@@V?$allocator@D@2@@std@@V12@@std@@PAX@2@PAU32@@Z
	?_Parent@?$_Tree_val@U?$_Tree_simple_types@U?$pair@$$CBV?$basic_string@DU?$char_traits@D@std@@V?$allocator@D@2@@std@@V12@@std@@@std@@@std@@SAAAPAU?$_Tree_node@U?$pair@$$CBV?$basic_string@DU?$char_traits@D@std@@V?$allocator@D@2@@std@@V12@@std@@PAX@2@PAU32@@Z
	?_Right@?$_Tree_val@U?$_Tree_simple_types@U?$pair@$$CBV?$basic_string@DU?$char_traits@D@std@@V?$allocator@D@2@@std@@V12@@std@@@std@@@std@@SAAAPAU?$_Tree_node@U?$pair@$$CBV?$basic_string@DU?$char_traits@D@std@@V?$allocator@D@2@@std@@V12@@std@@PAX@2@PAU32@@Z
	?_Myval@?$_Tree_val@U?$_Tree_simple_types@U?$pair@$$CBV?$basic_string@DU?$char_traits@D@std@@V?$allocator@D@2@@std@@V12@@std@@@std@@@std@@SAAAU?$pair@$$CBV?$basic_string@DU?$char_traits@D@std@@V?$allocator@D@2@@std@@V12@@2@PAU?$_Tree_node@U?$pair@$$CBV?$basic_string@DU?$char_traits@D@std@@V?$allocator@D@2@@std@@V12@@std@@PAX@2@@Z
	?_Max@?$_Tree_val@U?$_Tree_simple_types@U?$pair@$$CBV?$basic_string@DU?$char_traits@D@std@@V?$allocator@D@2@@std@@V12@@std@@@std@@@std@@SAPAU?$_Tree_node@U?$pair@$$CBV?$basic_string@DU?$char_traits@D@std@@V?$allocator@D@2@@std@@V12@@std@@PAX@2@PAU32@@Z
	?_Min@?$_Tree_val@U?$_Tree_simple_types@U?$pair@$$CBV?$basic_string@DU?$char_traits@D@std@@V?$allocator@D@2@@std@@V12@@std@@@std@@@std@@SAPAU?$_Tree_node@U?$pair@$$CBV?$basic_string@DU?$char_traits@D@std@@V?$allocator@D@2@@std@@V12@@std@@PAX@2@PAU32@@Z
	??0?$_Tree_alloc@$0A@U?$_Tree_base_types@U?$pair@$$CBV?$basic_string@DU?$char_traits@D@std@@V?$allocator@D@2@@std@@V12@@std@@V?$allocator@U?$pair@$$CBV?$basic_string@DU?$char_traits@D@std@@V?$allocator@D@2@@std@@V12@@std@@@2@@std@@@std@@QAE@ABV?$allocator@U?$pair@$$CBV?$basic_string@DU?$char_traits@D@std@@V?$allocator@D@2@@std@@V12@@std@@@1@@Z
	??1?$_Tree_alloc@$0A@U?$_Tree_base_types@U?$pair@$$CBV?$basic_string@DU?$char_traits@D@std@@V?$allocator@D@2@@std@@V12@@std@@V?$allocator@U?$pair@$$CBV?$basic_string@DU?$char_traits@D@std@@V?$allocator@D@2@@std@@V12@@std@@@2@@std@@@std@@QAE@XZ
	?_Buyheadnode@?$_Tree_alloc@$0A@U?$_Tree_base_types@U?$pair@$$CBV?$basic_string@DU?$char_traits@D@std@@V?$allocator@D@2@@std@@V12@@std@@V?$allocator@U?$pair@$$CBV?$basic_string@DU?$char_traits@D@std@@V?$allocator@D@2@@std@@V12@@std@@@2@@std@@@std@@QAEPAU?$_Tree_node@U?$pair@$$CBV?$basic_string@DU?$char_traits@D@std@@V?$allocator@D@2@@std@@V12@@std@@PAX@2@XZ
	?_Freeheadnode@?$_Tree_alloc@$0A@U?$_Tree_base_types@U?$pair@$$CBV?$basic_string@DU?$char_traits@D@std@@V?$allocator@D@2@@std@@V12@@std@@V?$allocator@U?$pair@$$CBV?$basic_string@DU?$char_traits@D@std@@V?$allocator@D@2@@std@@V12@@std@@@2@@std@@@std@@QAEXPAU?$_Tree_node@U?$pair@$$CBV?$basic_string@DU?$char_traits@D@std@@V?$allocator@D@2@@std@@V12@@std@@PAX@2@@Z
	?_Getal@?$_Tree_alloc@$0A@U?$_Tree_base_types@U?$pair@$$CBV?$basic_string@DU?$char_traits@D@std@@V?$allocator@D@2@@std@@V12@@std@@V?$allocator@U?$pair@$$CBV?$basic_string@DU?$char_traits@D@std@@V?$allocator@D@2@@std@@V12@@std@@@2@@std@@@std@@QBE?AU?$_Wrap_alloc@V?$allocator@U?$_Tree_node@U?$pair@$$CBV?$basic_string@DU?$char_traits@D@std@@V?$allocator@D@2@@std@@V12@@std@@PAX@std@@@std@@@2@XZ
	??0?$_Tree_buy@U?$pair@$$CBV?$basic_string@DU?$char_traits@D@std@@V?$allocator@D@2@@std@@V12@@std@@V?$allocator@U?$pair@$$CBV?$basic_string@DU?$char_traits@D@std@@V?$allocator@D@2@@std@@V12@@std@@@2@@std@@QAE@ABV?$allocator@U?$pair@$$CBV?$basic_string@DU?$char_traits@D@std@@V?$allocator@D@2@@std@@V12@@std@@@1@@Z
	??1?$_Tree_buy@U?$pair@$$CBV?$basic_string@DU?$char_traits@D@std@@V?$allocator@D@2@@std@@V12@@std@@V?$allocator@U?$pair@$$CBV?$basic_string@DU?$char_traits@D@std@@V?$allocator@D@2@@std@@V12@@std@@@2@@std@@QAE@XZ
	??0?$_Tree_comp@$0A@V?$_Tmap_traits@V?$basic_string@DU?$char_traits@D@std@@V?$allocator@D@2@@std@@V12@U?$less@V?$basic_string@DU?$char_traits@D@std@@V?$allocator@D@2@@std@@@2@V?$allocator@U?$pair@$$CBV?$basic_string@DU?$char_traits@D@std@@V?$allocator@D@2@@std@@V12@@std@@@2@$0A@@std@@@std@@QAE@ABU?$less@V?$basic_string@DU?$char_traits@D@std@@V?$allocator@D@2@@std@@@1@ABV?$allocator@U?$pair@$$CBV?$basic_string@DU?$char_traits@D@std@@V?$allocator@D@2@@std@@V12@@std@@@1@@Z
	??1?$_Tree_comp@$0A@V?$_Tmap_traits@V?$basic_string@DU?$char_traits@D@std@@V?$allocator@D@2@@std@@V12@U?$less@V?$basic_string@DU?$char_traits@D@std@@V?$allocator@D@2@@std@@@2@V?$allocator@U?$pair@$$CBV?$basic_string@DU?$char_traits@D@std@@V?$allocator@D@2@@std@@V12@@std@@@2@$0A@@std@@@std@@QAE@XZ
	??0?$_Tree@V?$_Tmap_traits@V?$basic_string@DU?$char_traits@D@std@@V?$allocator@D@2@@std@@V12@U?$less@V?$basic_string@DU?$char_traits@D@std@@V?$allocator@D@2@@std@@@2@V?$allocator@U?$pair@$$CBV?$basic_string@DU?$char_traits@D@std@@V?$allocator@D@2@@std@@V12@@std@@@2@$0A@@std@@@std@@QAE@ABU?$less@V?$basic_string@DU?$char_traits@D@std@@V?$allocator@D@2@@std@@@1@ABV?$allocator@U?$pair@$$CBV?$basic_string@DU?$char_traits@D@std@@V?$allocator@D@2@@std@@V12@@std@@@1@@Z
	??1?$_Tree@V?$_Tmap_traits@V?$basic_string@DU?$char_traits@D@std@@V?$allocator@D@2@@std@@V12@U?$less@V?$basic_string@DU?$char_traits@D@std@@V?$allocator@D@2@@std@@@2@V?$allocator@U?$pair@$$CBV?$basic_string@DU?$char_traits@D@std@@V?$allocator@D@2@@std@@V12@@std@@@2@$0A@@std@@@std@@QAE@XZ
	?begin@?$_Tree@V?$_Tmap_traits@V?$basic_string@DU?$char_traits@D@std@@V?$allocator@D@2@@std@@V12@U?$less@V?$basic_string@DU?$char_traits@D@std@@V?$allocator@D@2@@std@@@2@V?$allocator@U?$pair@$$CBV?$basic_string@DU?$char_traits@D@std@@V?$allocator@D@2@@std@@V12@@std@@@2@$0A@@std@@@std@@QAE?AV?$_Tree_iterator@V?$_Tree_val@U?$_Tree_simple_types@U?$pair@$$CBV?$basic_string@DU?$char_traits@D@std@@V?$allocator@D@2@@std@@V12@@std@@@std@@@std@@@2@XZ
	?end@?$_Tree@V?$_Tmap_traits@V?$basic_string@DU?$char_traits@D@std@@V?$allocator@D@2@@std@@V12@U?$less@V?$basic_string@DU?$char_traits@D@std@@V?$allocator@D@2@@std@@@2@V?$allocator@U?$pair@$$CBV?$basic_string@DU?$char_traits@D@std@@V?$allocator@D@2@@std@@V12@@std@@@2@$0A@@std@@@std@@QAE?AV?$_Tree_iterator@V?$_Tree_val@U?$_Tree_simple_types@U?$pair@$$CBV?$basic_string@DU?$char_traits@D@std@@V?$allocator@D@2@@std@@V12@@std@@@std@@@std@@@2@XZ
	?erase@?$_Tree@V?$_Tmap_traits@V?$basic_string@DU?$char_traits@D@std@@V?$allocator@D@2@@std@@V12@U?$less@V?$basic_string@DU?$char_traits@D@std@@V?$allocator@D@2@@std@@@2@V?$allocator@U?$pair@$$CBV?$basic_string@DU?$char_traits@D@std@@V?$allocator@D@2@@std@@V12@@std@@@2@$0A@@std@@@std@@QAE?AV?$_Tree_iterator@V?$_Tree_val@U?$_Tree_simple_types@U?$pair@$$CBV?$basic_string@DU?$char_traits@D@std@@V?$allocator@D@2@@std@@V12@@std@@@std@@@std@@@2@V?$_Tree_const_iterator@V?$_Tree_val@U?$_Tree_simple_types@U?$pair@$$CBV?$basic_string@DU?$char_traits@D@std@@V?$allocator@D@2@@std@@V12@@std@@@std@@@std@@@2@@Z
	?erase@?$_Tree@V?$_Tmap_traits@V?$basic_string@DU?$char_traits@D@std@@V?$allocator@D@2@@std@@V12@U?$less@V?$basic_string@DU?$char_traits@D@std@@V?$allocator@D@2@@std@@@2@V?$allocator@U?$pair@$$CBV?$basic_string@DU?$char_traits@D@std@@V?$allocator@D@2@@std@@V12@@std@@@2@$0A@@std@@@std@@QAE?AV?$_Tree_iterator@V?$_Tree_val@U?$_Tree_simple_types@U?$pair@$$CBV?$basic_string@DU?$char_traits@D@std@@V?$allocator@D@2@@std@@V12@@std@@@std@@@std@@@2@V?$_Tree_const_iterator@V?$_Tree_val@U?$_Tree_simple_types@U?$pair@$$CBV?$basic_string@DU?$char_traits@D@std@@V?$allocator@D@2@@std@@V12@@std@@@std@@@std@@@2@0@Z
	?clear@?$_Tree@V?$_Tmap_traits@V?$basic_string@DU?$char_traits@D@std@@V?$allocator@D@2@@std@@V12@U?$less@V?$basic_string@DU?$char_traits@D@std@@V?$allocator@D@2@@std@@@2@V?$allocator@U?$pair@$$CBV?$basic_string@DU?$char_traits@D@std@@V?$allocator@D@2@@std@@V12@@std@@@2@$0A@@std@@@std@@QAEXXZ
	?_Erase@?$_Tree@V?$_Tmap_traits@V?$basic_string@DU?$char_traits@D@std@@V?$allocator@D@2@@std@@V12@U?$less@V?$basic_string@DU?$char_traits@D@std@@V?$allocator@D@2@@std@@@2@V?$allocator@U?$pair@$$CBV?$basic_string@DU?$char_traits@D@std@@V?$allocator@D@2@@std@@V12@@std@@@2@$0A@@std@@@std@@IAEXPAU?$_Tree_node@U?$pair@$$CBV?$basic_string@DU?$char_traits@D@std@@V?$allocator@D@2@@std@@V12@@std@@PAX@2@@Z
	?_Lmost@?$_Tree@V?$_Tmap_traits@V?$basic_string@DU?$char_traits@D@std@@V?$allocator@D@2@@std@@V12@U?$less@V?$basic_string@DU?$char_traits@D@std@@V?$allocator@D@2@@std@@@2@V?$allocator@U?$pair@$$CBV?$basic_string@DU?$char_traits@D@std@@V?$allocator@D@2@@std@@V12@@std@@@2@$0A@@std@@@std@@IBEAAPAU?$_Tree_node@U?$pair@$$CBV?$basic_string@DU?$char_traits@D@std@@V?$allocator@D@2@@std@@V12@@std@@PAX@2@XZ
	?_Lrotate@?$_Tree@V?$_Tmap_traits@V?$basic_string@DU?$char_traits@D@std@@V?$allocator@D@2@@std@@V12@U?$less@V?$basic_string@DU?$char_traits@D@std@@V?$allocator@D@2@@std@@@2@V?$allocator@U?$pair@$$CBV?$basic_string@DU?$char_traits@D@std@@V?$allocator@D@2@@std@@V12@@std@@@2@$0A@@std@@@std@@IAEXPAU?$_Tree_node@U?$pair@$$CBV?$basic_string@DU?$char_traits@D@std@@V?$allocator@D@2@@std@@V12@@std@@PAX@2@@Z
	?_Rmost@?$_Tree@V?$_Tmap_traits@V?$basic_string@DU?$char_traits@D@std@@V?$allocator@D@2@@std@@V12@U?$less@V?$basic_string@DU?$char_traits@D@std@@V?$allocator@D@2@@std@@@2@V?$allocator@U?$pair@$$CBV?$basic_string@DU?$char_traits@D@std@@V?$allocator@D@2@@std@@V12@@std@@@2@$0A@@std@@@std@@IBEAAPAU?$_Tree_node@U?$pair@$$CBV?$basic_string@DU?$char_traits@D@std@@V?$allocator@D@2@@std@@V12@@std@@PAX@2@XZ
	?_Root@?$_Tree@V?$_Tmap_traits@V?$basic_string@DU?$char_traits@D@std@@V?$allocator@D@2@@std@@V12@U?$less@V?$basic_string@DU?$char_traits@D@std@@V?$allocator@D@2@@std@@@2@V?$allocator@U?$pair@$$CBV?$basic_string@DU?$char_traits@D@std@@V?$allocator@D@2@@std@@V12@@std@@@2@$0A@@std@@@std@@IBEAAPAU?$_Tree_node@U?$pair@$$CBV?$basic_string@DU?$char_traits@D@std@@V?$allocator@D@2@@std@@V12@@std@@PAX@2@XZ
	?_Rrotate@?$_Tree@V?$_Tmap_traits@V?$basic_string@DU?$char_traits@D@std@@V?$allocator@D@2@@std@@V12@U?$less@V?$basic_string@DU?$char_traits@D@std@@V?$allocator@D@2@@std@@@2@V?$allocator@U?$pair@$$CBV?$basic_string@DU?$char_traits@D@std@@V?$allocator@D@2@@std@@V12@@std@@@2@$0A@@std@@@std@@IAEXPAU?$_Tree_node@U?$pair@$$CBV?$basic_string@DU?$char_traits@D@std@@V?$allocator@D@2@@std@@V12@@std@@PAX@2@@Z
	?_Tidy@?$_Tree@V?$_Tmap_traits@V?$basic_string@DU?$char_traits@D@std@@V?$allocator@D@2@@std@@V12@U?$less@V?$basic_string@DU?$char_traits@D@std@@V?$allocator@D@2@@std@@@2@V?$allocator@U?$pair@$$CBV?$basic_string@DU?$char_traits@D@std@@V?$allocator@D@2@@std@@V12@@std@@@2@$0A@@std@@@std@@IAEXXZ
	??0?$map@V?$basic_string@DU?$char_traits@D@std@@V?$allocator@D@2@@std@@V12@U?$less@V?$basic_string@DU?$char_traits@D@std@@V?$allocator@D@2@@std@@@2@V?$allocator@U?$pair@$$CBV?$basic_string@DU?$char_traits@D@std@@V?$allocator@D@2@@std@@V12@@std@@@2@@std@@QAE@XZ
	??1?$map@V?$basic_string@DU?$char_traits@D@std@@V?$allocator@D@2@@std@@V12@U?$less@V?$basic_string@DU?$char_traits@D@std@@V?$allocator@D@2@@std@@@2@V?$allocator@U?$pair@$$CBV?$basic_string@DU?$char_traits@D@std@@V?$allocator@D@2@@std@@V12@@std@@@2@@std@@QAE@XZ
	??1MessageReader@@UAE@XZ
	??0?$_Tree_unchecked_const_iterator@V?$_Tree_val@U?$_Tree_simple_types@U?$pair@$$CBV?$basic_string@DU?$char_traits@D@std@@V?$allocator@D@2@@std@@V12@@std@@@std@@@std@@U_Iterator_base0@2@@std@@QAE@PAU?$_Tree_node@U?$pair@$$CBV?$basic_string@DU?$char_traits@D@std@@V?$allocator@D@2@@std@@V12@@std@@PAX@1@PBV?$_Tree_val@U?$_Tree_simple_types@U?$pair@$$CBV?$basic_string@DU?$char_traits@D@std@@V?$allocator@D@2@@std@@V12@@std@@@std@@@1@@Z
	??E?$_Tree_unchecked_const_iterator@V?$_Tree_val@U?$_Tree_simple_types@U?$pair@$$CBV?$basic_string@DU?$char_traits@D@std@@V?$allocator@D@2@@std@@V12@@std@@@std@@@std@@U_Iterator_base0@2@@std@@QAEAAV01@XZ
	?_Mynode@?$_Tree_unchecked_const_iterator@V?$_Tree_val@U?$_Tree_simple_types@U?$pair@$$CBV?$basic_string@DU?$char_traits@D@std@@V?$allocator@D@2@@std@@V12@@std@@@std@@@std@@U_Iterator_base0@2@@std@@QBEPAU?$_Tree_node@U?$pair@$$CBV?$basic_string@DU?$char_traits@D@std@@V?$allocator@D@2@@std@@V12@@std@@PAX@2@XZ
	??0?$_Tree_const_iterator@V?$_Tree_val@U?$_Tree_simple_types@U?$pair@$$CBV?$basic_string@DU?$char_traits@D@std@@V?$allocator@D@2@@std@@V12@@std@@@std@@@std@@@std@@QAE@PAU?$_Tree_node@U?$pair@$$CBV?$basic_string@DU?$char_traits@D@std@@V?$allocator@D@2@@std@@V12@@std@@PAX@1@PBV?$_Tree_val@U?$_Tree_simple_types@U?$pair@$$CBV?$basic_string@DU?$char_traits@D@std@@V?$allocator@D@2@@std@@V12@@std@@@std@@@1@@Z
	??E?$_Tree_const_iterator@V?$_Tree_val@U?$_Tree_simple_types@U?$pair@$$CBV?$basic_string@DU?$char_traits@D@std@@V?$allocator@D@2@@std@@V12@@std@@@std@@@std@@@std@@QAEAAV01@XZ
	??E?$_Tree_const_iterator@V?$_Tree_val@U?$_Tree_simple_types@U?$pair@$$CBV?$basic_string@DU?$char_traits@D@std@@V?$allocator@D@2@@std@@V12@@std@@@std@@@std@@@std@@QAE?AV01@H@Z
	??8?$_Tree_const_iterator@V?$_Tree_val@U?$_Tree_simple_types@U?$pair@$$CBV?$basic_string@DU?$char_traits@D@std@@V?$allocator@D@2@@std@@V12@@std@@@std@@@std@@@std@@QBE_NABV01@@Z
	??9?$_Tree_const_iterator@V?$_Tree_val@U?$_Tree_simple_types@U?$pair@$$CBV?$basic_string@DU?$char_traits@D@std@@V?$allocator@D@2@@std@@V12@@std@@@std@@@std@@@std@@QBE_NABV01@@Z
	??0?$_Tree_iterator@V?$_Tree_val@U?$_Tree_simple_types@U?$pair@$$CBV?$basic_string@DU?$char_traits@D@std@@V?$allocator@D@2@@std@@V12@@std@@@std@@@std@@@std@@QAE@PAU?$_Tree_node@U?$pair@$$CBV?$basic_string@DU?$char_traits@D@std@@V?$allocator@D@2@@std@@V12@@std@@PAX@1@PBV?$_Tree_val@U?$_Tree_simple_types@U?$pair@$$CBV?$basic_string@DU?$char_traits@D@std@@V?$allocator@D@2@@std@@V12@@std@@@std@@@1@@Z
	??0EdbScanClientPav@@QAE@XZ
	??1EdbScanClientPav@@UAE@XZ
	?SetPathLib@EdbScanClientPav@@QAEXPBD@Z
	?SetPathName@EdbScanClientPav@@QAEXPBD@Z
	?ServerCreatesTarget@EdbScanClientPav@@UAE_NXZ
	?Class@EdbScanClientPav@@SAPAVTClass@@XZ
	?Class_Name@EdbScanClientPav@@SAPBDXZ
	?Class_Version@EdbScanClientPav@@SAFXZ
	?Dictionary@EdbScanClientPav@@SAXXZ
	?IsA@EdbScanClientPav@@UBEPAVTClass@@XZ
	?ShowMembers@EdbScanClientPav@@UAEXAAVTMemberInspector@@@Z
	?Streamer@EdbScanClientPav@@UAEXAAVTBuffer@@@Z
	?StreamerNVirtual@EdbScanClientPav@@QAEXAAVTBuffer@@@Z
	?DeclFileName@EdbScanClientPav@@SAPBDXZ
	?ImplFileLine@EdbScanClientPav@@SAHXZ
	?ImplFileName@EdbScanClientPav@@SAPBDXZ
	?DeclFileLine@EdbScanClientPav@@SAHXZ
	??0EdbScanClientSysal@@QAE@XZ
	??1EdbScanClientSysal@@UAE@XZ
	?ServerCreatesTarget@EdbScanClientSysal@@UAE_NXZ
	?Class@EdbScanClientSysal@@SAPAVTClass@@XZ
	?Class_Name@EdbScanClientSysal@@SAPBDXZ
	?Class_Version@EdbScanClientSysal@@SAFXZ
	?Dictionary@EdbScanClientSysal@@SAXXZ
	?IsA@EdbScanClientSysal@@UBEPAVTClass@@XZ
	?ShowMembers@EdbScanClientSysal@@UAEXAAVTMemberInspector@@@Z
	?Streamer@EdbScanClientSysal@@UAEXAAVTBuffer@@@Z
	?StreamerNVirtual@EdbScanClientSysal@@QAEXAAVTBuffer@@@Z
	?DeclFileName@EdbScanClientSysal@@SAPBDXZ
	?ImplFileLine@EdbScanClientSysal@@SAHXZ
	?ImplFileName@EdbScanClientSysal@@SAPBDXZ
	?DeclFileLine@EdbScanClientSysal@@SAHXZ
	??0EdbScanClientSysal@@QAE@ABV0@@Z
	??4EdbScanClientSysal@@QAEAAV0@ABV0@@Z
	??0EnvironBase@TCollectionProxyInfo@ROOT@@QAE@XZ
	??1EnvironBase@TCollectionProxyInfo@ROOT@@UAE@XZ
	??0TCollectionProxyInfo@ROOT@@QAE@ABVtype_info@@IIHP6APAXPAX@ZP6AX1I@Z222P6APAX1I@Z3P6APAX11I@ZP6APAX11@ZP6APAXXZP6AX1PAPAX8PAVTVirtualCollectionProxy@@@ZP6APAX1PBX@ZP6APAX1PBX@ZP6AX1@ZP6AX11@Z@Z
	??2@YAPAXIPAVTOperatorNewHelper@ROOT@@@Z
	??3@YAXPAXPAVTOperatorNewHelper@ROOT@@@Z
	??1TVirtualIsAProxy@@UAE@XZ
	??0TVirtualIsAProxy@@QAE@XZ
	??0DictInit@?A0x2abf4a0d@@QAE@XZ
	??0?$TInstrumentedIsAProxy@VEdbScanClientBase@@@@QAE@PAVTClass@@@Z
	??1?$TInstrumentedIsAProxy@VEdbScanClientBase@@@@UAE@XZ
	?SetClass@?$TInstrumentedIsAProxy@VEdbScanClientBase@@@@UAEXPAVTClass@@@Z
	??R?$TInstrumentedIsAProxy@VEdbScanClientBase@@@@UAEPAVTClass@@PBX@Z
	?GenerateInitInstance@ROOTDict@@YAPAVTGenericClassInfo@ROOT@@PBVEdbScanClientBase@@@Z
	??0?$TInstrumentedIsAProxy@VEdbScanClientCommon@@@@QAE@PAVTClass@@@Z
	??1?$TInstrumentedIsAProxy@VEdbScanClientCommon@@@@UAE@XZ
	?SetClass@?$TInstrumentedIsAProxy@VEdbScanClientCommon@@@@UAEXPAVTClass@@@Z
	??R?$TInstrumentedIsAProxy@VEdbScanClientCommon@@@@UAEPAVTClass@@PBX@Z
	?GenerateInitInstance@ROOTDict@@YAPAVTGenericClassInfo@ROOT@@PBVEdbScanClientCommon@@@Z
	??0?$TInstrumentedIsAProxy@VEdbScanClient@@@@QAE@PAVTClass@@@Z
	??1?$TInstrumentedIsAProxy@VEdbScanClient@@@@UAE@XZ
	?SetClass@?$TInstrumentedIsAProxy@VEdbScanClient@@@@UAEXPAVTClass@@@Z
	??R?$TInstrumentedIsAProxy@VEdbScanClient@@@@UAEPAVTClass@@PBX@Z
	?GenerateInitInstance@ROOTDict@@YAPAVTGenericClassInfo@ROOT@@PBVEdbScanClient@@@Z
	??0?$TInstrumentedIsAProxy@VEdbScanProc@@@@QAE@PAVTClass@@@Z
	??1?$TInstrumentedIsAProxy@VEdbScanProc@@@@UAE@XZ
	?SetClass@?$TInstrumentedIsAProxy@VEdbScanProc@@@@UAEXPAVTClass@@@Z
	??R?$TInstrumentedIsAProxy@VEdbScanProc@@@@UAEPAVTClass@@PBX@Z
	?GenerateInitInstance@ROOTDict@@YAPAVTGenericClassInfo@ROOT@@PBVEdbScanProc@@@Z
	??0?$TInstrumentedIsAProxy@VEdbProcPars@@@@QAE@PAVTClass@@@Z
	??1?$TInstrumentedIsAProxy@VEdbProcPars@@@@UAE@XZ
	?SetClass@?$TInstrumentedIsAProxy@VEdbProcPars@@@@UAEXPAVTClass@@@Z
	??R?$TInstrumentedIsAProxy@VEdbProcPars@@@@UAEPAVTClass@@PBX@Z
	?GenerateInitInstance@ROOTDict@@YAPAVTGenericClassInfo@ROOT@@PBVEdbProcPars@@@Z
	??0?$TInstrumentedIsAProxy@VEdbTrackAssembler@@@@QAE@PAVTClass@@@Z
	??1?$TInstrumentedIsAProxy@VEdbTrackAssembler@@@@UAE@XZ
	?SetClass@?$TInstrumentedIsAProxy@VEdbTrackAssembler@@@@UAEXPAVTClass@@@Z
	??R?$TInstrumentedIsAProxy@VEdbTrackAssembler@@@@UAEPAVTClass@@PBX@Z
	?GenerateInitInstance@ROOTDict@@YAPAVTGenericClassInfo@ROOT@@PBVEdbTrackAssembler@@@Z
	??0?$TInstrumentedIsAProxy@VEdbScanTracking@@@@QAE@PAVTClass@@@Z
	??1?$TInstrumentedIsAProxy@VEdbScanTracking@@@@UAE@XZ
	?SetClass@?$TInstrumentedIsAProxy@VEdbScanTracking@@@@UAEXPAVTClass@@@Z
	??R?$TInstrumentedIsAProxy@VEdbScanTracking@@@@UAEPAVTClass@@PBX@Z
	?GenerateInitInstance@ROOTDict@@YAPAVTGenericClassInfo@ROOT@@PBVEdbScanTracking@@@Z
	??0?$TInstrumentedIsAProxy@VEdbScanClientPav@@@@QAE@PAVTClass@@@Z
	??1?$TInstrumentedIsAProxy@VEdbScanClientPav@@@@UAE@XZ
	?SetClass@?$TInstrumentedIsAProxy@VEdbScanClientPav@@@@UAEXPAVTClass@@@Z
	??R?$TInstrumentedIsAProxy@VEdbScanClientPav@@@@UAEPAVTClass@@PBX@Z
	?GenerateInitInstance@ROOTDict@@YAPAVTGenericClassInfo@ROOT@@PBVEdbScanClientPav@@@Z
	??0?$TInstrumentedIsAProxy@VEdbScanClientSysal@@@@QAE@PAVTClass@@@Z
	??1?$TInstrumentedIsAProxy@VEdbScanClientSysal@@@@UAE@XZ
	?SetClass@?$TInstrumentedIsAProxy@VEdbScanClientSysal@@@@UAEXPAVTClass@@@Z
	??R?$TInstrumentedIsAProxy@VEdbScanClientSysal@@@@UAEPAVTClass@@PBX@Z
	?GenerateInitInstance@ROOTDict@@YAPAVTGenericClassInfo@ROOT@@PBVEdbScanClientSysal@@@Z
	??$?5VTSocket@@@@YAAAVTBuffer@@AAV0@AAPAVTSocket@@@Z
	??$?6VTSocket@@@@YAAAVTBuffer@@AAV0@PBVTSocket@@@Z
	??$InspectMember@VTString@@@TMemberInspector@@QAEXAAVTString@@PBD@Z
	??0?$_Vector_const_iterator@V?$_Vector_val@U?$_Simple_types@E@std@@@std@@@std@@QAE@XZ
	??0?$_Vector_const_iterator@V?$_Vector_val@U?$_Simple_types@E@std@@@std@@@std@@QAE@PAEPBU_Container_base0@1@@Z
	??D?$_Vector_const_iterator@V?$_Vector_val@U?$_Simple_types@E@std@@@std@@@std@@QBEABEXZ
	??E?$_Vector_const_iterator@V?$_Vector_val@U?$_Simple_types@E@std@@@std@@@std@@QAEAAV01@XZ
	??Y?$_Vector_const_iterator@V?$_Vector_val@U?$_Simple_types@E@std@@@std@@@std@@QAEAAV01@H@Z
	??8?$_Vector_const_iterator@V?$_Vector_val@U?$_Simple_types@E@std@@@std@@@std@@QBE_NABV01@@Z
	??9?$_Vector_const_iterator@V?$_Vector_val@U?$_Simple_types@E@std@@@std@@@std@@QBE_NABV01@@Z
	?_Compat@?$_Vector_const_iterator@V?$_Vector_val@U?$_Simple_types@E@std@@@std@@@std@@QBEXABV12@@Z
	??0?$_Vector_iterator@V?$_Vector_val@U?$_Simple_types@E@std@@@std@@@std@@QAE@XZ
	??0?$_Vector_iterator@V?$_Vector_val@U?$_Simple_types@E@std@@@std@@@std@@QAE@PAEPBU_Container_base0@1@@Z
	??D?$_Vector_iterator@V?$_Vector_val@U?$_Simple_types@E@std@@@std@@@std@@QBEAAEXZ
	??E?$_Vector_iterator@V?$_Vector_val@U?$_Simple_types@E@std@@@std@@@std@@QAEAAV01@XZ
	??Y?$_Vector_iterator@V?$_Vector_val@U?$_Simple_types@E@std@@@std@@@std@@QAEAAV01@H@Z
	??Z?$_Vector_iterator@V?$_Vector_val@U?$_Simple_types@E@std@@@std@@@std@@QAEAAV01@H@Z
	??G?$_Vector_iterator@V?$_Vector_val@U?$_Simple_types@E@std@@@std@@@std@@QBE?AV01@H@Z
	??$?5VEdbScanProc@@@@YAAAVTBuffer@@AAV0@AAPAVEdbScanProc@@@Z
	??$?6VEdbScanProc@@@@YAAAVTBuffer@@AAV0@PBVEdbScanProc@@@Z
	??$?5VTH1F@@@@YAAAVTBuffer@@AAV0@AAPAVTH1F@@@Z
	??$InspectMember@VEdbPattern@@@TMemberInspector@@QAEXAAVEdbPattern@@PBD@Z
	??$InspectMember@VTObjArray@@@TMemberInspector@@QAEXAAVTObjArray@@PBD@Z
	??$InspectMember@VEdbCell2@@@TMemberInspector@@QAEXAAVEdbCell2@@PBD@Z
	??$InspectMember@VEdbTrackFitter@@@TMemberInspector@@QAEXAAVEdbTrackFitter@@PBD@Z
	??$InspectMember@VEdbScanCond@@@TMemberInspector@@QAEXAAVEdbScanCond@@PBD@Z
	??1?$Address@ABE@TCollectionProxyInfo@ROOT@@UAE@XZ
	?address@?$Address@ABE@TCollectionProxyInfo@ROOT@@SAPAXABE@Z
	??0?$Address@ABE@TCollectionProxyInfo@ROOT@@QAE@XZ
	??1?$Type@V?$vector@EV?$allocator@E@std@@@std@@@TCollectionProxyInfo@ROOT@@UAE@XZ
	?object@?$Type@V?$vector@EV?$allocator@E@std@@@std@@@TCollectionProxyInfo@ROOT@@SAPAV?$vector@EV?$allocator@E@std@@@std@@PAX@Z
	?size@?$Type@V?$vector@EV?$allocator@E@std@@@std@@@TCollectionProxyInfo@ROOT@@SAPAXPAX@Z
	?clear@?$Type@V?$vector@EV?$allocator@E@std@@@std@@@TCollectionProxyInfo@ROOT@@SAPAXPAX@Z
	?first@?$Type@V?$vector@EV?$allocator@E@std@@@std@@@TCollectionProxyInfo@ROOT@@SAPAXPAX@Z
	?next@?$Type@V?$vector@EV?$allocator@E@std@@@std@@@TCollectionProxyInfo@ROOT@@SAPAXPAX@Z
	?construct@?$Type@V?$vector@EV?$allocator@E@std@@@std@@@TCollectionProxyInfo@ROOT@@SAPAXPAXI@Z
	?collect@?$Type@V?$vector@EV?$allocator@E@std@@@std@@@TCollectionProxyInfo@ROOT@@SAPAXPAX0@Z
	?destruct@?$Type@V?$vector@EV?$allocator@E@std@@@std@@@TCollectionProxyInfo@ROOT@@SAXPAXI@Z
	??0?$Type@V?$vector@EV?$allocator@E@std@@@std@@@TCollectionProxyInfo@ROOT@@QAE@XZ
	?resize@?$Pushback@V?$vector@EV?$allocator@E@std@@@std@@@TCollectionProxyInfo@ROOT@@SAXPAXI@Z
	?feed@?$Pushback@V?$vector@EV?$allocator@E@std@@@std@@@TCollectionProxyInfo@ROOT@@SAPAXPAX0I@Z
	?value_offset@?$Pushback@V?$vector@EV?$allocator@E@std@@@std@@@TCollectionProxyInfo@ROOT@@SAHXZ
	??0?$Pushback@V?$vector@EV?$allocator@E@std@@@std@@@TCollectionProxyInfo@ROOT@@QAE@XZ
	??1?$Pushback@V?$vector@EV?$allocator@E@std@@@std@@@TCollectionProxyInfo@ROOT@@UAE@XZ
	??$Generate@U?$Pushback@V?$vector@EV?$allocator@E@std@@@std@@@TCollectionProxyInfo@ROOT@@@TCollectionProxyInfo@ROOT@@SAPAV01@ABU?$Pushback@V?$vector@EV?$allocator@E@std@@@std@@@01@@Z
	G__cpp_reset_tagtableScanDict
	??0G__Sizep2memfuncScanDict@@QAE@XZ
	?sizep2memfunc@G__Sizep2memfuncScanDict@@QAEIXZ
	?G__get_sizep2memfuncScanDict@@YAIXZ
	??$?0P6APAVTClass@@XZ@G__func2void@@QAE@P6APAVTClass@@XZ@Z
	??$?0P6APBDXZ@G__func2void@@QAE@P6APBDXZ@Z
	??$?0P6AFXZ@G__func2void@@QAE@P6AFXZ@Z
	??$?0P6AXXZ@G__func2void@@QAE@P6AXXZ@Z
	??$?0P6AHXZ@G__func2void@@QAE@P6AHXZ@Z
	??$?0P6AXAAVTEnv@@@Z@G__func2void@@QAE@P6AXAAVTEnv@@@Z@Z
	??0G__cpp_setup_initScanDict@@QAE@XZ
	??1G__cpp_setup_initScanDict@@QAE@XZ
	??$addressof@$$CBE@std@@YAPBEABE@Z
	??$construct@EAAE@?$_Wrap_alloc@V?$allocator@E@std@@@std@@QAEXPAEAAE@Z
	??$construct@EABE@?$_Wrap_alloc@V?$allocator@E@std@@@std@@QAEXPAEABE@Z
	??1?$pair@$$CBV?$basic_string@DU?$char_traits@D@std@@V?$allocator@D@2@@std@@V12@@std@@QAE@XZ
	??$construct@PADAAPAD@?$_Wrap_alloc@V?$allocator@D@std@@@std@@QAEXPAPADAAPAD@Z
	??$destroy@PAD@?$_Wrap_alloc@V?$allocator@D@std@@@std@@QAEXPAPAD@Z
	??$addressof@D@std@@YAPADAAD@Z
	??$_Destroy_range@U?$_Wrap_alloc@V?$allocator@E@std@@@std@@@std@@YAXPAE0AAU?$_Wrap_alloc@V?$allocator@E@std@@@0@@Z
	??$_Umove@PAE@?$vector@EV?$allocator@E@std@@@std@@IAEPAEPAE00@Z
	??$addressof@PAU?$_Tree_node@U?$pair@$$CBV?$basic_string@DU?$char_traits@D@std@@V?$allocator@D@2@@std@@V12@@std@@PAX@std@@@std@@YAPAPAU?$_Tree_node@U?$pair@$$CBV?$basic_string@DU?$char_traits@D@std@@V?$allocator@D@2@@std@@V12@@std@@PAX@0@AAPAU10@@Z
	??$destroy@PAU?$_Tree_node@U?$pair@$$CBV?$basic_string@DU?$char_traits@D@std@@V?$allocator@D@2@@std@@V12@@std@@PAX@std@@@?$_Wrap_alloc@V?$allocator@U?$_Tree_node@U?$pair@$$CBV?$basic_string@DU?$char_traits@D@std@@V?$allocator@D@2@@std@@V12@@std@@PAX@std@@@std@@@std@@QAEXPAPAU?$_Tree_node@U?$pair@$$CBV?$basic_string@DU?$char_traits@D@std@@V?$allocator@D@2@@std@@V12@@std@@PAX@1@@Z
	??$addressof@U?$pair@$$CBV?$basic_string@DU?$char_traits@D@std@@V?$allocator@D@2@@std@@V12@@std@@@std@@YAPAU?$pair@$$CBV?$basic_string@DU?$char_traits@D@std@@V?$allocator@D@2@@std@@V12@@0@AAU10@@Z
	??$_Allocate@E@std@@YAPAEIPAE@Z
	??$swap@D@std@@YAXAAD0@Z
	??$destroy@U?$pair@$$CBV?$basic_string@DU?$char_traits@D@std@@V?$allocator@D@2@@std@@V12@@std@@@?$_Wrap_alloc@V?$allocator@U?$_Tree_node@U?$pair@$$CBV?$basic_string@DU?$char_traits@D@std@@V?$allocator@D@2@@std@@V12@@std@@PAX@std@@@std@@@std@@QAEXPAU?$pair@$$CBV?$basic_string@DU?$char_traits@D@std@@V?$allocator@D@2@@std@@V12@@1@@Z
	??$_Allocate@D@std@@YAPADIPAD@Z
	??$construct@PAU?$_Tree_node@U?$pair@$$CBV?$basic_string@DU?$char_traits@D@std@@V?$allocator@D@2@@std@@V12@@std@@PAX@std@@AAPAU12@@?$_Wrap_alloc@V?$allocator@U?$_Tree_node@U?$pair@$$CBV?$basic_string@DU?$char_traits@D@std@@V?$allocator@D@2@@std@@V12@@std@@PAX@std@@@std@@@std@@QAEXPAPAU?$_Tree_node@U?$pair@$$CBV?$basic_string@DU?$char_traits@D@std@@V?$allocator@D@2@@std@@V12@@std@@PAX@1@AAPAU21@@Z
	??$_Allocate@U?$_Tree_node@U?$pair@$$CBV?$basic_string@DU?$char_traits@D@std@@V?$allocator@D@2@@std@@V12@@std@@PAX@std@@@std@@YAPAU?$_Tree_node@U?$pair@$$CBV?$basic_string@DU?$char_traits@D@std@@V?$allocator@D@2@@std@@V12@@std@@PAX@0@IPAU10@@Z
	?iter@?$Environ@V?$_Vector_iterator@V?$_Vector_val@U?$_Simple_types@E@std@@@std@@@std@@@TCollectionProxyInfo@ROOT@@QAEAAV?$_Vector_iterator@V?$_Vector_val@U?$_Simple_types@E@std@@@std@@@std@@XZ
	?Create@?$Environ@V?$_Vector_iterator@V?$_Vector_val@U?$_Simple_types@E@std@@@std@@@std@@@TCollectionProxyInfo@ROOT@@SAPAXXZ
	??0?$Environ@V?$_Vector_iterator@V?$_Vector_val@U?$_Simple_types@E@std@@@std@@@std@@@TCollectionProxyInfo@ROOT@@QAE@XZ
	??1?$Environ@V?$_Vector_iterator@V?$_Vector_val@U?$_Simple_types@E@std@@@std@@@std@@@TCollectionProxyInfo@ROOT@@UAE@XZ
	?create@?$Iterators@V?$vector@EV?$allocator@E@std@@@std@@$0A@@TCollectionProxyInfo@ROOT@@SAXPAXPAPAX1PAVTVirtualCollectionProxy@@@Z
	?copy@?$Iterators@V?$vector@EV?$allocator@E@std@@@std@@$0A@@TCollectionProxyInfo@ROOT@@SAPAXPAXPBX@Z
	?next@?$Iterators@V?$vector@EV?$allocator@E@std@@@std@@$0A@@TCollectionProxyInfo@ROOT@@SAPAXPAXPBX@Z
	?destruct1@?$Iterators@V?$vector@EV?$allocator@E@std@@@std@@$0A@@TCollectionProxyInfo@ROOT@@SAXPAX@Z
	?destruct2@?$Iterators@V?$vector@EV?$allocator@E@std@@@std@@$0A@@TCollectionProxyInfo@ROOT@@SAXPAX0@Z
	??$forward@AAE@std@@YAAAEAAE@Z
	??$construct@EAAE@?$allocator_traits@V?$allocator@E@std@@@std@@SAXAAV?$allocator@E@1@PAEAAE@Z
	??$forward@ABE@std@@YAABEABE@Z
	??$construct@EABE@?$allocator_traits@V?$allocator@E@std@@@std@@SAXAAV?$allocator@E@1@PAEABE@Z
	??$forward@AAPAD@std@@YAAAPADAAPAD@Z
	??$construct@PADAAPAD@?$allocator_traits@V?$allocator@D@std@@@std@@SAXAAV?$allocator@D@1@PAPADAAPAD@Z
	??$destroy@PAD@?$allocator_traits@V?$allocator@D@std@@@std@@SAXAAV?$allocator@D@1@PAPAD@Z
	??$_Ptr_cat@EE@std@@YA?AU_Scalar_ptr_iterator_tag@0@PAE0@Z
	??$_Destroy_range@U?$_Wrap_alloc@V?$allocator@E@std@@@std@@@std@@YAXPAE0AAU?$_Wrap_alloc@V?$allocator@E@std@@@0@U_Scalar_ptr_iterator_tag@0@@Z
	??$_Uninitialized_move@PAEPAEU?$_Wrap_alloc@V?$allocator@E@std@@@std@@@std@@YAPAEPAE00AAU?$_Wrap_alloc@V?$allocator@E@std@@@0@@Z
	??$destroy@PAU?$_Tree_node@U?$pair@$$CBV?$basic_string@DU?$char_traits@D@std@@V?$allocator@D@2@@std@@V12@@std@@PAX@std@@@?$allocator_traits@V?$allocator@U?$_Tree_node@U?$pair@$$CBV?$basic_string@DU?$char_traits@D@std@@V?$allocator@D@2@@std@@V12@@std@@PAX@std@@@std@@@std@@SAXAAV?$allocator@U?$_Tree_node@U?$pair@$$CBV?$basic_string@DU?$char_traits@D@std@@V?$allocator@D@2@@std@@V12@@std@@PAX@std@@@1@PAPAU?$_Tree_node@U?$pair@$$CBV?$basic_string@DU?$char_traits@D@std@@V?$allocator@D@2@@std@@V12@@std@@PAX@1@@Z
	??$_Move@AAD@std@@YA$$QADAAD@Z
	??$destroy@U?$pair@$$CBV?$basic_string@DU?$char_traits@D@std@@V?$allocator@D@2@@std@@V12@@std@@@?$allocator_traits@V?$allocator@U?$_Tree_node@U?$pair@$$CBV?$basic_string@DU?$char_traits@D@std@@V?$allocator@D@2@@std@@V12@@std@@PAX@std@@@std@@@std@@SAXAAV?$allocator@U?$_Tree_node@U?$pair@$$CBV?$basic_string@DU?$char_traits@D@std@@V?$allocator@D@2@@std@@V12@@std@@PAX@std@@@1@PAU?$pair@$$CBV?$basic_string@DU?$char_traits@D@std@@V?$allocator@D@2@@std@@V12@@1@@Z
	??$forward@AAPAU?$_Tree_node@U?$pair@$$CBV?$basic_string@DU?$char_traits@D@std@@V?$allocator@D@2@@std@@V12@@std@@PAX@std@@@std@@YAAAPAU?$_Tree_node@U?$pair@$$CBV?$basic_string@DU?$char_traits@D@std@@V?$allocator@D@2@@std@@V12@@std@@PAX@0@AAPAU10@@Z
	??$construct@PAU?$_Tree_node@U?$pair@$$CBV?$basic_string@DU?$char_traits@D@std@@V?$allocator@D@2@@std@@V12@@std@@PAX@std@@AAPAU12@@?$allocator_traits@V?$allocator@U?$_Tree_node@U?$pair@$$CBV?$basic_string@DU?$char_traits@D@std@@V?$allocator@D@2@@std@@V12@@std@@PAX@std@@@std@@@std@@SAXAAV?$allocator@U?$_Tree_node@U?$pair@$$CBV?$basic_string@DU?$char_traits@D@std@@V?$allocator@D@2@@std@@V12@@std@@PAX@std@@@1@PAPAU?$_Tree_node@U?$pair@$$CBV?$basic_string@DU?$char_traits@D@std@@V?$allocator@D@2@@std@@V12@@std@@PAX@1@AAPAU31@@Z
	??$_Uninitialized_default_fill_n@PAEIU?$_Wrap_alloc@V?$allocator@E@std@@@std@@@std@@YAXPAEIAAU?$_Wrap_alloc@V?$allocator@E@std@@@0@@Z
	??$construct@EAAE@?$allocator@E@std@@QAEXPAEAAE@Z
	??$construct@PADAAPAD@?$allocator@D@std@@QAEXPAPADAAPAD@Z
	??$destroy@PAD@?$allocator@D@std@@QAEXPAPAD@Z
	??$_Unchecked@PAE@std@@YAPAEPAE@Z
	??$_Uninit_move@PAEPAEU?$_Wrap_alloc@V?$allocator@E@std@@@std@@@std@@YAPAEPAE00AAU?$_Wrap_alloc@V?$allocator@E@std@@@0@@Z
	??$_Rechecked@PAEPAE@std@@YAAAPAEAAPAEPAE@Z
	??$destroy@PAU?$_Tree_node@U?$pair@$$CBV?$basic_string@DU?$char_traits@D@std@@V?$allocator@D@2@@std@@V12@@std@@PAX@std@@@?$allocator@U?$_Tree_node@U?$pair@$$CBV?$basic_string@DU?$char_traits@D@std@@V?$allocator@D@2@@std@@V12@@std@@PAX@std@@@std@@QAEXPAPAU?$_Tree_node@U?$pair@$$CBV?$basic_string@DU?$char_traits@D@std@@V?$allocator@D@2@@std@@V12@@std@@PAX@1@@Z
	??$destroy@U?$pair@$$CBV?$basic_string@DU?$char_traits@D@std@@V?$allocator@D@2@@std@@V12@@std@@@?$allocator@U?$_Tree_node@U?$pair@$$CBV?$basic_string@DU?$char_traits@D@std@@V?$allocator@D@2@@std@@V12@@std@@PAX@std@@@std@@QAEXPAU?$pair@$$CBV?$basic_string@DU?$char_traits@D@std@@V?$allocator@D@2@@std@@V12@@1@@Z
	??$construct@PAU?$_Tree_node@U?$pair@$$CBV?$basic_string@DU?$char_traits@D@std@@V?$allocator@D@2@@std@@V12@@std@@PAX@std@@AAPAU12@@?$allocator@U?$_Tree_node@U?$pair@$$CBV?$basic_string@DU?$char_traits@D@std@@V?$allocator@D@2@@std@@V12@@std@@PAX@std@@@std@@QAEXPAPAU?$_Tree_node@U?$pair@$$CBV?$basic_string@DU?$char_traits@D@std@@V?$allocator@D@2@@std@@V12@@std@@PAX@1@AAPAU21@@Z
	??$_Val_type@PAE@std@@YAPAEPAE@Z
	??$_Uninit_def_fill_n@EIE@std@@YAXPAEIAAU?$_Wrap_alloc@V?$allocator@E@std@@@0@0U_Scalar_ptr_iterator_tag@0@@Z
	??$_Uninit_move@EEE@std@@YAPAEPAE00AAU?$_Wrap_alloc@V?$allocator@E@std@@@0@0U_Scalar_ptr_iterator_tag@0@@Z
	?Transform@EdbTrack2D@@W3AEXPBVEdbAffine2D@@@Z
	?Test@EdbTrack2D@@W3BEXXZ
	?Print@EdbTrack2D@@W3BEXPBD@Z
	?IsA@EdbTrack2D@@W3BEPAVTClass@@XZ
	?ShowMembers@EdbTrack2D@@W3AEXAAVTMemberInspector@@@Z
	?Streamer@EdbTrack2D@@W3AEXAAVTBuffer@@@Z
	?IsA@EdbSegP@@WM@BEPAVTClass@@XZ
	?ShowMembers@EdbSegP@@WM@AEXAAVTMemberInspector@@@Z
	?Streamer@EdbSegP@@WM@AEXAAVTBuffer@@@Z
	?Print@EdbSegP@@WM@BEXPBD@Z
	?Print@EdbSegP@@WBA@BEXPBD@Z
	?IsA@EdbSegP@@WBA@BEPAVTClass@@XZ
	?ShowMembers@EdbSegP@@WBA@AEXAAVTMemberInspector@@@Z
	?Streamer@EdbSegP@@WBA@AEXAAVTBuffer@@@Z
	?_Generic_object@?$_Error_objects@H@std@@2V_Generic_error_category@2@A 	 DATA
	?_Iostream_object@?$_Error_objects@H@std@@2V_Iostream_error_category@2@A 	 DATA
	?_System_object@?$_Error_objects@H@std@@2V_System_error_category@2@A 	 DATA
	?id@?$num_put@DV?$back_insert_iterator@V?$basic_string@DU?$char_traits@D@std@@V?$allocator@D@2@@std@@@std@@@std@@2V0locale@2@A 	 DATA
	?id@?$num_put@_WV?$back_insert_iterator@V?$basic_string@_WU?$char_traits@_W@std@@V?$allocator@_W@2@@std@@@std@@@std@@2V0locale@2@A 	 DATA
	??_R0?AVTObject@@@8 	 DATA
	??_R0?AVEdbScanClientBase@@@8 	 DATA
	??_R0?AVEdbScanClientCommon@@@8 	 DATA
	??_R0?AVEdbScanClient@@@8 	 DATA
	??_R0?AVEdbScanProc@@@8 	 DATA
	??_R0?AVEdbProcPars@@@8 	 DATA
	??_R0?AVEdbTrackAssembler@@@8 	 DATA
	??_R0?AVEdbScanTracking@@@8 	 DATA
	??_R0?AVEdbScanClientPav@@@8 	 DATA
	??_R0?AVEdbScanClientSysal@@@8 	 DATA
	??_R0?AVMessageManager@@@8 	 DATA
	??_R0?AVMessageReader@@@8 	 DATA
	??_R0?AV?$auto_ptr@VEdbScanClientCommon@@@std@@@8 	 DATA
	??_R0?AV?$vector@EV?$allocator@E@std@@@std@@@8 	 DATA
	?G__cpp_setup_initializerScanDict@@3VG__cpp_setup_initScanDict@@A 	 DATA
	??_R0?AVTSocket@@@8 	 DATA
	??_R0?AVTH1F@@@8 	 DATA
	??_R0?AVTNamed@@@8 	 DATA
	??_R0?AVTVirtualIsAProxy@@@8 	 DATA
	??_R0?AVerror_category@std@@@8 	 DATA
	??_R0?AV_Generic_error_category@std@@@8 	 DATA
	??_R0?AV_Iostream_error_category@std@@@8 	 DATA
	??_R0?AV_System_error_category@std@@@8 	 DATA
	??_R0?AVTDatime@@@8 	 DATA
	??_R0?AVTLockGuard@@@8 	 DATA
	??_R0?AVEdbAffine2D@@@8 	 DATA
	??_R0?AVEdbPoint@@@8 	 DATA
	??_R0?AVEdbPoint2D@@@8 	 DATA
	??_R0?AVEdbAngle2D@@@8 	 DATA
	??_R0?AVEdbTrack2D@@@8 	 DATA
	??_R0?AVEdbID@@@8 	 DATA
	??_R0?AVEdbSegP@@@8 	 DATA
	??_R0?AVPAVProtocol@@@8 	 DATA
	??_R0?AVTiXmlDocument@@@8 	 DATA
	??_R0?AVTiXmlNode@@@8 	 DATA
	??_R0?AVTiXmlBase@@@8 	 DATA
	??_R0?AUEnvironBase@TCollectionProxyInfo@ROOT@@@8 	 DATA
	??_R0?AV?$TInstrumentedIsAProxy@VEdbScanClientBase@@@@@8 	 DATA
	??_R0?AV?$TInstrumentedIsAProxy@VEdbScanClientCommon@@@@@8 	 DATA
	??_R0?AV?$TInstrumentedIsAProxy@VEdbScanClient@@@@@8 	 DATA
	??_R0?AV?$TInstrumentedIsAProxy@VEdbScanProc@@@@@8 	 DATA
	??_R0?AV?$TInstrumentedIsAProxy@VEdbProcPars@@@@@8 	 DATA
	??_R0?AV?$TInstrumentedIsAProxy@VEdbTrackAssembler@@@@@8 	 DATA
	??_R0?AV?$TInstrumentedIsAProxy@VEdbScanTracking@@@@@8 	 DATA
	??_R0?AV?$TInstrumentedIsAProxy@VEdbScanClientPav@@@@@8 	 DATA
	??_R0?AV?$TInstrumentedIsAProxy@VEdbScanClientSysal@@@@@8 	 DATA
	??_R0?AU?$Pushback@V?$vector@EV?$allocator@E@std@@@std@@@TCollectionProxyInfo@ROOT@@@8 	 DATA
	??_R0?AU?$Type@V?$vector@EV?$allocator@E@std@@@std@@@TCollectionProxyInfo@ROOT@@@8 	 DATA
	??_R0?AU?$Address@ABE@TCollectionProxyInfo@ROOT@@@8 	 DATA
	??_R0?AU?$Environ@V?$_Vector_iterator@V?$_Vector_val@U?$_Simple_types@E@std@@@std@@@std@@@TCollectionProxyInfo@ROOT@@@8 	 DATA
