LIBRARY    C:\Users\User\Downloads\Fedra/lib/libvt
EXPORTS 
	hypot
	??2@YAPAXIPAX@Z
	??3@YAXPAX0@Z
	?length@?$char_traits@D@std@@SAIPBD@Z
	?copy@?$char_traits@D@std@@SAPADPADPBDI@Z
	?move@?$char_traits@D@std@@SAPADPADPBDI@Z
	?assign@?$char_traits@D@std@@SAXAADABD@Z
	??0?$allocator@D@std@@QAE@XZ
	?deallocate@?$allocator@D@std@@QAEXPADI@Z
	?allocate@?$allocator@D@std@@QAEPADI@Z
	?max_size@?$allocator@D@std@@QBEIXZ
	?max_size@?$allocator_traits@V?$allocator@D@std@@@std@@SAIABV?$allocator@D@2@@Z
	??0?$_Wrap_alloc@V?$allocator@D@std@@@std@@QAE@XZ
	?allocate@?$_Wrap_alloc@V?$allocator@D@std@@@std@@QAEPADI@Z
	?deallocate@?$_Wrap_alloc@V?$allocator@D@std@@@std@@QAEXPADI@Z
	?max_size@?$_Wrap_alloc@V?$allocator@D@std@@@std@@QBEIXZ
	??0?$_String_val@U?$_Simple_types@D@std@@@std@@QAE@XZ
	?_Myptr@?$_String_val@U?$_Simple_types@D@std@@@std@@QAEPADXZ
	?_Myptr@?$_String_val@U?$_Simple_types@D@std@@@std@@QBEPBDXZ
	??0?$_String_alloc@$0A@U?$_String_base_types@DV?$allocator@D@std@@@std@@@std@@QAE@ABV?$allocator@D@1@@Z
	?_Getal@?$_String_alloc@$0A@U?$_String_base_types@DV?$allocator@D@std@@@std@@@std@@QBE?AU?$_Wrap_alloc@V?$allocator@D@std@@@2@XZ
	??0?$basic_string@DU?$char_traits@D@std@@V?$allocator@D@2@@std@@QAE@PBD@Z
	??1?$basic_string@DU?$char_traits@D@std@@V?$allocator@D@2@@std@@QAE@XZ
	?assign@?$basic_string@DU?$char_traits@D@std@@V?$allocator@D@2@@std@@QAEAAV12@ABV12@II@Z
	?assign@?$basic_string@DU?$char_traits@D@std@@V?$allocator@D@2@@std@@QAEAAV12@PBDI@Z
	?assign@?$basic_string@DU?$char_traits@D@std@@V?$allocator@D@2@@std@@QAEAAV12@PBD@Z
	?erase@?$basic_string@DU?$char_traits@D@std@@V?$allocator@D@2@@std@@QAEAAV12@I@Z
	?erase@?$basic_string@DU?$char_traits@D@std@@V?$allocator@D@2@@std@@QAEAAV12@II@Z
	?size@?$basic_string@DU?$char_traits@D@std@@V?$allocator@D@2@@std@@QBEIXZ
	?max_size@?$basic_string@DU?$char_traits@D@std@@V?$allocator@D@2@@std@@QBEIXZ
	?_Copy@?$basic_string@DU?$char_traits@D@std@@V?$allocator@D@2@@std@@QAEXII@Z
	?_Eos@?$basic_string@DU?$char_traits@D@std@@V?$allocator@D@2@@std@@QAEXI@Z
	?_Grow@?$basic_string@DU?$char_traits@D@std@@V?$allocator@D@2@@std@@QAE_NI_N@Z
	?_Inside@?$basic_string@DU?$char_traits@D@std@@V?$allocator@D@2@@std@@QAE_NPBD@Z
	?_Tidy@?$basic_string@DU?$char_traits@D@std@@V?$allocator@D@2@@std@@QAEX_NI@Z
	?_Xlen@?$basic_string@DU?$char_traits@D@std@@V?$allocator@D@2@@std@@QBEXXZ
	?_Xran@?$basic_string@DU?$char_traits@D@std@@V?$allocator@D@2@@std@@QBEXXZ
	?generic_category@std@@YAABVerror_category@1@XZ
	?system_category@std@@YAABVerror_category@1@XZ
	??0error_category@std@@QAE@XZ
	??1error_category@std@@UAE@XZ
	?default_error_condition@error_category@std@@UBE?AVerror_condition@2@H@Z
	?equivalent@error_category@std@@UBE_NHABVerror_condition@2@@Z
	?equivalent@error_category@std@@UBE_NABVerror_code@2@H@Z
	??8error_category@std@@QBE_NABV01@@Z
	?value@error_code@std@@QBEHXZ
	?category@error_code@std@@QBEABVerror_category@2@XZ
	??0error_condition@std@@QAE@HABVerror_category@1@@Z
	?value@error_condition@std@@QBEHXZ
	?category@error_condition@std@@QBEABVerror_category@2@XZ
	??8error_condition@std@@QBE_NABV01@@Z
	??0_Generic_error_category@std@@QAE@XZ
	?name@_Generic_error_category@std@@UBEPBDXZ
	?message@_Generic_error_category@std@@UBE?AV?$basic_string@DU?$char_traits@D@std@@V?$allocator@D@2@@2@H@Z
	??1_Generic_error_category@std@@UAE@XZ
	??0_Iostream_error_category@std@@QAE@XZ
	?name@_Iostream_error_category@std@@UBEPBDXZ
	?message@_Iostream_error_category@std@@UBE?AV?$basic_string@DU?$char_traits@D@std@@V?$allocator@D@2@@2@H@Z
	??1_Iostream_error_category@std@@UAE@XZ
	??0_System_error_category@std@@QAE@XZ
	?name@_System_error_category@std@@UBEPBDXZ
	?message@_System_error_category@std@@UBE?AV?$basic_string@DU?$char_traits@D@std@@V?$allocator@D@2@@2@H@Z
	?default_error_condition@_System_error_category@std@@UBE?AVerror_condition@2@H@Z
	??1_System_error_category@std@@UAE@XZ
	??0VtVector@MATRIX@@QAE@I@Z
	??0VtVector@MATRIX@@QAE@NN@Z
	??0VtVector@MATRIX@@QAE@NNN@Z
	??0VtVector@MATRIX@@QAE@NNNN@Z
	??0VtVector@MATRIX@@QAE@NNNNN@Z
	??0VtVector@MATRIX@@QAE@NNNNNN@Z
	??0VtVector@MATRIX@@QAE@ABV01@@Z
	??1VtVector@MATRIX@@QAE@XZ
	??AVtVector@MATRIX@@QBENI@Z
	??RVtVector@MATRIX@@QBENI@Z
	??RVtVector@MATRIX@@QAEAANI@Z
	??4VtVector@MATRIX@@QAEABV01@ABV01@@Z
	??YVtVector@MATRIX@@QAEABV01@N@Z
	??ZVtVector@MATRIX@@QAEABV01@N@Z
	??XVtVector@MATRIX@@QAEABV01@N@Z
	??_0VtVector@MATRIX@@QAEABV01@N@Z
	??YVtVector@MATRIX@@QAEABV01@ABV01@@Z
	??ZVtVector@MATRIX@@QAEABV01@ABV01@@Z
	??HVtVector@MATRIX@@QBE?BV01@ABV01@@Z
	??GVtVector@MATRIX@@QBE?BV01@ABV01@@Z
	??DVtVector@MATRIX@@QBE?BNABV01@@Z
	??DVtVector@MATRIX@@QBE?AV01@N@Z
	?size@VtVector@MATRIX@@QBEIXZ
	?nrow@VtVector@MATRIX@@QBEIXZ
	?mag2@VtVector@MATRIX@@QBENXZ
	?mag@VtVector@MATRIX@@QBENXZ
	?unit@VtVector@MATRIX@@QBE?AV12@XZ
	?print@VtVector@MATRIX@@QBEXAAV?$basic_ostream@DU?$char_traits@D@std@@@std@@@Z
	?place_at@VtVector@MATRIX@@QAEXABV12@I@Z
	?copy@VtVector@MATRIX@@QAEXABV12@I@Z
	?clear@VtVector@MATRIX@@QAEXXZ
	?IsA@VtVector@MATRIX@@UBEPAVTClass@@XZ
	??$endl@DU?$char_traits@D@std@@@std@@YAAAV?$basic_ostream@DU?$char_traits@D@std@@@0@AAV10@@Z
	??$construct@PADAAPAD@?$_Wrap_alloc@V?$allocator@D@std@@@std@@QAEXPAPADAAPAD@Z
	??$destroy@PAD@?$_Wrap_alloc@V?$allocator@D@std@@@std@@QAEXPAPAD@Z
	??$addressof@D@std@@YAPADAAD@Z
	??$_Allocate@D@std@@YAPADIPAD@Z
	??$forward@AAPAD@std@@YAAAPADAAPAD@Z
	??$construct@PADAAPAD@?$allocator_traits@V?$allocator@D@std@@@std@@SAXAAV?$allocator@D@1@PAPADAAPAD@Z
	??$destroy@PAD@?$allocator_traits@V?$allocator@D@std@@@std@@SAXAAV?$allocator@D@1@PAPAD@Z
	??$construct@PADAAPAD@?$allocator@D@std@@QAEXPAPADAAPAD@Z
	??$destroy@PAD@?$allocator@D@std@@QAEXPAPAD@Z
	?_Generic_object@?$_Error_objects@H@std@@2V_Generic_error_category@2@A 	 DATA
	?_Iostream_object@?$_Error_objects@H@std@@2V_Iostream_error_category@2@A 	 DATA
	?_System_object@?$_Error_objects@H@std@@2V_System_error_category@2@A 	 DATA
	?id@?$num_put@DV?$back_insert_iterator@V?$basic_string@DU?$char_traits@D@std@@V?$allocator@D@2@@std@@@std@@@std@@2V0locale@2@A 	 DATA
	?id@?$num_put@_WV?$back_insert_iterator@V?$basic_string@_WU?$char_traits@_W@std@@V?$allocator@_W@2@@std@@@std@@@std@@2V0locale@2@A 	 DATA
	??_R0?AVerror_category@std@@@8 	 DATA
	??_R0?AV_Generic_error_category@std@@@8 	 DATA
	??_R0?AV_Iostream_error_category@std@@@8 	 DATA
	??_R0?AV_System_error_category@std@@@8 	 DATA
	??_R0?AVVtVector@MATRIX@@@8 	 DATA
	hypot
	??2@YAPAXIPAX@Z
	??3@YAXPAX0@Z
	?length@?$char_traits@D@std@@SAIPBD@Z
	?copy@?$char_traits@D@std@@SAPADPADPBDI@Z
	?move@?$char_traits@D@std@@SAPADPADPBDI@Z
	?assign@?$char_traits@D@std@@SAXAADABD@Z
	?eq_int_type@?$char_traits@D@std@@SA_NABH0@Z
	?eof@?$char_traits@D@std@@SAHXZ
	??0?$allocator@D@std@@QAE@XZ
	?deallocate@?$allocator@D@std@@QAEXPADI@Z
	?allocate@?$allocator@D@std@@QAEPADI@Z
	?max_size@?$allocator@D@std@@QBEIXZ
	?max_size@?$allocator_traits@V?$allocator@D@std@@@std@@SAIABV?$allocator@D@2@@Z
	??0?$_Wrap_alloc@V?$allocator@D@std@@@std@@QAE@XZ
	?allocate@?$_Wrap_alloc@V?$allocator@D@std@@@std@@QAEPADI@Z
	?deallocate@?$_Wrap_alloc@V?$allocator@D@std@@@std@@QAEXPADI@Z
	?max_size@?$_Wrap_alloc@V?$allocator@D@std@@@std@@QBEIXZ
	??0?$_String_val@U?$_Simple_types@D@std@@@std@@QAE@XZ
	?_Myptr@?$_String_val@U?$_Simple_types@D@std@@@std@@QAEPADXZ
	?_Myptr@?$_String_val@U?$_Simple_types@D@std@@@std@@QBEPBDXZ
	??0?$_String_alloc@$0A@U?$_String_base_types@DV?$allocator@D@std@@@std@@@std@@QAE@ABV?$allocator@D@1@@Z
	?_Getal@?$_String_alloc@$0A@U?$_String_base_types@DV?$allocator@D@std@@@std@@@std@@QBE?AU?$_Wrap_alloc@V?$allocator@D@std@@@2@XZ
	??0?$basic_string@DU?$char_traits@D@std@@V?$allocator@D@2@@std@@QAE@PBD@Z
	??1?$basic_string@DU?$char_traits@D@std@@V?$allocator@D@2@@std@@QAE@XZ
	?assign@?$basic_string@DU?$char_traits@D@std@@V?$allocator@D@2@@std@@QAEAAV12@ABV12@II@Z
	?assign@?$basic_string@DU?$char_traits@D@std@@V?$allocator@D@2@@std@@QAEAAV12@PBDI@Z
	?assign@?$basic_string@DU?$char_traits@D@std@@V?$allocator@D@2@@std@@QAEAAV12@PBD@Z
	?erase@?$basic_string@DU?$char_traits@D@std@@V?$allocator@D@2@@std@@QAEAAV12@I@Z
	?erase@?$basic_string@DU?$char_traits@D@std@@V?$allocator@D@2@@std@@QAEAAV12@II@Z
	?size@?$basic_string@DU?$char_traits@D@std@@V?$allocator@D@2@@std@@QBEIXZ
	?max_size@?$basic_string@DU?$char_traits@D@std@@V?$allocator@D@2@@std@@QBEIXZ
	?_Copy@?$basic_string@DU?$char_traits@D@std@@V?$allocator@D@2@@std@@QAEXII@Z
	?_Eos@?$basic_string@DU?$char_traits@D@std@@V?$allocator@D@2@@std@@QAEXI@Z
	?_Grow@?$basic_string@DU?$char_traits@D@std@@V?$allocator@D@2@@std@@QAE_NI_N@Z
	?_Inside@?$basic_string@DU?$char_traits@D@std@@V?$allocator@D@2@@std@@QAE_NPBD@Z
	?_Tidy@?$basic_string@DU?$char_traits@D@std@@V?$allocator@D@2@@std@@QAEX_NI@Z
	?_Xlen@?$basic_string@DU?$char_traits@D@std@@V?$allocator@D@2@@std@@QBEXXZ
	?_Xran@?$basic_string@DU?$char_traits@D@std@@V?$allocator@D@2@@std@@QBEXXZ
	?generic_category@std@@YAABVerror_category@1@XZ
	?system_category@std@@YAABVerror_category@1@XZ
	??0error_category@std@@QAE@XZ
	??1error_category@std@@UAE@XZ
	?default_error_condition@error_category@std@@UBE?AVerror_condition@2@H@Z
	?equivalent@error_category@std@@UBE_NHABVerror_condition@2@@Z
	?equivalent@error_category@std@@UBE_NABVerror_code@2@H@Z
	??8error_category@std@@QBE_NABV01@@Z
	?value@error_code@std@@QBEHXZ
	?category@error_code@std@@QBEABVerror_category@2@XZ
	??0error_condition@std@@QAE@HABVerror_category@1@@Z
	?value@error_condition@std@@QBEHXZ
	?category@error_condition@std@@QBEABVerror_category@2@XZ
	??8error_condition@std@@QBE_NABV01@@Z
	??0_Generic_error_category@std@@QAE@XZ
	?name@_Generic_error_category@std@@UBEPBDXZ
	?message@_Generic_error_category@std@@UBE?AV?$basic_string@DU?$char_traits@D@std@@V?$allocator@D@2@@2@H@Z
	??1_Generic_error_category@std@@UAE@XZ
	??0_Iostream_error_category@std@@QAE@XZ
	?name@_Iostream_error_category@std@@UBEPBDXZ
	?message@_Iostream_error_category@std@@UBE?AV?$basic_string@DU?$char_traits@D@std@@V?$allocator@D@2@@2@H@Z
	??1_Iostream_error_category@std@@UAE@XZ
	??0_System_error_category@std@@QAE@XZ
	?name@_System_error_category@std@@UBEPBDXZ
	?message@_System_error_category@std@@UBE?AV?$basic_string@DU?$char_traits@D@std@@V?$allocator@D@2@@2@H@Z
	?default_error_condition@_System_error_category@std@@UBE?AVerror_condition@2@H@Z
	??1_System_error_category@std@@UAE@XZ
	??0VtMatrix@MATRIX@@QAE@II@Z
	??0VtMatrix@MATRIX@@QAE@ABV01@@Z
	??1VtMatrix@MATRIX@@UAE@XZ
	?nrow@VtMatrix@MATRIX@@QBEIXZ
	?ncol@VtMatrix@MATRIX@@QBEIXZ
	?size@VtMatrix@MATRIX@@QBEHXZ
	??RVtMatrix@MATRIX@@UBENII@Z
	??RVtMatrix@MATRIX@@UAEAANII@Z
	?get@VtMatrix@MATRIX@@QBENII@Z
	?get@VtMatrix@MATRIX@@QAEAANII@Z
	?VtT@VtMatrix@MATRIX@@QAEXXZ
	?T@VtMatrix@MATRIX@@QBE?BV12@XZ
	?place_at@VtMatrix@MATRIX@@UAEXABV12@II@Z
	?place_at@VtMatrix@MATRIX@@UAEXABVVtVector@2@II@Z
	?copy@VtMatrix@MATRIX@@QAEXABV12@@Z
	?clear@VtMatrix@MATRIX@@QAEXXZ
	??4VtMatrix@MATRIX@@QAEABV01@ABV01@@Z
	??4VtMatrix@MATRIX@@QAEABV01@ABVVtNegMatrix@1@@Z
	??YVtMatrix@MATRIX@@UAEABV01@N@Z
	??ZVtMatrix@MATRIX@@UAEABV01@N@Z
	??XVtMatrix@MATRIX@@UAEABV01@N@Z
	??_0VtMatrix@MATRIX@@UAEABV01@N@Z
	??YVtMatrix@MATRIX@@QAEABV01@ABV01@@Z
	??ZVtMatrix@MATRIX@@QAEABV01@ABV01@@Z
	??HVtMatrix@MATRIX@@QBE?BV01@ABV01@@Z
	??HVtMatrix@MATRIX@@QBE?BV01@ABVVtNegMatrix@1@@Z
	??GVtMatrix@MATRIX@@QBE?BV01@ABV01@@Z
	??GVtMatrix@MATRIX@@QBE?BV01@ABVVtNegMatrix@1@@Z
	??GVtMatrix@MATRIX@@QBE?BVVtNegMatrix@1@XZ
	??DVtMatrix@MATRIX@@QBE?BV01@ABV01@@Z
	??DVtMatrix@MATRIX@@QBE?BVVtVector@1@ABV21@@Z
	?print@VtMatrix@MATRIX@@UBEXAAV?$basic_ostream@DU?$char_traits@D@std@@@std@@@Z
	?IsA@VtMatrix@MATRIX@@UBEPAVTClass@@XZ
	??1VtNegMatrix@MATRIX@@UAE@XZ
	??AVtVector@MATRIX@@QBENI@Z
	??AVtVector@MATRIX@@QAEAANI@Z
	??RVtVector@MATRIX@@QBENI@Z
	?nrow@VtVector@MATRIX@@QBEIXZ
	??$?6U?$char_traits@D@std@@@std@@YAAAV?$basic_ostream@DU?$char_traits@D@std@@@0@AAV10@PBD@Z
	??$endl@DU?$char_traits@D@std@@@std@@YAAAV?$basic_ostream@DU?$char_traits@D@std@@@0@AAV10@@Z
	??0_Sentry_base@?$basic_ostream@DU?$char_traits@D@std@@@std@@QAE@AAV12@@Z
	??1_Sentry_base@?$basic_ostream@DU?$char_traits@D@std@@@std@@QAE@XZ
	??0sentry@?$basic_ostream@DU?$char_traits@D@std@@@std@@QAE@AAV12@@Z
	??1sentry@?$basic_ostream@DU?$char_traits@D@std@@@std@@QAE@XZ
	??Bsentry@?$basic_ostream@DU?$char_traits@D@std@@@std@@QBE_NXZ
	??$construct@PADAAPAD@?$_Wrap_alloc@V?$allocator@D@std@@@std@@QAEXPAPADAAPAD@Z
	??$destroy@PAD@?$_Wrap_alloc@V?$allocator@D@std@@@std@@QAEXPAPAD@Z
	??$addressof@D@std@@YAPADAAD@Z
	??$_Allocate@D@std@@YAPADIPAD@Z
	??$forward@AAPAD@std@@YAAAPADAAPAD@Z
	??$construct@PADAAPAD@?$allocator_traits@V?$allocator@D@std@@@std@@SAXAAV?$allocator@D@1@PAPADAAPAD@Z
	??$destroy@PAD@?$allocator_traits@V?$allocator@D@std@@@std@@SAXAAV?$allocator@D@1@PAPAD@Z
	??$construct@PADAAPAD@?$allocator@D@std@@QAEXPAPADAAPAD@Z
	??$destroy@PAD@?$allocator@D@std@@QAEXPAPAD@Z
	?_Generic_object@?$_Error_objects@H@std@@2V_Generic_error_category@2@A 	 DATA
	?_Iostream_object@?$_Error_objects@H@std@@2V_Iostream_error_category@2@A 	 DATA
	?_System_object@?$_Error_objects@H@std@@2V_System_error_category@2@A 	 DATA
	?id@?$num_put@DV?$back_insert_iterator@V?$basic_string@DU?$char_traits@D@std@@V?$allocator@D@2@@std@@@std@@@std@@2V0locale@2@A 	 DATA
	?id@?$num_put@_WV?$back_insert_iterator@V?$basic_string@_WU?$char_traits@_W@std@@V?$allocator@_W@2@@std@@@std@@@std@@2V0locale@2@A 	 DATA
	??_R0?AVerror_category@std@@@8 	 DATA
	??_R0?AV_Generic_error_category@std@@@8 	 DATA
	??_R0?AV_Iostream_error_category@std@@@8 	 DATA
	??_R0?AV_System_error_category@std@@@8 	 DATA
	??_R0?AVVtMatrix@MATRIX@@@8 	 DATA
	hypot
	??2@YAPAXIPAX@Z
	??3@YAXPAX0@Z
	?length@?$char_traits@D@std@@SAIPBD@Z
	?copy@?$char_traits@D@std@@SAPADPADPBDI@Z
	?move@?$char_traits@D@std@@SAPADPADPBDI@Z
	?assign@?$char_traits@D@std@@SAXAADABD@Z
	?eq_int_type@?$char_traits@D@std@@SA_NABH0@Z
	?eof@?$char_traits@D@std@@SAHXZ
	??0?$allocator@D@std@@QAE@XZ
	?deallocate@?$allocator@D@std@@QAEXPADI@Z
	?allocate@?$allocator@D@std@@QAEPADI@Z
	?max_size@?$allocator@D@std@@QBEIXZ
	?max_size@?$allocator_traits@V?$allocator@D@std@@@std@@SAIABV?$allocator@D@2@@Z
	??0?$_Wrap_alloc@V?$allocator@D@std@@@std@@QAE@XZ
	?allocate@?$_Wrap_alloc@V?$allocator@D@std@@@std@@QAEPADI@Z
	?deallocate@?$_Wrap_alloc@V?$allocator@D@std@@@std@@QAEXPADI@Z
	?max_size@?$_Wrap_alloc@V?$allocator@D@std@@@std@@QBEIXZ
	??0?$_String_val@U?$_Simple_types@D@std@@@std@@QAE@XZ
	?_Myptr@?$_String_val@U?$_Simple_types@D@std@@@std@@QAEPADXZ
	?_Myptr@?$_String_val@U?$_Simple_types@D@std@@@std@@QBEPBDXZ
	??0?$_String_alloc@$0A@U?$_String_base_types@DV?$allocator@D@std@@@std@@@std@@QAE@ABV?$allocator@D@1@@Z
	?_Getal@?$_String_alloc@$0A@U?$_String_base_types@DV?$allocator@D@std@@@std@@@std@@QBE?AU?$_Wrap_alloc@V?$allocator@D@std@@@2@XZ
	??0?$basic_string@DU?$char_traits@D@std@@V?$allocator@D@2@@std@@QAE@PBD@Z
	??1?$basic_string@DU?$char_traits@D@std@@V?$allocator@D@2@@std@@QAE@XZ
	?assign@?$basic_string@DU?$char_traits@D@std@@V?$allocator@D@2@@std@@QAEAAV12@ABV12@II@Z
	?assign@?$basic_string@DU?$char_traits@D@std@@V?$allocator@D@2@@std@@QAEAAV12@PBDI@Z
	?assign@?$basic_string@DU?$char_traits@D@std@@V?$allocator@D@2@@std@@QAEAAV12@PBD@Z
	?erase@?$basic_string@DU?$char_traits@D@std@@V?$allocator@D@2@@std@@QAEAAV12@I@Z
	?erase@?$basic_string@DU?$char_traits@D@std@@V?$allocator@D@2@@std@@QAEAAV12@II@Z
	?size@?$basic_string@DU?$char_traits@D@std@@V?$allocator@D@2@@std@@QBEIXZ
	?max_size@?$basic_string@DU?$char_traits@D@std@@V?$allocator@D@2@@std@@QBEIXZ
	?_Copy@?$basic_string@DU?$char_traits@D@std@@V?$allocator@D@2@@std@@QAEXII@Z
	?_Eos@?$basic_string@DU?$char_traits@D@std@@V?$allocator@D@2@@std@@QAEXI@Z
	?_Grow@?$basic_string@DU?$char_traits@D@std@@V?$allocator@D@2@@std@@QAE_NI_N@Z
	?_Inside@?$basic_string@DU?$char_traits@D@std@@V?$allocator@D@2@@std@@QAE_NPBD@Z
	?_Tidy@?$basic_string@DU?$char_traits@D@std@@V?$allocator@D@2@@std@@QAEX_NI@Z
	?_Xlen@?$basic_string@DU?$char_traits@D@std@@V?$allocator@D@2@@std@@QBEXXZ
	?_Xran@?$basic_string@DU?$char_traits@D@std@@V?$allocator@D@2@@std@@QBEXXZ
	?generic_category@std@@YAABVerror_category@1@XZ
	?system_category@std@@YAABVerror_category@1@XZ
	??0error_category@std@@QAE@XZ
	??1error_category@std@@UAE@XZ
	?default_error_condition@error_category@std@@UBE?AVerror_condition@2@H@Z
	?equivalent@error_category@std@@UBE_NHABVerror_condition@2@@Z
	?equivalent@error_category@std@@UBE_NABVerror_code@2@H@Z
	??8error_category@std@@QBE_NABV01@@Z
	?value@error_code@std@@QBEHXZ
	?category@error_code@std@@QBEABVerror_category@2@XZ
	??0error_condition@std@@QAE@HABVerror_category@1@@Z
	?value@error_condition@std@@QBEHXZ
	?category@error_condition@std@@QBEABVerror_category@2@XZ
	??8error_condition@std@@QBE_NABV01@@Z
	??0_Generic_error_category@std@@QAE@XZ
	?name@_Generic_error_category@std@@UBEPBDXZ
	?message@_Generic_error_category@std@@UBE?AV?$basic_string@DU?$char_traits@D@std@@V?$allocator@D@2@@2@H@Z
	??1_Generic_error_category@std@@UAE@XZ
	??0_Iostream_error_category@std@@QAE@XZ
	?name@_Iostream_error_category@std@@UBEPBDXZ
	?message@_Iostream_error_category@std@@UBE?AV?$basic_string@DU?$char_traits@D@std@@V?$allocator@D@2@@2@H@Z
	??1_Iostream_error_category@std@@UAE@XZ
	??0_System_error_category@std@@QAE@XZ
	?name@_System_error_category@std@@UBEPBDXZ
	?message@_System_error_category@std@@UBE?AV?$basic_string@DU?$char_traits@D@std@@V?$allocator@D@2@@2@H@Z
	?default_error_condition@_System_error_category@std@@UBE?AVerror_condition@2@H@Z
	??1_System_error_category@std@@UAE@XZ
	?nrow@VtMatrix@MATRIX@@QBEIXZ
	?ncol@VtMatrix@MATRIX@@QBEIXZ
	?get@VtMatrix@MATRIX@@QBENII@Z
	?get@VtMatrix@MATRIX@@QAEAANII@Z
	??0VtNegMatrix@MATRIX@@QAE@II@Z
	??0VtNegMatrix@MATRIX@@QAE@ABV01@@Z
	??0VtNegMatrix@MATRIX@@QAE@ABVVtMatrix@1@@Z
	??1VtNegMatrix@MATRIX@@UAE@XZ
	??RVtNegMatrix@MATRIX@@UBENII@Z
	??RVtNegMatrix@MATRIX@@UAEAANII@Z
	?nget@VtNegMatrix@MATRIX@@QBENII@Z
	?T@VtNegMatrix@MATRIX@@QBE?BV12@XZ
	??YVtNegMatrix@MATRIX@@UAEABV01@N@Z
	??ZVtNegMatrix@MATRIX@@UAEABV01@N@Z
	??XVtNegMatrix@MATRIX@@UAEABV01@N@Z
	??_0VtNegMatrix@MATRIX@@UAEABV01@N@Z
	??YVtNegMatrix@MATRIX@@QAEABV01@ABVVtMatrix@1@@Z
	??YVtNegMatrix@MATRIX@@QAEABV01@ABV01@@Z
	??ZVtNegMatrix@MATRIX@@QAEABV01@ABVVtMatrix@1@@Z
	??ZVtNegMatrix@MATRIX@@QAEABV01@ABV01@@Z
	??HVtNegMatrix@MATRIX@@QBE?BVVtMatrix@1@ABV21@@Z
	??HVtNegMatrix@MATRIX@@QBE?BVVtMatrix@1@ABV01@@Z
	??GVtNegMatrix@MATRIX@@QBE?BVVtMatrix@1@ABV21@@Z
	??GVtNegMatrix@MATRIX@@QBE?BVVtMatrix@1@XZ
	??DVtNegMatrix@MATRIX@@QBE?BVVtMatrix@1@ABV21@@Z
	??DVtNegMatrix@MATRIX@@QBE?BVVtVector@1@ABV21@@Z
	?IsA@VtNegMatrix@MATRIX@@UBEPAVTClass@@XZ
	??AVtVector@MATRIX@@QBENI@Z
	??AVtVector@MATRIX@@QAEAANI@Z
	?nrow@VtVector@MATRIX@@QBEIXZ
	??$?6U?$char_traits@D@std@@@std@@YAAAV?$basic_ostream@DU?$char_traits@D@std@@@0@AAV10@PBD@Z
	??$endl@DU?$char_traits@D@std@@@std@@YAAAV?$basic_ostream@DU?$char_traits@D@std@@@0@AAV10@@Z
	??$construct@PADAAPAD@?$_Wrap_alloc@V?$allocator@D@std@@@std@@QAEXPAPADAAPAD@Z
	??$destroy@PAD@?$_Wrap_alloc@V?$allocator@D@std@@@std@@QAEXPAPAD@Z
	??$addressof@D@std@@YAPADAAD@Z
	??0_Sentry_base@?$basic_ostream@DU?$char_traits@D@std@@@std@@QAE@AAV12@@Z
	??1_Sentry_base@?$basic_ostream@DU?$char_traits@D@std@@@std@@QAE@XZ
	??0sentry@?$basic_ostream@DU?$char_traits@D@std@@@std@@QAE@AAV12@@Z
	??1sentry@?$basic_ostream@DU?$char_traits@D@std@@@std@@QAE@XZ
	??Bsentry@?$basic_ostream@DU?$char_traits@D@std@@@std@@QBE_NXZ
	??$_Allocate@D@std@@YAPADIPAD@Z
	??$forward@AAPAD@std@@YAAAPADAAPAD@Z
	??$construct@PADAAPAD@?$allocator_traits@V?$allocator@D@std@@@std@@SAXAAV?$allocator@D@1@PAPADAAPAD@Z
	??$destroy@PAD@?$allocator_traits@V?$allocator@D@std@@@std@@SAXAAV?$allocator@D@1@PAPAD@Z
	??$construct@PADAAPAD@?$allocator@D@std@@QAEXPAPADAAPAD@Z
	??$destroy@PAD@?$allocator@D@std@@QAEXPAPAD@Z
	?_Generic_object@?$_Error_objects@H@std@@2V_Generic_error_category@2@A 	 DATA
	?_Iostream_object@?$_Error_objects@H@std@@2V_Iostream_error_category@2@A 	 DATA
	?_System_object@?$_Error_objects@H@std@@2V_System_error_category@2@A 	 DATA
	?id@?$num_put@DV?$back_insert_iterator@V?$basic_string@DU?$char_traits@D@std@@V?$allocator@D@2@@std@@@std@@@std@@2V0locale@2@A 	 DATA
	?id@?$num_put@_WV?$back_insert_iterator@V?$basic_string@_WU?$char_traits@_W@std@@V?$allocator@_W@2@@std@@@std@@@std@@2V0locale@2@A 	 DATA
	??_R0?AVerror_category@std@@@8 	 DATA
	??_R0?AV_Generic_error_category@std@@@8 	 DATA
	??_R0?AV_Iostream_error_category@std@@@8 	 DATA
	??_R0?AV_System_error_category@std@@@8 	 DATA
	??_R0?AVVtNegMatrix@MATRIX@@@8 	 DATA
	??_R0?AVVtMatrix@MATRIX@@@8 	 DATA
	hypot
	??2@YAPAXIPAX@Z
	??3@YAXPAX0@Z
	?length@?$char_traits@D@std@@SAIPBD@Z
	?copy@?$char_traits@D@std@@SAPADPADPBDI@Z
	?move@?$char_traits@D@std@@SAPADPADPBDI@Z
	?assign@?$char_traits@D@std@@SAXAADABD@Z
	?eq_int_type@?$char_traits@D@std@@SA_NABH0@Z
	?eof@?$char_traits@D@std@@SAHXZ
	??0?$allocator@D@std@@QAE@XZ
	?deallocate@?$allocator@D@std@@QAEXPADI@Z
	?allocate@?$allocator@D@std@@QAEPADI@Z
	?max_size@?$allocator@D@std@@QBEIXZ
	?max_size@?$allocator_traits@V?$allocator@D@std@@@std@@SAIABV?$allocator@D@2@@Z
	??0?$_Wrap_alloc@V?$allocator@D@std@@@std@@QAE@XZ
	?allocate@?$_Wrap_alloc@V?$allocator@D@std@@@std@@QAEPADI@Z
	?deallocate@?$_Wrap_alloc@V?$allocator@D@std@@@std@@QAEXPADI@Z
	?max_size@?$_Wrap_alloc@V?$allocator@D@std@@@std@@QBEIXZ
	??0?$_String_val@U?$_Simple_types@D@std@@@std@@QAE@XZ
	?_Myptr@?$_String_val@U?$_Simple_types@D@std@@@std@@QAEPADXZ
	?_Myptr@?$_String_val@U?$_Simple_types@D@std@@@std@@QBEPBDXZ
	??0?$_String_alloc@$0A@U?$_String_base_types@DV?$allocator@D@std@@@std@@@std@@QAE@ABV?$allocator@D@1@@Z
	?_Getal@?$_String_alloc@$0A@U?$_String_base_types@DV?$allocator@D@std@@@std@@@std@@QBE?AU?$_Wrap_alloc@V?$allocator@D@std@@@2@XZ
	??0?$basic_string@DU?$char_traits@D@std@@V?$allocator@D@2@@std@@QAE@PBD@Z
	??1?$basic_string@DU?$char_traits@D@std@@V?$allocator@D@2@@std@@QAE@XZ
	?assign@?$basic_string@DU?$char_traits@D@std@@V?$allocator@D@2@@std@@QAEAAV12@ABV12@II@Z
	?assign@?$basic_string@DU?$char_traits@D@std@@V?$allocator@D@2@@std@@QAEAAV12@PBDI@Z
	?assign@?$basic_string@DU?$char_traits@D@std@@V?$allocator@D@2@@std@@QAEAAV12@PBD@Z
	?erase@?$basic_string@DU?$char_traits@D@std@@V?$allocator@D@2@@std@@QAEAAV12@I@Z
	?erase@?$basic_string@DU?$char_traits@D@std@@V?$allocator@D@2@@std@@QAEAAV12@II@Z
	?size@?$basic_string@DU?$char_traits@D@std@@V?$allocator@D@2@@std@@QBEIXZ
	?max_size@?$basic_string@DU?$char_traits@D@std@@V?$allocator@D@2@@std@@QBEIXZ
	?_Copy@?$basic_string@DU?$char_traits@D@std@@V?$allocator@D@2@@std@@QAEXII@Z
	?_Eos@?$basic_string@DU?$char_traits@D@std@@V?$allocator@D@2@@std@@QAEXI@Z
	?_Grow@?$basic_string@DU?$char_traits@D@std@@V?$allocator@D@2@@std@@QAE_NI_N@Z
	?_Inside@?$basic_string@DU?$char_traits@D@std@@V?$allocator@D@2@@std@@QAE_NPBD@Z
	?_Tidy@?$basic_string@DU?$char_traits@D@std@@V?$allocator@D@2@@std@@QAEX_NI@Z
	?_Xlen@?$basic_string@DU?$char_traits@D@std@@V?$allocator@D@2@@std@@QBEXXZ
	?_Xran@?$basic_string@DU?$char_traits@D@std@@V?$allocator@D@2@@std@@QBEXXZ
	?generic_category@std@@YAABVerror_category@1@XZ
	?system_category@std@@YAABVerror_category@1@XZ
	??0error_category@std@@QAE@XZ
	??1error_category@std@@UAE@XZ
	?default_error_condition@error_category@std@@UBE?AVerror_condition@2@H@Z
	?equivalent@error_category@std@@UBE_NHABVerror_condition@2@@Z
	?equivalent@error_category@std@@UBE_NABVerror_code@2@H@Z
	??8error_category@std@@QBE_NABV01@@Z
	?value@error_code@std@@QBEHXZ
	?category@error_code@std@@QBEABVerror_category@2@XZ
	??0error_condition@std@@QAE@HABVerror_category@1@@Z
	?value@error_condition@std@@QBEHXZ
	?category@error_condition@std@@QBEABVerror_category@2@XZ
	??8error_condition@std@@QBE_NABV01@@Z
	??0_Generic_error_category@std@@QAE@XZ
	?name@_Generic_error_category@std@@UBEPBDXZ
	?message@_Generic_error_category@std@@UBE?AV?$basic_string@DU?$char_traits@D@std@@V?$allocator@D@2@@2@H@Z
	??1_Generic_error_category@std@@UAE@XZ
	??0_Iostream_error_category@std@@QAE@XZ
	?name@_Iostream_error_category@std@@UBEPBDXZ
	?message@_Iostream_error_category@std@@UBE?AV?$basic_string@DU?$char_traits@D@std@@V?$allocator@D@2@@2@H@Z
	??1_Iostream_error_category@std@@UAE@XZ
	??0_System_error_category@std@@QAE@XZ
	?name@_System_error_category@std@@UBEPBDXZ
	?message@_System_error_category@std@@UBE?AV?$basic_string@DU?$char_traits@D@std@@V?$allocator@D@2@@2@H@Z
	?default_error_condition@_System_error_category@std@@UBE?AVerror_condition@2@H@Z
	??1_System_error_category@std@@UAE@XZ
	?nrow@VtMatrix@MATRIX@@QBEIXZ
	?size@VtMatrix@MATRIX@@QBEHXZ
	?Dfactir1@@YAXPAHPAN00010@Z
	?Dfact1@@YAXPAHPAN01010@Z
	?Dfinv1@@YAXPAHPAN000@Z
	?Dinv1@@YAXPAHPAN010@Z
	??0VtSqMatrix@MATRIX@@QAE@ABV01@@Z
	??1VtSqMatrix@MATRIX@@UAE@XZ
	?VtDinv@VtSqMatrix@MATRIX@@QAE_NH@Z
	?dinv@VtSqMatrix@MATRIX@@QBE?BV12@H@Z
	?det@VtSqMatrix@MATRIX@@UBENXZ
	??DVtSqMatrix@MATRIX@@UAE?BVVtMatrix@1@ABV21@@Z
	??DVtSqMatrix@MATRIX@@QBE?BVVtVector@1@ABV21@@Z
	?IsA@VtSqMatrix@MATRIX@@UBEPAVTClass@@XZ
	??$?6U?$char_traits@D@std@@@std@@YAAAV?$basic_ostream@DU?$char_traits@D@std@@@0@AAV10@PBD@Z
	??$endl@DU?$char_traits@D@std@@@std@@YAAAV?$basic_ostream@DU?$char_traits@D@std@@@0@AAV10@@Z
	??$construct@PADAAPAD@?$_Wrap_alloc@V?$allocator@D@std@@@std@@QAEXPAPADAAPAD@Z
	??$destroy@PAD@?$_Wrap_alloc@V?$allocator@D@std@@@std@@QAEXPAPAD@Z
	??$addressof@D@std@@YAPADAAD@Z
	??0_Sentry_base@?$basic_ostream@DU?$char_traits@D@std@@@std@@QAE@AAV12@@Z
	??1_Sentry_base@?$basic_ostream@DU?$char_traits@D@std@@@std@@QAE@XZ
	??0sentry@?$basic_ostream@DU?$char_traits@D@std@@@std@@QAE@AAV12@@Z
	??1sentry@?$basic_ostream@DU?$char_traits@D@std@@@std@@QAE@XZ
	??Bsentry@?$basic_ostream@DU?$char_traits@D@std@@@std@@QBE_NXZ
	??$_Allocate@D@std@@YAPADIPAD@Z
	??$forward@AAPAD@std@@YAAAPADAAPAD@Z
	??$construct@PADAAPAD@?$allocator_traits@V?$allocator@D@std@@@std@@SAXAAV?$allocator@D@1@PAPADAAPAD@Z
	??$destroy@PAD@?$allocator_traits@V?$allocator@D@std@@@std@@SAXAAV?$allocator@D@1@PAPAD@Z
	??$construct@PADAAPAD@?$allocator@D@std@@QAEXPAPADAAPAD@Z
	??$destroy@PAD@?$allocator@D@std@@QAEXPAPAD@Z
	?_Generic_object@?$_Error_objects@H@std@@2V_Generic_error_category@2@A 	 DATA
	?_Iostream_object@?$_Error_objects@H@std@@2V_Iostream_error_category@2@A 	 DATA
	?_System_object@?$_Error_objects@H@std@@2V_System_error_category@2@A 	 DATA
	?id@?$num_put@DV?$back_insert_iterator@V?$basic_string@DU?$char_traits@D@std@@V?$allocator@D@2@@std@@@std@@@std@@2V0locale@2@A 	 DATA
	?id@?$num_put@_WV?$back_insert_iterator@V?$basic_string@_WU?$char_traits@_W@std@@V?$allocator@_W@2@@std@@@std@@@std@@2V0locale@2@A 	 DATA
	??_R0?AVerror_category@std@@@8 	 DATA
	??_R0?AV_Generic_error_category@std@@@8 	 DATA
	??_R0?AV_Iostream_error_category@std@@@8 	 DATA
	??_R0?AV_System_error_category@std@@@8 	 DATA
	??_R0?AVVtSqMatrix@MATRIX@@@8 	 DATA
	??_R0?AVVtMatrix@MATRIX@@@8 	 DATA
	hypot
	??2@YAPAXIPAX@Z
	??3@YAXPAX0@Z
	?length@?$char_traits@D@std@@SAIPBD@Z
	?copy@?$char_traits@D@std@@SAPADPADPBDI@Z
	?move@?$char_traits@D@std@@SAPADPADPBDI@Z
	?assign@?$char_traits@D@std@@SAXAADABD@Z
	??0?$allocator@D@std@@QAE@XZ
	?deallocate@?$allocator@D@std@@QAEXPADI@Z
	?allocate@?$allocator@D@std@@QAEPADI@Z
	?max_size@?$allocator@D@std@@QBEIXZ
	?max_size@?$allocator_traits@V?$allocator@D@std@@@std@@SAIABV?$allocator@D@2@@Z
	??0?$_Wrap_alloc@V?$allocator@D@std@@@std@@QAE@XZ
	?allocate@?$_Wrap_alloc@V?$allocator@D@std@@@std@@QAEPADI@Z
	?deallocate@?$_Wrap_alloc@V?$allocator@D@std@@@std@@QAEXPADI@Z
	?max_size@?$_Wrap_alloc@V?$allocator@D@std@@@std@@QBEIXZ
	??0?$_String_val@U?$_Simple_types@D@std@@@std@@QAE@XZ
	?_Myptr@?$_String_val@U?$_Simple_types@D@std@@@std@@QAEPADXZ
	?_Myptr@?$_String_val@U?$_Simple_types@D@std@@@std@@QBEPBDXZ
	??0?$_String_alloc@$0A@U?$_String_base_types@DV?$allocator@D@std@@@std@@@std@@QAE@ABV?$allocator@D@1@@Z
	?_Getal@?$_String_alloc@$0A@U?$_String_base_types@DV?$allocator@D@std@@@std@@@std@@QBE?AU?$_Wrap_alloc@V?$allocator@D@std@@@2@XZ
	??0?$basic_string@DU?$char_traits@D@std@@V?$allocator@D@2@@std@@QAE@PBD@Z
	??1?$basic_string@DU?$char_traits@D@std@@V?$allocator@D@2@@std@@QAE@XZ
	?assign@?$basic_string@DU?$char_traits@D@std@@V?$allocator@D@2@@std@@QAEAAV12@ABV12@II@Z
	?assign@?$basic_string@DU?$char_traits@D@std@@V?$allocator@D@2@@std@@QAEAAV12@PBDI@Z
	?assign@?$basic_string@DU?$char_traits@D@std@@V?$allocator@D@2@@std@@QAEAAV12@PBD@Z
	?erase@?$basic_string@DU?$char_traits@D@std@@V?$allocator@D@2@@std@@QAEAAV12@I@Z
	?erase@?$basic_string@DU?$char_traits@D@std@@V?$allocator@D@2@@std@@QAEAAV12@II@Z
	?size@?$basic_string@DU?$char_traits@D@std@@V?$allocator@D@2@@std@@QBEIXZ
	?max_size@?$basic_string@DU?$char_traits@D@std@@V?$allocator@D@2@@std@@QBEIXZ
	?_Copy@?$basic_string@DU?$char_traits@D@std@@V?$allocator@D@2@@std@@QAEXII@Z
	?_Eos@?$basic_string@DU?$char_traits@D@std@@V?$allocator@D@2@@std@@QAEXI@Z
	?_Grow@?$basic_string@DU?$char_traits@D@std@@V?$allocator@D@2@@std@@QAE_NI_N@Z
	?_Inside@?$basic_string@DU?$char_traits@D@std@@V?$allocator@D@2@@std@@QAE_NPBD@Z
	?_Tidy@?$basic_string@DU?$char_traits@D@std@@V?$allocator@D@2@@std@@QAEX_NI@Z
	?_Xlen@?$basic_string@DU?$char_traits@D@std@@V?$allocator@D@2@@std@@QBEXXZ
	?_Xran@?$basic_string@DU?$char_traits@D@std@@V?$allocator@D@2@@std@@QBEXXZ
	?generic_category@std@@YAABVerror_category@1@XZ
	?system_category@std@@YAABVerror_category@1@XZ
	??0error_category@std@@QAE@XZ
	??1error_category@std@@UAE@XZ
	?default_error_condition@error_category@std@@UBE?AVerror_condition@2@H@Z
	?equivalent@error_category@std@@UBE_NHABVerror_condition@2@@Z
	?equivalent@error_category@std@@UBE_NABVerror_code@2@H@Z
	??8error_category@std@@QBE_NABV01@@Z
	?value@error_code@std@@QBEHXZ
	?category@error_code@std@@QBEABVerror_category@2@XZ
	??0error_condition@std@@QAE@HABVerror_category@1@@Z
	?value@error_condition@std@@QBEHXZ
	?category@error_condition@std@@QBEABVerror_category@2@XZ
	??8error_condition@std@@QBE_NABV01@@Z
	??0_Generic_error_category@std@@QAE@XZ
	?name@_Generic_error_category@std@@UBEPBDXZ
	?message@_Generic_error_category@std@@UBE?AV?$basic_string@DU?$char_traits@D@std@@V?$allocator@D@2@@2@H@Z
	??1_Generic_error_category@std@@UAE@XZ
	??0_Iostream_error_category@std@@QAE@XZ
	?name@_Iostream_error_category@std@@UBEPBDXZ
	?message@_Iostream_error_category@std@@UBE?AV?$basic_string@DU?$char_traits@D@std@@V?$allocator@D@2@@2@H@Z
	??1_Iostream_error_category@std@@UAE@XZ
	??0_System_error_category@std@@QAE@XZ
	?name@_System_error_category@std@@UBEPBDXZ
	?message@_System_error_category@std@@UBE?AV?$basic_string@DU?$char_traits@D@std@@V?$allocator@D@2@@2@H@Z
	?default_error_condition@_System_error_category@std@@UBE?AVerror_condition@2@H@Z
	??1_System_error_category@std@@UAE@XZ
	?nrow@VtMatrix@MATRIX@@QBEIXZ
	?ncol@VtMatrix@MATRIX@@QBEIXZ
	?size@VtMatrix@MATRIX@@QBEHXZ
	?get@VtMatrix@MATRIX@@QBENII@Z
	?get@VtMatrix@MATRIX@@QAEAANII@Z
	??0VtSqMatrix@MATRIX@@QAE@H@Z
	??0VtSqMatrix@MATRIX@@QAE@ABVVtMatrix@1@@Z
	?IsA@VtSqMatrix@MATRIX@@UBEPAVTClass@@XZ
	?Dsinv1@@YAXPAHPAN00@Z
	?Dsfact1@@YAXPAHPAN0010@Z
	??0VtSymMatrix@MATRIX@@QAE@I@Z
	??0VtSymMatrix@MATRIX@@QAE@IN@Z
	??0VtSymMatrix@MATRIX@@QAE@ABV01@@Z
	??1VtSymMatrix@MATRIX@@UAE@XZ
	?invert@VtSymMatrix@MATRIX@@QAE_N_N@Z
	?VtDsinv@VtSymMatrix@MATRIX@@QAE_NH@Z
	?dsinv@VtSymMatrix@MATRIX@@QBE?BV12@H@Z
	?det@VtSymMatrix@MATRIX@@UBENXZ
	?product@VtSymMatrix@MATRIX@@QBENABVVtVector@2@I@Z
	?product@VtSymMatrix@MATRIX@@QBE?BV12@ABVVtMatrix@2@@Z
	?place_at@VtSymMatrix@MATRIX@@UAEXABVVtMatrix@2@II@Z
	?copy@VtSymMatrix@MATRIX@@QAEXABV12@@Z
	??4VtSymMatrix@MATRIX@@QAEABV01@ABV01@@Z
	??YVtSymMatrix@MATRIX@@UAEABV01@N@Z
	??ZVtSymMatrix@MATRIX@@UAEABV01@N@Z
	??XVtSymMatrix@MATRIX@@UAEABV01@N@Z
	??_0VtSymMatrix@MATRIX@@UAEABV01@N@Z
	??YVtSymMatrix@MATRIX@@QAEABV01@ABV01@@Z
	??ZVtSymMatrix@MATRIX@@QAEABV01@ABV01@@Z
	??HVtSymMatrix@MATRIX@@QBE?BV01@ABV01@@Z
	??HVtSymMatrix@MATRIX@@QBE?BVVtSqMatrix@1@ABV21@@Z
	??HVtSymMatrix@MATRIX@@QBE?BVVtMatrix@1@ABV21@@Z
	??GVtSymMatrix@MATRIX@@QBE?BV01@ABV01@@Z
	??GVtSymMatrix@MATRIX@@QBE?BV01@XZ
	??GVtSymMatrix@MATRIX@@QBE?BVVtSqMatrix@1@ABV21@@Z
	??GVtSymMatrix@MATRIX@@QBE?BVVtMatrix@1@ABV21@@Z
	??DVtSymMatrix@MATRIX@@QBE?BVVtSqMatrix@1@ABV01@@Z
	??DVtSymMatrix@MATRIX@@QBE?BVVtSqMatrix@1@ABV21@@Z
	??DVtSymMatrix@MATRIX@@QBE?BVVtMatrix@1@ABV21@@Z
	??DVtSymMatrix@MATRIX@@QBE?BVVtVector@1@ABV21@@Z
	?print@VtSymMatrix@MATRIX@@UBEXAAV?$basic_ostream@DU?$char_traits@D@std@@@std@@@Z
	?VtAssert@VtSymMatrix@MATRIX@@AAEXXZ
	?IsA@VtSymMatrix@MATRIX@@UBEPAVTClass@@XZ
	??AVtVector@MATRIX@@QBENI@Z
	?nrow@VtVector@MATRIX@@QBEIXZ
	??$construct@PADAAPAD@?$_Wrap_alloc@V?$allocator@D@std@@@std@@QAEXPAPADAAPAD@Z
	??$destroy@PAD@?$_Wrap_alloc@V?$allocator@D@std@@@std@@QAEXPAPAD@Z
	??$addressof@D@std@@YAPADAAD@Z
	??$_Allocate@D@std@@YAPADIPAD@Z
	??$forward@AAPAD@std@@YAAAPADAAPAD@Z
	??$construct@PADAAPAD@?$allocator_traits@V?$allocator@D@std@@@std@@SAXAAV?$allocator@D@1@PAPADAAPAD@Z
	??$destroy@PAD@?$allocator_traits@V?$allocator@D@std@@@std@@SAXAAV?$allocator@D@1@PAPAD@Z
	??$construct@PADAAPAD@?$allocator@D@std@@QAEXPAPADAAPAD@Z
	??$destroy@PAD@?$allocator@D@std@@QAEXPAPAD@Z
	?_Generic_object@?$_Error_objects@H@std@@2V_Generic_error_category@2@A 	 DATA
	?_Iostream_object@?$_Error_objects@H@std@@2V_Iostream_error_category@2@A 	 DATA
	?_System_object@?$_Error_objects@H@std@@2V_System_error_category@2@A 	 DATA
	?id@?$num_put@DV?$back_insert_iterator@V?$basic_string@DU?$char_traits@D@std@@V?$allocator@D@2@@std@@@std@@@std@@2V0locale@2@A 	 DATA
	?id@?$num_put@_WV?$back_insert_iterator@V?$basic_string@_WU?$char_traits@_W@std@@V?$allocator@_W@2@@std@@@std@@@std@@2V0locale@2@A 	 DATA
	??_R0?AVerror_category@std@@@8 	 DATA
	??_R0?AV_Generic_error_category@std@@@8 	 DATA
	??_R0?AV_Iostream_error_category@std@@@8 	 DATA
	??_R0?AV_System_error_category@std@@@8 	 DATA
	??_R0?AVVtSqMatrix@MATRIX@@@8 	 DATA
	??_R0?AVVtMatrix@MATRIX@@@8 	 DATA
	??_R0?AVVtSymMatrix@MATRIX@@@8 	 DATA
	hypot
	??2@YAPAXIPAX@Z
	??3@YAXPAX0@Z
	?length@?$char_traits@D@std@@SAIPBD@Z
	?copy@?$char_traits@D@std@@SAPADPADPBDI@Z
	?move@?$char_traits@D@std@@SAPADPADPBDI@Z
	?assign@?$char_traits@D@std@@SAXAADABD@Z
	??0?$allocator@D@std@@QAE@XZ
	?deallocate@?$allocator@D@std@@QAEXPADI@Z
	?allocate@?$allocator@D@std@@QAEPADI@Z
	?max_size@?$allocator@D@std@@QBEIXZ
	?max_size@?$allocator_traits@V?$allocator@D@std@@@std@@SAIABV?$allocator@D@2@@Z
	??0?$_Wrap_alloc@V?$allocator@D@std@@@std@@QAE@XZ
	?allocate@?$_Wrap_alloc@V?$allocator@D@std@@@std@@QAEPADI@Z
	?deallocate@?$_Wrap_alloc@V?$allocator@D@std@@@std@@QAEXPADI@Z
	?max_size@?$_Wrap_alloc@V?$allocator@D@std@@@std@@QBEIXZ
	??0?$_String_val@U?$_Simple_types@D@std@@@std@@QAE@XZ
	?_Myptr@?$_String_val@U?$_Simple_types@D@std@@@std@@QAEPADXZ
	?_Myptr@?$_String_val@U?$_Simple_types@D@std@@@std@@QBEPBDXZ
	??0?$_String_alloc@$0A@U?$_String_base_types@DV?$allocator@D@std@@@std@@@std@@QAE@ABV?$allocator@D@1@@Z
	?_Getal@?$_String_alloc@$0A@U?$_String_base_types@DV?$allocator@D@std@@@std@@@std@@QBE?AU?$_Wrap_alloc@V?$allocator@D@std@@@2@XZ
	??0?$basic_string@DU?$char_traits@D@std@@V?$allocator@D@2@@std@@QAE@PBD@Z
	??1?$basic_string@DU?$char_traits@D@std@@V?$allocator@D@2@@std@@QAE@XZ
	?assign@?$basic_string@DU?$char_traits@D@std@@V?$allocator@D@2@@std@@QAEAAV12@ABV12@II@Z
	?assign@?$basic_string@DU?$char_traits@D@std@@V?$allocator@D@2@@std@@QAEAAV12@PBDI@Z
	?assign@?$basic_string@DU?$char_traits@D@std@@V?$allocator@D@2@@std@@QAEAAV12@PBD@Z
	?erase@?$basic_string@DU?$char_traits@D@std@@V?$allocator@D@2@@std@@QAEAAV12@I@Z
	?erase@?$basic_string@DU?$char_traits@D@std@@V?$allocator@D@2@@std@@QAEAAV12@II@Z
	?size@?$basic_string@DU?$char_traits@D@std@@V?$allocator@D@2@@std@@QBEIXZ
	?max_size@?$basic_string@DU?$char_traits@D@std@@V?$allocator@D@2@@std@@QBEIXZ
	?_Copy@?$basic_string@DU?$char_traits@D@std@@V?$allocator@D@2@@std@@QAEXII@Z
	?_Eos@?$basic_string@DU?$char_traits@D@std@@V?$allocator@D@2@@std@@QAEXI@Z
	?_Grow@?$basic_string@DU?$char_traits@D@std@@V?$allocator@D@2@@std@@QAE_NI_N@Z
	?_Inside@?$basic_string@DU?$char_traits@D@std@@V?$allocator@D@2@@std@@QAE_NPBD@Z
	?_Tidy@?$basic_string@DU?$char_traits@D@std@@V?$allocator@D@2@@std@@QAEX_NI@Z
	?_Xlen@?$basic_string@DU?$char_traits@D@std@@V?$allocator@D@2@@std@@QBEXXZ
	?_Xran@?$basic_string@DU?$char_traits@D@std@@V?$allocator@D@2@@std@@QBEXXZ
	?generic_category@std@@YAABVerror_category@1@XZ
	?system_category@std@@YAABVerror_category@1@XZ
	??0error_category@std@@QAE@XZ
	??1error_category@std@@UAE@XZ
	?default_error_condition@error_category@std@@UBE?AVerror_condition@2@H@Z
	?equivalent@error_category@std@@UBE_NHABVerror_condition@2@@Z
	?equivalent@error_category@std@@UBE_NABVerror_code@2@H@Z
	??8error_category@std@@QBE_NABV01@@Z
	?value@error_code@std@@QBEHXZ
	?category@error_code@std@@QBEABVerror_category@2@XZ
	??0error_condition@std@@QAE@HABVerror_category@1@@Z
	?value@error_condition@std@@QBEHXZ
	?category@error_condition@std@@QBEABVerror_category@2@XZ
	??8error_condition@std@@QBE_NABV01@@Z
	??0_Generic_error_category@std@@QAE@XZ
	?name@_Generic_error_category@std@@UBEPBDXZ
	?message@_Generic_error_category@std@@UBE?AV?$basic_string@DU?$char_traits@D@std@@V?$allocator@D@2@@2@H@Z
	??1_Generic_error_category@std@@UAE@XZ
	??0_Iostream_error_category@std@@QAE@XZ
	?name@_Iostream_error_category@std@@UBEPBDXZ
	?message@_Iostream_error_category@std@@UBE?AV?$basic_string@DU?$char_traits@D@std@@V?$allocator@D@2@@2@H@Z
	??1_Iostream_error_category@std@@UAE@XZ
	??0_System_error_category@std@@QAE@XZ
	?name@_System_error_category@std@@UBEPBDXZ
	?message@_System_error_category@std@@UBE?AV?$basic_string@DU?$char_traits@D@std@@V?$allocator@D@2@@2@H@Z
	?default_error_condition@_System_error_category@std@@UBE?AVerror_condition@2@H@Z
	??1_System_error_category@std@@UAE@XZ
	??0VtSqMatrix@MATRIX@@QAE@H@Z
	?IsA@VtSqMatrix@MATRIX@@UBEPAVTClass@@XZ
	??0VtSymMatrix@MATRIX@@QAE@I@Z
	?IsA@VtSymMatrix@MATRIX@@UBEPAVTClass@@XZ
	??0CMatrix@MATRIX@@QAE@ABV01@@Z
	??0CMatrix@MATRIX@@QAE@ABV?$SMatrix@N$04$04@@@Z
	?x@CMatrix@MATRIX@@QBENXZ
	?x_y@CMatrix@MATRIX@@QBENXZ
	?x_tx@CMatrix@MATRIX@@QBENXZ
	?x_ty@CMatrix@MATRIX@@QBENXZ
	?x_p@CMatrix@MATRIX@@QBENXZ
	?y@CMatrix@MATRIX@@QBENXZ
	?y_tx@CMatrix@MATRIX@@QBENXZ
	?y_ty@CMatrix@MATRIX@@QBENXZ
	?y_p@CMatrix@MATRIX@@QBENXZ
	?tx@CMatrix@MATRIX@@QBENXZ
	?tx_ty@CMatrix@MATRIX@@QBENXZ
	?tx_p@CMatrix@MATRIX@@QBENXZ
	?ty@CMatrix@MATRIX@@QBENXZ
	?ty_p@CMatrix@MATRIX@@QBENXZ
	?set_x@CMatrix@MATRIX@@QAEXN@Z
	?set_x_y@CMatrix@MATRIX@@QAEXN@Z
	?set_x_tx@CMatrix@MATRIX@@QAEXN@Z
	?set_x_ty@CMatrix@MATRIX@@QAEXN@Z
	?set_x_p@CMatrix@MATRIX@@QAEXN@Z
	?set_y@CMatrix@MATRIX@@QAEXN@Z
	?set_y_tx@CMatrix@MATRIX@@QAEXN@Z
	?set_y_ty@CMatrix@MATRIX@@QAEXN@Z
	?set_y_p@CMatrix@MATRIX@@QAEXN@Z
	?set_tx@CMatrix@MATRIX@@QAEXN@Z
	?set_tx_ty@CMatrix@MATRIX@@QAEXN@Z
	?set_tx_p@CMatrix@MATRIX@@QAEXN@Z
	?set_ty@CMatrix@MATRIX@@QAEXN@Z
	?set_ty_p@CMatrix@MATRIX@@QAEXN@Z
	?set_p@CMatrix@MATRIX@@QAEXN@Z
	?x_prop@CMatrix@MATRIX@@QBENN@Z
	?x_y_prop@CMatrix@MATRIX@@QBENN@Z
	?x_tx_prop@CMatrix@MATRIX@@QBENN@Z
	?x_ty_prop@CMatrix@MATRIX@@QBENN@Z
	?x_p_prop@CMatrix@MATRIX@@QBENN@Z
	?y_prop@CMatrix@MATRIX@@QBENN@Z
	?y_tx_prop@CMatrix@MATRIX@@QBENN@Z
	?y_ty_prop@CMatrix@MATRIX@@QBENN@Z
	?y_p_prop@CMatrix@MATRIX@@QBENN@Z
	?propagate@CMatrix@MATRIX@@QAEXN@Z
	?IsA@CMatrix@MATRIX@@UBEPAVTClass@@XZ
	??1CMatrix@MATRIX@@UAE@XZ
	??R?$SMatrix@N$04$04@@QBEABNII@Z
	??$construct@PADAAPAD@?$_Wrap_alloc@V?$allocator@D@std@@@std@@QAEXPAPADAAPAD@Z
	??$destroy@PAD@?$_Wrap_alloc@V?$allocator@D@std@@@std@@QAEXPAPAD@Z
	??$addressof@D@std@@YAPADAAD@Z
	??$_Allocate@D@std@@YAPADIPAD@Z
	??$forward@AAPAD@std@@YAAAPADAAPAD@Z
	??$construct@PADAAPAD@?$allocator_traits@V?$allocator@D@std@@@std@@SAXAAV?$allocator@D@1@PAPADAAPAD@Z
	??$destroy@PAD@?$allocator_traits@V?$allocator@D@std@@@std@@SAXAAV?$allocator@D@1@PAPAD@Z
	??$construct@PADAAPAD@?$allocator@D@std@@QAEXPAPADAAPAD@Z
	??$destroy@PAD@?$allocator@D@std@@QAEXPAPAD@Z
	?_Generic_object@?$_Error_objects@H@std@@2V_Generic_error_category@2@A 	 DATA
	?_Iostream_object@?$_Error_objects@H@std@@2V_Iostream_error_category@2@A 	 DATA
	?_System_object@?$_Error_objects@H@std@@2V_System_error_category@2@A 	 DATA
	?id@?$num_put@DV?$back_insert_iterator@V?$basic_string@DU?$char_traits@D@std@@V?$allocator@D@2@@std@@@std@@@std@@2V0locale@2@A 	 DATA
	?id@?$num_put@_WV?$back_insert_iterator@V?$basic_string@_WU?$char_traits@_W@std@@V?$allocator@_W@2@@std@@@std@@@std@@2V0locale@2@A 	 DATA
	??_R0?AVerror_category@std@@@8 	 DATA
	??_R0?AV_Generic_error_category@std@@@8 	 DATA
	??_R0?AV_Iostream_error_category@std@@@8 	 DATA
	??_R0?AV_System_error_category@std@@@8 	 DATA
	??_R0?AVVtSqMatrix@MATRIX@@@8 	 DATA
	??_R0?AVVtMatrix@MATRIX@@@8 	 DATA
	??_R0?AVVtSymMatrix@MATRIX@@@8 	 DATA
	??_R0?AVCMatrix@MATRIX@@@8 	 DATA
	?Version@VtIni@VERTEX@@0PBDB 	 DATA
	?Name@VtIni@VERTEX@@0PBDB 	 DATA
	?Date@VtIni@VERTEX@@0PBDB 	 DATA
	?Debug@VtIni@VERTEX@@0_NA 	 DATA
	?length@?$char_traits@D@std@@SAIPBD@Z
	?copy@?$char_traits@D@std@@SAPADPADPBDI@Z
	?move@?$char_traits@D@std@@SAPADPADPBDI@Z
	?assign@?$char_traits@D@std@@SAXAADABD@Z
	?eq_int_type@?$char_traits@D@std@@SA_NABH0@Z
	?eof@?$char_traits@D@std@@SAHXZ
	??0VtIni@VERTEX@@QAE@XZ
	?version@VtIni@VERTEX@@SAQBDXZ
	?name@VtIni@VERTEX@@SAQBDXZ
	?date@VtIni@VERTEX@@SAQBDXZ
	?debug@VtIni@VERTEX@@SA?B_NXZ
	?print@VtIni@VERTEX@@QBEXAAV?$basic_ostream@DU?$char_traits@D@std@@@std@@@Z
	??0initializer@VtIni@VERTEX@@QAE@XZ
	hypot
	??2@YAPAXIPAX@Z
	??3@YAXPAX0@Z
	??0?$allocator@D@std@@QAE@XZ
	?deallocate@?$allocator@D@std@@QAEXPADI@Z
	?allocate@?$allocator@D@std@@QAEPADI@Z
	?max_size@?$allocator@D@std@@QBEIXZ
	?max_size@?$allocator_traits@V?$allocator@D@std@@@std@@SAIABV?$allocator@D@2@@Z
	??0?$_Wrap_alloc@V?$allocator@D@std@@@std@@QAE@XZ
	?allocate@?$_Wrap_alloc@V?$allocator@D@std@@@std@@QAEPADI@Z
	?deallocate@?$_Wrap_alloc@V?$allocator@D@std@@@std@@QAEXPADI@Z
	?max_size@?$_Wrap_alloc@V?$allocator@D@std@@@std@@QBEIXZ
	??0?$_String_val@U?$_Simple_types@D@std@@@std@@QAE@XZ
	?_Myptr@?$_String_val@U?$_Simple_types@D@std@@@std@@QAEPADXZ
	?_Myptr@?$_String_val@U?$_Simple_types@D@std@@@std@@QBEPBDXZ
	??0?$_String_alloc@$0A@U?$_String_base_types@DV?$allocator@D@std@@@std@@@std@@QAE@ABV?$allocator@D@1@@Z
	?_Getal@?$_String_alloc@$0A@U?$_String_base_types@DV?$allocator@D@std@@@std@@@std@@QBE?AU?$_Wrap_alloc@V?$allocator@D@std@@@2@XZ
	??0?$basic_string@DU?$char_traits@D@std@@V?$allocator@D@2@@std@@QAE@PBD@Z
	??1?$basic_string@DU?$char_traits@D@std@@V?$allocator@D@2@@std@@QAE@XZ
	?assign@?$basic_string@DU?$char_traits@D@std@@V?$allocator@D@2@@std@@QAEAAV12@ABV12@II@Z
	?assign@?$basic_string@DU?$char_traits@D@std@@V?$allocator@D@2@@std@@QAEAAV12@PBDI@Z
	?assign@?$basic_string@DU?$char_traits@D@std@@V?$allocator@D@2@@std@@QAEAAV12@PBD@Z
	?erase@?$basic_string@DU?$char_traits@D@std@@V?$allocator@D@2@@std@@QAEAAV12@I@Z
	?erase@?$basic_string@DU?$char_traits@D@std@@V?$allocator@D@2@@std@@QAEAAV12@II@Z
	?size@?$basic_string@DU?$char_traits@D@std@@V?$allocator@D@2@@std@@QBEIXZ
	?max_size@?$basic_string@DU?$char_traits@D@std@@V?$allocator@D@2@@std@@QBEIXZ
	?_Copy@?$basic_string@DU?$char_traits@D@std@@V?$allocator@D@2@@std@@QAEXII@Z
	?_Eos@?$basic_string@DU?$char_traits@D@std@@V?$allocator@D@2@@std@@QAEXI@Z
	?_Grow@?$basic_string@DU?$char_traits@D@std@@V?$allocator@D@2@@std@@QAE_NI_N@Z
	?_Inside@?$basic_string@DU?$char_traits@D@std@@V?$allocator@D@2@@std@@QAE_NPBD@Z
	?_Tidy@?$basic_string@DU?$char_traits@D@std@@V?$allocator@D@2@@std@@QAEX_NI@Z
	?_Xlen@?$basic_string@DU?$char_traits@D@std@@V?$allocator@D@2@@std@@QBEXXZ
	?_Xran@?$basic_string@DU?$char_traits@D@std@@V?$allocator@D@2@@std@@QBEXXZ
	?generic_category@std@@YAABVerror_category@1@XZ
	?system_category@std@@YAABVerror_category@1@XZ
	??0error_category@std@@QAE@XZ
	??1error_category@std@@UAE@XZ
	?default_error_condition@error_category@std@@UBE?AVerror_condition@2@H@Z
	?equivalent@error_category@std@@UBE_NHABVerror_condition@2@@Z
	?equivalent@error_category@std@@UBE_NABVerror_code@2@H@Z
	??8error_category@std@@QBE_NABV01@@Z
	?value@error_code@std@@QBEHXZ
	?category@error_code@std@@QBEABVerror_category@2@XZ
	??0error_condition@std@@QAE@HABVerror_category@1@@Z
	?value@error_condition@std@@QBEHXZ
	?category@error_condition@std@@QBEABVerror_category@2@XZ
	??8error_condition@std@@QBE_NABV01@@Z
	??0_Generic_error_category@std@@QAE@XZ
	?name@_Generic_error_category@std@@UBEPBDXZ
	?message@_Generic_error_category@std@@UBE?AV?$basic_string@DU?$char_traits@D@std@@V?$allocator@D@2@@2@H@Z
	??1_Generic_error_category@std@@UAE@XZ
	??0_Iostream_error_category@std@@QAE@XZ
	?name@_Iostream_error_category@std@@UBEPBDXZ
	?message@_Iostream_error_category@std@@UBE?AV?$basic_string@DU?$char_traits@D@std@@V?$allocator@D@2@@2@H@Z
	??1_Iostream_error_category@std@@UAE@XZ
	??0_System_error_category@std@@QAE@XZ
	?name@_System_error_category@std@@UBEPBDXZ
	?message@_System_error_category@std@@UBE?AV?$basic_string@DU?$char_traits@D@std@@V?$allocator@D@2@@2@H@Z
	?default_error_condition@_System_error_category@std@@UBE?AVerror_condition@2@H@Z
	??1_System_error_category@std@@UAE@XZ
	??$?6U?$char_traits@D@std@@@std@@YAAAV?$basic_ostream@DU?$char_traits@D@std@@@0@AAV10@PBD@Z
	??$endl@DU?$char_traits@D@std@@@std@@YAAAV?$basic_ostream@DU?$char_traits@D@std@@@0@AAV10@@Z
	??$construct@PADAAPAD@?$_Wrap_alloc@V?$allocator@D@std@@@std@@QAEXPAPADAAPAD@Z
	??$destroy@PAD@?$_Wrap_alloc@V?$allocator@D@std@@@std@@QAEXPAPAD@Z
	??$addressof@D@std@@YAPADAAD@Z
	??0_Sentry_base@?$basic_ostream@DU?$char_traits@D@std@@@std@@QAE@AAV12@@Z
	??1_Sentry_base@?$basic_ostream@DU?$char_traits@D@std@@@std@@QAE@XZ
	??0sentry@?$basic_ostream@DU?$char_traits@D@std@@@std@@QAE@AAV12@@Z
	??1sentry@?$basic_ostream@DU?$char_traits@D@std@@@std@@QAE@XZ
	??Bsentry@?$basic_ostream@DU?$char_traits@D@std@@@std@@QBE_NXZ
	??$_Allocate@D@std@@YAPADIPAD@Z
	??$forward@AAPAD@std@@YAAAPADAAPAD@Z
	??$construct@PADAAPAD@?$allocator_traits@V?$allocator@D@std@@@std@@SAXAAV?$allocator@D@1@PAPADAAPAD@Z
	??$destroy@PAD@?$allocator_traits@V?$allocator@D@std@@@std@@SAXAAV?$allocator@D@1@PAPAD@Z
	??$construct@PADAAPAD@?$allocator@D@std@@QAEXPAPADAAPAD@Z
	??$destroy@PAD@?$allocator@D@std@@QAEXPAPAD@Z
	?doIni@VtIni@VERTEX@@0Vinitializer@12@A 	 DATA
	?_Generic_object@?$_Error_objects@H@std@@2V_Generic_error_category@2@A 	 DATA
	?_Iostream_object@?$_Error_objects@H@std@@2V_Iostream_error_category@2@A 	 DATA
	?_System_object@?$_Error_objects@H@std@@2V_System_error_category@2@A 	 DATA
	??_R0?AVerror_category@std@@@8 	 DATA
	??_R0?AV_Generic_error_category@std@@@8 	 DATA
	??_R0?AV_Iostream_error_category@std@@@8 	 DATA
	??_R0?AV_System_error_category@std@@@8 	 DATA
	hypot
	logf
	?log@@YAMM@Z
	??2@YAPAXIPAX@Z
	??3@YAXPAX0@Z
	?length@?$char_traits@D@std@@SAIPBD@Z
	?copy@?$char_traits@D@std@@SAPADPADPBDI@Z
	?move@?$char_traits@D@std@@SAPADPADPBDI@Z
	?assign@?$char_traits@D@std@@SAXAADABD@Z
	?eq_int_type@?$char_traits@D@std@@SA_NABH0@Z
	?eof@?$char_traits@D@std@@SAHXZ
	??0?$allocator@D@std@@QAE@XZ
	?deallocate@?$allocator@D@std@@QAEXPADI@Z
	?allocate@?$allocator@D@std@@QAEPADI@Z
	?max_size@?$allocator@D@std@@QBEIXZ
	?max_size@?$allocator_traits@V?$allocator@D@std@@@std@@SAIABV?$allocator@D@2@@Z
	??0?$_Wrap_alloc@V?$allocator@D@std@@@std@@QAE@XZ
	?allocate@?$_Wrap_alloc@V?$allocator@D@std@@@std@@QAEPADI@Z
	?deallocate@?$_Wrap_alloc@V?$allocator@D@std@@@std@@QAEXPADI@Z
	?max_size@?$_Wrap_alloc@V?$allocator@D@std@@@std@@QBEIXZ
	??0?$_String_val@U?$_Simple_types@D@std@@@std@@QAE@XZ
	?_Myptr@?$_String_val@U?$_Simple_types@D@std@@@std@@QAEPADXZ
	?_Myptr@?$_String_val@U?$_Simple_types@D@std@@@std@@QBEPBDXZ
	??0?$_String_alloc@$0A@U?$_String_base_types@DV?$allocator@D@std@@@std@@@std@@QAE@ABV?$allocator@D@1@@Z
	?_Getal@?$_String_alloc@$0A@U?$_String_base_types@DV?$allocator@D@std@@@std@@@std@@QBE?AU?$_Wrap_alloc@V?$allocator@D@std@@@2@XZ
	??0?$basic_string@DU?$char_traits@D@std@@V?$allocator@D@2@@std@@QAE@PBD@Z
	??1?$basic_string@DU?$char_traits@D@std@@V?$allocator@D@2@@std@@QAE@XZ
	?assign@?$basic_string@DU?$char_traits@D@std@@V?$allocator@D@2@@std@@QAEAAV12@ABV12@II@Z
	?assign@?$basic_string@DU?$char_traits@D@std@@V?$allocator@D@2@@std@@QAEAAV12@PBDI@Z
	?assign@?$basic_string@DU?$char_traits@D@std@@V?$allocator@D@2@@std@@QAEAAV12@PBD@Z
	?erase@?$basic_string@DU?$char_traits@D@std@@V?$allocator@D@2@@std@@QAEAAV12@I@Z
	?erase@?$basic_string@DU?$char_traits@D@std@@V?$allocator@D@2@@std@@QAEAAV12@II@Z
	?size@?$basic_string@DU?$char_traits@D@std@@V?$allocator@D@2@@std@@QBEIXZ
	?max_size@?$basic_string@DU?$char_traits@D@std@@V?$allocator@D@2@@std@@QBEIXZ
	?_Copy@?$basic_string@DU?$char_traits@D@std@@V?$allocator@D@2@@std@@QAEXII@Z
	?_Eos@?$basic_string@DU?$char_traits@D@std@@V?$allocator@D@2@@std@@QAEXI@Z
	?_Grow@?$basic_string@DU?$char_traits@D@std@@V?$allocator@D@2@@std@@QAE_NI_N@Z
	?_Inside@?$basic_string@DU?$char_traits@D@std@@V?$allocator@D@2@@std@@QAE_NPBD@Z
	?_Tidy@?$basic_string@DU?$char_traits@D@std@@V?$allocator@D@2@@std@@QAEX_NI@Z
	?_Xlen@?$basic_string@DU?$char_traits@D@std@@V?$allocator@D@2@@std@@QBEXXZ
	?_Xran@?$basic_string@DU?$char_traits@D@std@@V?$allocator@D@2@@std@@QBEXXZ
	?generic_category@std@@YAABVerror_category@1@XZ
	?system_category@std@@YAABVerror_category@1@XZ
	??0error_category@std@@QAE@XZ
	??1error_category@std@@UAE@XZ
	?default_error_condition@error_category@std@@UBE?AVerror_condition@2@H@Z
	?equivalent@error_category@std@@UBE_NHABVerror_condition@2@@Z
	?equivalent@error_category@std@@UBE_NABVerror_code@2@H@Z
	??8error_category@std@@QBE_NABV01@@Z
	?value@error_code@std@@QBEHXZ
	?category@error_code@std@@QBEABVerror_category@2@XZ
	??0error_condition@std@@QAE@HABVerror_category@1@@Z
	?value@error_condition@std@@QBEHXZ
	?category@error_condition@std@@QBEABVerror_category@2@XZ
	??8error_condition@std@@QBE_NABV01@@Z
	??0_Generic_error_category@std@@QAE@XZ
	?name@_Generic_error_category@std@@UBEPBDXZ
	?message@_Generic_error_category@std@@UBE?AV?$basic_string@DU?$char_traits@D@std@@V?$allocator@D@2@@2@H@Z
	??1_Generic_error_category@std@@UAE@XZ
	??0_Iostream_error_category@std@@QAE@XZ
	?name@_Iostream_error_category@std@@UBEPBDXZ
	?message@_Iostream_error_category@std@@UBE?AV?$basic_string@DU?$char_traits@D@std@@V?$allocator@D@2@@2@H@Z
	??1_Iostream_error_category@std@@UAE@XZ
	??0_System_error_category@std@@QAE@XZ
	?name@_System_error_category@std@@UBEPBDXZ
	?message@_System_error_category@std@@UBE?AV?$basic_string@DU?$char_traits@D@std@@V?$allocator@D@2@@2@H@Z
	?default_error_condition@_System_error_category@std@@UBE?AVerror_condition@2@H@Z
	??1_System_error_category@std@@UAE@XZ
	??0VtSqMatrix@MATRIX@@QAE@H@Z
	?IsA@VtSqMatrix@MATRIX@@UBEPAVTClass@@XZ
	??0VtSymMatrix@MATRIX@@QAE@I@Z
	?IsA@VtSymMatrix@MATRIX@@UBEPAVTClass@@XZ
	??6MATRIX@@YAAAV?$basic_ostream@DU?$char_traits@D@std@@@std@@AAV12@ABVVtSymMatrix@0@@Z
	??0CMatrix@MATRIX@@QAE@XZ
	??0CMatrix@MATRIX@@QAE@ABVVtSymMatrix@1@@Z
	?x@CMatrix@MATRIX@@QBENXZ
	?x_tx@CMatrix@MATRIX@@QBENXZ
	?y@CMatrix@MATRIX@@QBENXZ
	?y_ty@CMatrix@MATRIX@@QBENXZ
	?tx@CMatrix@MATRIX@@QBENXZ
	?ty@CMatrix@MATRIX@@QBENXZ
	?p@CMatrix@MATRIX@@QBENXZ
	?set_x_p@CMatrix@MATRIX@@QAEXN@Z
	?set_y_p@CMatrix@MATRIX@@QAEXN@Z
	?set_tx_p@CMatrix@MATRIX@@QAEXN@Z
	?set_ty_p@CMatrix@MATRIX@@QAEXN@Z
	?set_p@CMatrix@MATRIX@@QAEXN@Z
	?x_prop@CMatrix@MATRIX@@QBENN@Z
	?y_prop@CMatrix@MATRIX@@QBENN@Z
	?IsA@CMatrix@MATRIX@@UBEPAVTClass@@XZ
	??1CMatrix@MATRIX@@UAE@XZ
	??4CMatrix@MATRIX@@QAEAAV01@ABV01@@Z
	??AVtVector@MATRIX@@QBENI@Z
	??AVtVector@MATRIX@@QAEAANI@Z
	?Clear@TObject@@UAEXPBD@Z
	?GetOption@TObject@@UBEPBDXZ
	?IsSortable@TObject@@UBE_NXZ
	??0Track@VERTEX@@QAE@XZ
	??0Track@VERTEX@@QAE@QBV01@@Z
	??0Track@VERTEX@@QAE@ABV01@@Z
	??0Track@VERTEX@@QAE@ABVVtVector@MATRIX@@ABVCMatrix@3@@Z
	??1Track@VERTEX@@UAE@XZ
	?set@Track@VERTEX@@QAEXNNNNNNABVCMatrix@MATRIX@@@Z
	??4Track@VERTEX@@QAEAAV01@ABV01@@Z
	?x@Track@VERTEX@@QBEMXZ
	?y@Track@VERTEX@@QBEMXZ
	?x@Track@VERTEX@@QBEMM@Z
	?y@Track@VERTEX@@QBEMM@Z
	?z@Track@VERTEX@@QBEMXZ
	?tx@Track@VERTEX@@QBEMXZ
	?ty@Track@VERTEX@@QBEMXZ
	?p@Track@VERTEX@@QBEMXZ
	?pt@Track@VERTEX@@QBEMXZ
	?pz@Track@VERTEX@@QBEMXZ
	?chi2@Track@VERTEX@@QBEMXZ
	?ndf@Track@VERTEX@@QBEGXZ
	?phi@Track@VERTEX@@QBEMXZ
	?theta@Track@VERTEX@@QBEMXZ
	?eta@Track@VERTEX@@QBEMXZ
	?charge@Track@VERTEX@@QBEHXZ
	?energy@Track@VERTEX@@QBEMN@Z
	?xf@Track@VERTEX@@QBEMN@Z
	?rap@Track@VERTEX@@QBEMN@Z
	?xvec@Track@VERTEX@@QBE?AV?$SVector@N$02@@XZ
	?tvec@Track@VERTEX@@QBE?AV?$SVector@N$02@@XZ
	?evec@Track@VERTEX@@QBE?AV?$SVector@N$02@@XZ
	?pvec@Track@VERTEX@@QBE?AV?$SVector@N$02@@XZ
	?COV@Track@VERTEX@@QBEABV?$SMatrix@N$04$04@@XZ
	?CINV@Track@VERTEX@@QBEABV?$SMatrix@N$04$04@@XZ
	?cov_x@Track@VERTEX@@QBEMN@Z
	?cov_y@Track@VERTEX@@QBEMN@Z
	?cov_tx@Track@VERTEX@@QBEMXZ
	?cov_ty@Track@VERTEX@@QBEMXZ
	?cov_p@Track@VERTEX@@QBEMXZ
	?isValid@Track@VERTEX@@QBE_NXZ
	?valid@Track@VERTEX@@QAEXXZ
	?invalid@Track@VERTEX@@QAEXXZ
	??8Track@VERTEX@@QBE_NABV01@@Z
	?propagate@Track@VERTEX@@QAE_NN@Z
	?px@Track@VERTEX@@QBENXZ
	?py@Track@VERTEX@@QBENXZ
	?ex@Track@VERTEX@@QBENXZ
	?ey@Track@VERTEX@@QBENXZ
	?ez@Track@VERTEX@@QBENXZ
	?V@Track@VERTEX@@QBEABVCMatrix@MATRIX@@XZ
	?G@Track@VERTEX@@QBEABVCMatrix@MATRIX@@XZ
	?GM@Track@VERTEX@@QBEABVCMatrix@MATRIX@@XZ
	?print@Track@VERTEX@@QBEAAV?$basic_ostream@DU?$char_traits@D@std@@@std@@AAV34@@Z
	?delete_mom@Track@VERTEX@@QAEXXZ
	?IsA@Track@VERTEX@@UBEPAVTClass@@XZ
	??$sqr@N@VERTEX@@YA?BNABN@Z
	??0?$SVector@N$02@@QAE@ABN00@Z
	?apply@?$SVector@N$02@@QBENI@Z
	??$mag@N$02@@YANABV?$SVector@N$02@@@Z
	??$?DNN$02@@YA?AV?$Expr@V?$BinaryOp@V?$MulOp@N@@V?$Constant@N@@V?$SVector@N$02@@N@@N$02$0A@@@ABNABV?$SVector@N$02@@@Z
	??0?$Expr@V?$BinaryOp@V?$MulOp@N@@V?$Constant@N@@V?$SVector@N$02@@N@@N$02$0A@@@QAE@ABV?$BinaryOp@V?$MulOp@N@@V?$Constant@N@@V?$SVector@N$02@@N@@@Z
	??1?$Expr@V?$BinaryOp@V?$MulOp@N@@V?$Constant@N@@V?$SVector@N$02@@N@@N$02$0A@@@QAE@XZ
	?apply@?$Expr@V?$BinaryOp@V?$MulOp@N@@V?$Constant@N@@V?$SVector@N$02@@N@@N$02$0A@@@QBENI@Z
	??0?$BinaryOp@V?$MulOp@N@@V?$Constant@N@@V?$SVector@N$02@@N@@QAE@V?$MulOp@N@@ABV?$Constant@N@@ABV?$SVector@N$02@@@Z
	??1?$BinaryOp@V?$MulOp@N@@V?$Constant@N@@V?$SVector@N$02@@N@@QAE@XZ
	?apply@?$BinaryOp@V?$MulOp@N@@V?$Constant@N@@V?$SVector@N$02@@N@@QBENI@Z
	??$?0V?$BinaryOp@V?$MulOp@N@@V?$Constant@N@@V?$SVector@N$02@@N@@@?$SVector@N$02@@QAE@ABV?$Expr@V?$BinaryOp@V?$MulOp@N@@V?$Constant@N@@V?$SVector@N$02@@N@@N$02$0A@@@@Z
	??0?$SMatrix@N$04$04@@QAE@XZ
	??4?$SMatrix@N$04$04@@QAEAAV0@ABN@Z
	??$?6U?$char_traits@D@std@@@std@@YAAAV?$basic_ostream@DU?$char_traits@D@std@@@0@AAV10@PBD@Z
	??$endl@DU?$char_traits@D@std@@@std@@YAAAV?$basic_ostream@DU?$char_traits@D@std@@@0@AAV10@@Z
	??0_Sentry_base@?$basic_ostream@DU?$char_traits@D@std@@@std@@QAE@AAV12@@Z
	??1_Sentry_base@?$basic_ostream@DU?$char_traits@D@std@@@std@@QAE@XZ
	??0sentry@?$basic_ostream@DU?$char_traits@D@std@@@std@@QAE@AAV12@@Z
	??1sentry@?$basic_ostream@DU?$char_traits@D@std@@@std@@QAE@XZ
	??Bsentry@?$basic_ostream@DU?$char_traits@D@std@@@std@@QBE_NXZ
	??$construct@PADAAPAD@?$_Wrap_alloc@V?$allocator@D@std@@@std@@QAEXPAPADAAPAD@Z
	??$destroy@PAD@?$_Wrap_alloc@V?$allocator@D@std@@@std@@QAEXPAPAD@Z
	??$addressof@D@std@@YAPADAAD@Z
	??$_Allocate@D@std@@YAPADIPAD@Z
	??$mag2@N$02@@YANABV?$SVector@N$02@@@Z
	?apply@?$MulOp@N@@SANABN0@Z
	??0?$Constant@N@@QAE@ABN@Z
	??1?$Constant@N@@QAE@XZ
	?apply@?$Constant@N@@QBENI@Z
	??$?4V?$BinaryOp@V?$MulOp@N@@V?$Constant@N@@V?$SVector@N$02@@N@@@?$SVector@N$02@@QAEAAV0@ABV?$Expr@V?$BinaryOp@V?$MulOp@N@@V?$Constant@N@@V?$SVector@N$02@@N@@N$02$0A@@@@Z
	??$forward@AAPAD@std@@YAAAPADAAPAD@Z
	??$construct@PADAAPAD@?$allocator_traits@V?$allocator@D@std@@@std@@SAXAAV?$allocator@D@1@PAPADAAPAD@Z
	??$destroy@PAD@?$allocator_traits@V?$allocator@D@std@@@std@@SAXAAV?$allocator@D@1@PAPAD@Z
	??$f@V?$SVector@N$02@@N@?$meta_mag@$01@@SANABV?$SVector@N$02@@ABN@Z
	??$construct@PADAAPAD@?$allocator@D@std@@QAEXPAPADAAPAD@Z
	??$destroy@PAD@?$allocator@D@std@@QAEXPAPAD@Z
	??$square@N@@YA?BNABN@Z
	??$f@V?$SVector@N$02@@N@?$meta_mag@$00@@SANABV?$SVector@N$02@@ABN@Z
	??$f@V?$SVector@N$02@@N@?$meta_mag@$0A@@@SANABV?$SVector@N$02@@ABN@Z
	?IsA@Track@VERTEX@@WM@BEPAVTClass@@XZ
	?ShowMembers@Track@VERTEX@@WM@AEXAAVTMemberInspector@@@Z
	?Streamer@Track@VERTEX@@WM@AEXAAVTBuffer@@@Z
	?_Generic_object@?$_Error_objects@H@std@@2V_Generic_error_category@2@A 	 DATA
	?_Iostream_object@?$_Error_objects@H@std@@2V_Iostream_error_category@2@A 	 DATA
	?_System_object@?$_Error_objects@H@std@@2V_System_error_category@2@A 	 DATA
	?id@?$num_put@DV?$back_insert_iterator@V?$basic_string@DU?$char_traits@D@std@@V?$allocator@D@2@@std@@@std@@@std@@2V0locale@2@A 	 DATA
	?id@?$num_put@_WV?$back_insert_iterator@V?$basic_string@_WU?$char_traits@_W@std@@V?$allocator@_W@2@@std@@@std@@@std@@2V0locale@2@A 	 DATA
	??_R0?AVerror_category@std@@@8 	 DATA
	??_R0?AV_Generic_error_category@std@@@8 	 DATA
	??_R0?AV_Iostream_error_category@std@@@8 	 DATA
	??_R0?AV_System_error_category@std@@@8 	 DATA
	??_R0?AVTObject@@@8 	 DATA
	??_R0?AVVtSqMatrix@MATRIX@@@8 	 DATA
	??_R0?AVVtMatrix@MATRIX@@@8 	 DATA
	??_R0?AVVtSymMatrix@MATRIX@@@8 	 DATA
	??_R0?AVCMatrix@MATRIX@@@8 	 DATA
	??_R0?AVTrack@VERTEX@@@8 	 DATA
	??_R0?AVRelationList@VERTEX@@@8 	 DATA
	hypot
	??2@YAPAXIPAX@Z
	??3@YAXPAX0@Z
	?length@?$char_traits@D@std@@SAIPBD@Z
	?copy@?$char_traits@D@std@@SAPADPADPBDI@Z
	?move@?$char_traits@D@std@@SAPADPADPBDI@Z
	?assign@?$char_traits@D@std@@SAXAADABD@Z
	?eq_int_type@?$char_traits@D@std@@SA_NABH0@Z
	?eof@?$char_traits@D@std@@SAHXZ
	??0?$allocator@D@std@@QAE@XZ
	?deallocate@?$allocator@D@std@@QAEXPADI@Z
	?allocate@?$allocator@D@std@@QAEPADI@Z
	?max_size@?$allocator@D@std@@QBEIXZ
	?max_size@?$allocator_traits@V?$allocator@D@std@@@std@@SAIABV?$allocator@D@2@@Z
	??0?$_Wrap_alloc@V?$allocator@D@std@@@std@@QAE@XZ
	?allocate@?$_Wrap_alloc@V?$allocator@D@std@@@std@@QAEPADI@Z
	?deallocate@?$_Wrap_alloc@V?$allocator@D@std@@@std@@QAEXPADI@Z
	?max_size@?$_Wrap_alloc@V?$allocator@D@std@@@std@@QBEIXZ
	??0?$_String_val@U?$_Simple_types@D@std@@@std@@QAE@XZ
	?_Myptr@?$_String_val@U?$_Simple_types@D@std@@@std@@QAEPADXZ
	?_Myptr@?$_String_val@U?$_Simple_types@D@std@@@std@@QBEPBDXZ
	??0?$_String_alloc@$0A@U?$_String_base_types@DV?$allocator@D@std@@@std@@@std@@QAE@ABV?$allocator@D@1@@Z
	?_Getal@?$_String_alloc@$0A@U?$_String_base_types@DV?$allocator@D@std@@@std@@@std@@QBE?AU?$_Wrap_alloc@V?$allocator@D@std@@@2@XZ
	??0?$basic_string@DU?$char_traits@D@std@@V?$allocator@D@2@@std@@QAE@PBD@Z
	??1?$basic_string@DU?$char_traits@D@std@@V?$allocator@D@2@@std@@QAE@XZ
	?assign@?$basic_string@DU?$char_traits@D@std@@V?$allocator@D@2@@std@@QAEAAV12@ABV12@II@Z
	?assign@?$basic_string@DU?$char_traits@D@std@@V?$allocator@D@2@@std@@QAEAAV12@PBDI@Z
	?assign@?$basic_string@DU?$char_traits@D@std@@V?$allocator@D@2@@std@@QAEAAV12@PBD@Z
	?erase@?$basic_string@DU?$char_traits@D@std@@V?$allocator@D@2@@std@@QAEAAV12@I@Z
	?erase@?$basic_string@DU?$char_traits@D@std@@V?$allocator@D@2@@std@@QAEAAV12@II@Z
	?size@?$basic_string@DU?$char_traits@D@std@@V?$allocator@D@2@@std@@QBEIXZ
	?max_size@?$basic_string@DU?$char_traits@D@std@@V?$allocator@D@2@@std@@QBEIXZ
	?_Copy@?$basic_string@DU?$char_traits@D@std@@V?$allocator@D@2@@std@@QAEXII@Z
	?_Eos@?$basic_string@DU?$char_traits@D@std@@V?$allocator@D@2@@std@@QAEXI@Z
	?_Grow@?$basic_string@DU?$char_traits@D@std@@V?$allocator@D@2@@std@@QAE_NI_N@Z
	?_Inside@?$basic_string@DU?$char_traits@D@std@@V?$allocator@D@2@@std@@QAE_NPBD@Z
	?_Tidy@?$basic_string@DU?$char_traits@D@std@@V?$allocator@D@2@@std@@QAEX_NI@Z
	?_Xlen@?$basic_string@DU?$char_traits@D@std@@V?$allocator@D@2@@std@@QBEXXZ
	?_Xran@?$basic_string@DU?$char_traits@D@std@@V?$allocator@D@2@@std@@QBEXXZ
	?generic_category@std@@YAABVerror_category@1@XZ
	?system_category@std@@YAABVerror_category@1@XZ
	??0error_category@std@@QAE@XZ
	??1error_category@std@@UAE@XZ
	?default_error_condition@error_category@std@@UBE?AVerror_condition@2@H@Z
	?equivalent@error_category@std@@UBE_NHABVerror_condition@2@@Z
	?equivalent@error_category@std@@UBE_NABVerror_code@2@H@Z
	??8error_category@std@@QBE_NABV01@@Z
	?value@error_code@std@@QBEHXZ
	?category@error_code@std@@QBEABVerror_category@2@XZ
	??0error_condition@std@@QAE@HABVerror_category@1@@Z
	?value@error_condition@std@@QBEHXZ
	?category@error_condition@std@@QBEABVerror_category@2@XZ
	??8error_condition@std@@QBE_NABV01@@Z
	??0_Generic_error_category@std@@QAE@XZ
	?name@_Generic_error_category@std@@UBEPBDXZ
	?message@_Generic_error_category@std@@UBE?AV?$basic_string@DU?$char_traits@D@std@@V?$allocator@D@2@@2@H@Z
	??1_Generic_error_category@std@@UAE@XZ
	??0_Iostream_error_category@std@@QAE@XZ
	?name@_Iostream_error_category@std@@UBEPBDXZ
	?message@_Iostream_error_category@std@@UBE?AV?$basic_string@DU?$char_traits@D@std@@V?$allocator@D@2@@2@H@Z
	??1_Iostream_error_category@std@@UAE@XZ
	??0_System_error_category@std@@QAE@XZ
	?name@_System_error_category@std@@UBEPBDXZ
	?message@_System_error_category@std@@UBE?AV?$basic_string@DU?$char_traits@D@std@@V?$allocator@D@2@@2@H@Z
	?default_error_condition@_System_error_category@std@@UBE?AVerror_condition@2@H@Z
	??1_System_error_category@std@@UAE@XZ
	??0?$allocator@PAVMassC@VERTEX@@@std@@QAE@XZ
	??0?$allocator@U?$_List_node@PAVMassC@VERTEX@@PAX@std@@@std@@QAE@XZ
	?deallocate@?$allocator@U?$_List_node@PAVMassC@VERTEX@@PAX@std@@@std@@QAEXPAU?$_List_node@PAVMassC@VERTEX@@PAX@2@I@Z
	?allocate@?$allocator@U?$_List_node@PAVMassC@VERTEX@@PAX@std@@@std@@QAEPAU?$_List_node@PAVMassC@VERTEX@@PAX@2@I@Z
	??0?$_Wrap_alloc@V?$allocator@U?$_List_node@PAVMassC@VERTEX@@PAX@std@@@std@@@std@@QAE@XZ
	?allocate@?$_Wrap_alloc@V?$allocator@U?$_List_node@PAVMassC@VERTEX@@PAX@std@@@std@@@std@@QAEPAU?$_List_node@PAVMassC@VERTEX@@PAX@2@I@Z
	?deallocate@?$_Wrap_alloc@V?$allocator@U?$_List_node@PAVMassC@VERTEX@@PAX@std@@@std@@@std@@QAEXPAU?$_List_node@PAVMassC@VERTEX@@PAX@2@I@Z
	??0?$_List_val@U?$_List_simple_types@PAVMassC@VERTEX@@@std@@@std@@QAE@XZ
	?_Nextnode@?$_List_val@U?$_List_simple_types@PAVMassC@VERTEX@@@std@@@std@@SAAAPAU?$_List_node@PAVMassC@VERTEX@@PAX@2@PAU32@@Z
	?_Prevnode@?$_List_val@U?$_List_simple_types@PAVMassC@VERTEX@@@std@@@std@@SAAAPAU?$_List_node@PAVMassC@VERTEX@@PAX@2@PAU32@@Z
	?_Myval@?$_List_val@U?$_List_simple_types@PAVMassC@VERTEX@@@std@@@std@@SAAAPAVMassC@VERTEX@@PAU?$_List_node@PAVMassC@VERTEX@@PAX@2@@Z
	??0?$_List_alloc@$0A@U?$_List_base_types@PAVMassC@VERTEX@@V?$allocator@PAVMassC@VERTEX@@@std@@@std@@@std@@QAE@ABV?$allocator@PAVMassC@VERTEX@@@1@@Z
	??1?$_List_alloc@$0A@U?$_List_base_types@PAVMassC@VERTEX@@V?$allocator@PAVMassC@VERTEX@@@std@@@std@@@std@@QAE@XZ
	?_Buyheadnode@?$_List_alloc@$0A@U?$_List_base_types@PAVMassC@VERTEX@@V?$allocator@PAVMassC@VERTEX@@@std@@@std@@@std@@QAEPAU?$_List_node@PAVMassC@VERTEX@@PAX@2@XZ
	?_Freeheadnode@?$_List_alloc@$0A@U?$_List_base_types@PAVMassC@VERTEX@@V?$allocator@PAVMassC@VERTEX@@@std@@@std@@@std@@QAEXPAU?$_List_node@PAVMassC@VERTEX@@PAX@2@@Z
	?_Buynode0@?$_List_alloc@$0A@U?$_List_base_types@PAVMassC@VERTEX@@V?$allocator@PAVMassC@VERTEX@@@std@@@std@@@std@@QAEPAU?$_List_node@PAVMassC@VERTEX@@PAX@2@PAU32@0@Z
	?_Getal@?$_List_alloc@$0A@U?$_List_base_types@PAVMassC@VERTEX@@V?$allocator@PAVMassC@VERTEX@@@std@@@std@@@std@@QBE?AU?$_Wrap_alloc@V?$allocator@U?$_List_node@PAVMassC@VERTEX@@PAX@std@@@std@@@2@XZ
	??0?$_List_buy@PAVMassC@VERTEX@@V?$allocator@PAVMassC@VERTEX@@@std@@@std@@QAE@ABV?$allocator@PAVMassC@VERTEX@@@1@@Z
	?_Freenode@?$_List_buy@PAVMassC@VERTEX@@V?$allocator@PAVMassC@VERTEX@@@std@@@std@@QAEXPAU?$_List_node@PAVMassC@VERTEX@@PAX@2@@Z
	??1?$_List_buy@PAVMassC@VERTEX@@V?$allocator@PAVMassC@VERTEX@@@std@@@std@@QAE@XZ
	??0?$list@PAVMassC@VERTEX@@V?$allocator@PAVMassC@VERTEX@@@std@@@std@@QAE@XZ
	??1?$list@PAVMassC@VERTEX@@V?$allocator@PAVMassC@VERTEX@@@std@@@std@@QAE@XZ
	?clear@?$list@PAVMassC@VERTEX@@V?$allocator@PAVMassC@VERTEX@@@std@@@std@@QAEXXZ
	?_Tidy@?$list@PAVMassC@VERTEX@@V?$allocator@PAVMassC@VERTEX@@@std@@@std@@QAEXXZ
	??0Relation@VERTEX@@QAE@AAVTrack@1@AAVVertex@1@@Z
	??1Relation@VERTEX@@QAE@XZ
	?print@Relation@VERTEX@@QBEXAAV?$basic_ostream@DU?$char_traits@D@std@@@std@@@Z
	?IsA@Relation@VERTEX@@UBEPAVTClass@@XZ
	??$?6U?$char_traits@D@std@@@std@@YAAAV?$basic_ostream@DU?$char_traits@D@std@@@0@AAV10@PBD@Z
	??0_Sentry_base@?$basic_ostream@DU?$char_traits@D@std@@@std@@QAE@AAV12@@Z
	??1_Sentry_base@?$basic_ostream@DU?$char_traits@D@std@@@std@@QAE@XZ
	??0sentry@?$basic_ostream@DU?$char_traits@D@std@@@std@@QAE@AAV12@@Z
	??1sentry@?$basic_ostream@DU?$char_traits@D@std@@@std@@QAE@XZ
	??Bsentry@?$basic_ostream@DU?$char_traits@D@std@@@std@@QBE_NXZ
	??$construct@PADAAPAD@?$_Wrap_alloc@V?$allocator@D@std@@@std@@QAEXPAPADAAPAD@Z
	??$destroy@PAD@?$_Wrap_alloc@V?$allocator@D@std@@@std@@QAEXPAPAD@Z
	??$addressof@D@std@@YAPADAAD@Z
	??$addressof@PAU?$_List_node@PAVMassC@VERTEX@@PAX@std@@@std@@YAPAPAU?$_List_node@PAVMassC@VERTEX@@PAX@0@AAPAU10@@Z
	??$destroy@PAU?$_List_node@PAVMassC@VERTEX@@PAX@std@@@?$_Wrap_alloc@V?$allocator@U?$_List_node@PAVMassC@VERTEX@@PAX@std@@@std@@@std@@QAEXPAPAU?$_List_node@PAVMassC@VERTEX@@PAX@1@@Z
	??$addressof@PAVMassC@VERTEX@@@std@@YAPAPAVMassC@VERTEX@@AAPAV12@@Z
	??$destroy@PAVMassC@VERTEX@@@?$_Wrap_alloc@V?$allocator@U?$_List_node@PAVMassC@VERTEX@@PAX@std@@@std@@@std@@QAEXPAPAVMassC@VERTEX@@@Z
	??$construct@PAU?$_List_node@PAVMassC@VERTEX@@PAX@std@@AAPAU12@@?$_Wrap_alloc@V?$allocator@U?$_List_node@PAVMassC@VERTEX@@PAX@std@@@std@@@std@@QAEXPAPAU?$_List_node@PAVMassC@VERTEX@@PAX@1@AAPAU21@@Z
	??$_Allocate@D@std@@YAPADIPAD@Z
	??$_Allocate@U?$_List_node@PAVMassC@VERTEX@@PAX@std@@@std@@YAPAU?$_List_node@PAVMassC@VERTEX@@PAX@0@IPAU10@@Z
	??$forward@AAPAD@std@@YAAAPADAAPAD@Z
	??$construct@PADAAPAD@?$allocator_traits@V?$allocator@D@std@@@std@@SAXAAV?$allocator@D@1@PAPADAAPAD@Z
	??$destroy@PAD@?$allocator_traits@V?$allocator@D@std@@@std@@SAXAAV?$allocator@D@1@PAPAD@Z
	??$destroy@PAU?$_List_node@PAVMassC@VERTEX@@PAX@std@@@?$allocator_traits@V?$allocator@U?$_List_node@PAVMassC@VERTEX@@PAX@std@@@std@@@std@@SAXAAV?$allocator@U?$_List_node@PAVMassC@VERTEX@@PAX@std@@@1@PAPAU?$_List_node@PAVMassC@VERTEX@@PAX@1@@Z
	??$destroy@PAVMassC@VERTEX@@@?$allocator_traits@V?$allocator@U?$_List_node@PAVMassC@VERTEX@@PAX@std@@@std@@@std@@SAXAAV?$allocator@U?$_List_node@PAVMassC@VERTEX@@PAX@std@@@1@PAPAVMassC@VERTEX@@@Z
	??$forward@AAPAU?$_List_node@PAVMassC@VERTEX@@PAX@std@@@std@@YAAAPAU?$_List_node@PAVMassC@VERTEX@@PAX@0@AAPAU10@@Z
	??$construct@PAU?$_List_node@PAVMassC@VERTEX@@PAX@std@@AAPAU12@@?$allocator_traits@V?$allocator@U?$_List_node@PAVMassC@VERTEX@@PAX@std@@@std@@@std@@SAXAAV?$allocator@U?$_List_node@PAVMassC@VERTEX@@PAX@std@@@1@PAPAU?$_List_node@PAVMassC@VERTEX@@PAX@1@AAPAU31@@Z
	??$construct@PADAAPAD@?$allocator@D@std@@QAEXPAPADAAPAD@Z
	??$destroy@PAD@?$allocator@D@std@@QAEXPAPAD@Z
	??$destroy@PAU?$_List_node@PAVMassC@VERTEX@@PAX@std@@@?$allocator@U?$_List_node@PAVMassC@VERTEX@@PAX@std@@@std@@QAEXPAPAU?$_List_node@PAVMassC@VERTEX@@PAX@1@@Z
	??$destroy@PAVMassC@VERTEX@@@?$allocator@U?$_List_node@PAVMassC@VERTEX@@PAX@std@@@std@@QAEXPAPAVMassC@VERTEX@@@Z
	??$construct@PAU?$_List_node@PAVMassC@VERTEX@@PAX@std@@AAPAU12@@?$allocator@U?$_List_node@PAVMassC@VERTEX@@PAX@std@@@std@@QAEXPAPAU?$_List_node@PAVMassC@VERTEX@@PAX@1@AAPAU21@@Z
	?_Generic_object@?$_Error_objects@H@std@@2V_Generic_error_category@2@A 	 DATA
	?_Iostream_object@?$_Error_objects@H@std@@2V_Iostream_error_category@2@A 	 DATA
	?_System_object@?$_Error_objects@H@std@@2V_System_error_category@2@A 	 DATA
	?id@?$num_put@DV?$back_insert_iterator@V?$basic_string@DU?$char_traits@D@std@@V?$allocator@D@2@@std@@@std@@@std@@2V0locale@2@A 	 DATA
	?id@?$num_put@_WV?$back_insert_iterator@V?$basic_string@_WU?$char_traits@_W@std@@V?$allocator@_W@2@@std@@@std@@@std@@2V0locale@2@A 	 DATA
	??_R0?AVerror_category@std@@@8 	 DATA
	??_R0?AV_Generic_error_category@std@@@8 	 DATA
	??_R0?AV_Iostream_error_category@std@@@8 	 DATA
	??_R0?AV_System_error_category@std@@@8 	 DATA
	??_R0?AVRelation@VERTEX@@@8 	 DATA
	hypot
	??2@YAPAXIPAX@Z
	??3@YAXPAX0@Z
	?length@?$char_traits@D@std@@SAIPBD@Z
	?copy@?$char_traits@D@std@@SAPADPADPBDI@Z
	?move@?$char_traits@D@std@@SAPADPADPBDI@Z
	?assign@?$char_traits@D@std@@SAXAADABD@Z
	??0?$allocator@D@std@@QAE@XZ
	?deallocate@?$allocator@D@std@@QAEXPADI@Z
	?allocate@?$allocator@D@std@@QAEPADI@Z
	?max_size@?$allocator@D@std@@QBEIXZ
	?max_size@?$allocator_traits@V?$allocator@D@std@@@std@@SAIABV?$allocator@D@2@@Z
	??0?$_Wrap_alloc@V?$allocator@D@std@@@std@@QAE@XZ
	?allocate@?$_Wrap_alloc@V?$allocator@D@std@@@std@@QAEPADI@Z
	?deallocate@?$_Wrap_alloc@V?$allocator@D@std@@@std@@QAEXPADI@Z
	?max_size@?$_Wrap_alloc@V?$allocator@D@std@@@std@@QBEIXZ
	??0?$_String_val@U?$_Simple_types@D@std@@@std@@QAE@XZ
	?_Myptr@?$_String_val@U?$_Simple_types@D@std@@@std@@QAEPADXZ
	?_Myptr@?$_String_val@U?$_Simple_types@D@std@@@std@@QBEPBDXZ
	??0?$_String_alloc@$0A@U?$_String_base_types@DV?$allocator@D@std@@@std@@@std@@QAE@ABV?$allocator@D@1@@Z
	?_Getal@?$_String_alloc@$0A@U?$_String_base_types@DV?$allocator@D@std@@@std@@@std@@QBE?AU?$_Wrap_alloc@V?$allocator@D@std@@@2@XZ
	??0?$basic_string@DU?$char_traits@D@std@@V?$allocator@D@2@@std@@QAE@PBD@Z
	??1?$basic_string@DU?$char_traits@D@std@@V?$allocator@D@2@@std@@QAE@XZ
	?assign@?$basic_string@DU?$char_traits@D@std@@V?$allocator@D@2@@std@@QAEAAV12@ABV12@II@Z
	?assign@?$basic_string@DU?$char_traits@D@std@@V?$allocator@D@2@@std@@QAEAAV12@PBDI@Z
	?assign@?$basic_string@DU?$char_traits@D@std@@V?$allocator@D@2@@std@@QAEAAV12@PBD@Z
	?erase@?$basic_string@DU?$char_traits@D@std@@V?$allocator@D@2@@std@@QAEAAV12@I@Z
	?erase@?$basic_string@DU?$char_traits@D@std@@V?$allocator@D@2@@std@@QAEAAV12@II@Z
	?size@?$basic_string@DU?$char_traits@D@std@@V?$allocator@D@2@@std@@QBEIXZ
	?max_size@?$basic_string@DU?$char_traits@D@std@@V?$allocator@D@2@@std@@QBEIXZ
	?_Copy@?$basic_string@DU?$char_traits@D@std@@V?$allocator@D@2@@std@@QAEXII@Z
	?_Eos@?$basic_string@DU?$char_traits@D@std@@V?$allocator@D@2@@std@@QAEXI@Z
	?_Grow@?$basic_string@DU?$char_traits@D@std@@V?$allocator@D@2@@std@@QAE_NI_N@Z
	?_Inside@?$basic_string@DU?$char_traits@D@std@@V?$allocator@D@2@@std@@QAE_NPBD@Z
	?_Tidy@?$basic_string@DU?$char_traits@D@std@@V?$allocator@D@2@@std@@QAEX_NI@Z
	?_Xlen@?$basic_string@DU?$char_traits@D@std@@V?$allocator@D@2@@std@@QBEXXZ
	?_Xran@?$basic_string@DU?$char_traits@D@std@@V?$allocator@D@2@@std@@QBEXXZ
	?generic_category@std@@YAABVerror_category@1@XZ
	?system_category@std@@YAABVerror_category@1@XZ
	??0error_category@std@@QAE@XZ
	??1error_category@std@@UAE@XZ
	?default_error_condition@error_category@std@@UBE?AVerror_condition@2@H@Z
	?equivalent@error_category@std@@UBE_NHABVerror_condition@2@@Z
	?equivalent@error_category@std@@UBE_NABVerror_code@2@H@Z
	??8error_category@std@@QBE_NABV01@@Z
	?value@error_code@std@@QBEHXZ
	?category@error_code@std@@QBEABVerror_category@2@XZ
	??0error_condition@std@@QAE@HABVerror_category@1@@Z
	?value@error_condition@std@@QBEHXZ
	?category@error_condition@std@@QBEABVerror_category@2@XZ
	??8error_condition@std@@QBE_NABV01@@Z
	??0_Generic_error_category@std@@QAE@XZ
	?name@_Generic_error_category@std@@UBEPBDXZ
	?message@_Generic_error_category@std@@UBE?AV?$basic_string@DU?$char_traits@D@std@@V?$allocator@D@2@@2@H@Z
	??1_Generic_error_category@std@@UAE@XZ
	??0_Iostream_error_category@std@@QAE@XZ
	?name@_Iostream_error_category@std@@UBEPBDXZ
	?message@_Iostream_error_category@std@@UBE?AV?$basic_string@DU?$char_traits@D@std@@V?$allocator@D@2@@2@H@Z
	??1_Iostream_error_category@std@@UAE@XZ
	??0_System_error_category@std@@QAE@XZ
	?name@_System_error_category@std@@UBEPBDXZ
	?message@_System_error_category@std@@UBE?AV?$basic_string@DU?$char_traits@D@std@@V?$allocator@D@2@@2@H@Z
	?default_error_condition@_System_error_category@std@@UBE?AVerror_condition@2@H@Z
	??1_System_error_category@std@@UAE@XZ
	?nrow@VtMatrix@MATRIX@@QBEIXZ
	?ncol@VtMatrix@MATRIX@@QBEIXZ
	??0VtSqMatrix@MATRIX@@QAE@H@Z
	??0VtSqMatrix@MATRIX@@QAE@ABVVtMatrix@1@@Z
	?IsA@VtSqMatrix@MATRIX@@UBEPAVTClass@@XZ
	??4VtSqMatrix@MATRIX@@QAEAAV01@ABV01@@Z
	??0VtSymMatrix@MATRIX@@QAE@I@Z
	??0VtSymMatrix@MATRIX@@QAE@ABVVtMatrix@1@@Z
	?IsA@VtSymMatrix@MATRIX@@UBEPAVTClass@@XZ
	??6MATRIX@@YAAAV?$basic_ostream@DU?$char_traits@D@std@@@std@@AAV12@ABVVtSymMatrix@0@@Z
	??0CMatrix@MATRIX@@QAE@XZ
	??0CMatrix@MATRIX@@QAE@ABVVtSymMatrix@1@@Z
	?IsA@CMatrix@MATRIX@@UBEPAVTClass@@XZ
	??1CMatrix@MATRIX@@UAE@XZ
	??4CMatrix@MATRIX@@QAEAAV01@ABV01@@Z
	??AVtVector@MATRIX@@QBENI@Z
	??AVtVector@MATRIX@@QAEAANI@Z
	?rm@Track@VERTEX@@QBENXZ
	?CS@Vertex@VERTEX@@QBEABVVtSymMatrix@MATRIX@@XZ
	?xvs@Vertex@VERTEX@@QBEABVVtVector@MATRIX@@XZ
	??0Kalman@VERTEX@@QAE@QBVRelation@1@@Z
	??1Kalman@VERTEX@@QAE@XZ
	?use_momentum@Kalman@VERTEX@@QAEX_N@Z
	?init@Kalman@VERTEX@@QAEXXZ
	?print@Kalman@VERTEX@@QBEAAV?$basic_ostream@DU?$char_traits@D@std@@@std@@AAV34@@Z
	?filter@Kalman@VERTEX@@QAE_NNABVVtSymMatrix@MATRIX@@ABVVtVector@4@@Z
	?filter_chi2@Kalman@VERTEX@@QAENNNABVVtSymMatrix@MATRIX@@ABVVtVector@4@@Z
	?inverse_filter@Kalman@VERTEX@@QAE_NNABVVtSymMatrix@MATRIX@@0ABVVtVector@4@@Z
	?smooth@Kalman@VERTEX@@QAEXNABVVtVector@MATRIX@@ABVVtSymMatrix@4@@Z
	?calc_dp@Kalman@VERTEX@@QBE?BVVtVector@MATRIX@@NABV34@0@Z
	?calc_pcAx@Kalman@VERTEX@@QBE?BVVtVector@MATRIX@@ABV34@@Z
	?calc_AGpc@Kalman@VERTEX@@QBE?BVVtVector@MATRIX@@XZ
	?calc_qk@Kalman@VERTEX@@QBE?BVVtVector@MATRIX@@ABV34@@Z
	?calc_qvs@Kalman@VERTEX@@QAEXABVVtVector@MATRIX@@@Z
	?calc_dchi2@Kalman@VERTEX@@QBENNABVVtSymMatrix@MATRIX@@ABVVtVector@4@11@Z
	?calc_pc@Kalman@VERTEX@@QAEXN@Z
	?calc_ealpc@Kalman@VERTEX@@QAEXXZ
	?IsA@Kalman@VERTEX@@UBEPAVTClass@@XZ
	??$sqr@N@VERTEX@@YA?BNABN@Z
	??1VtNegMatrix@MATRIX@@UAE@XZ
	?IsA@VtNegMatrix@MATRIX@@UBEPAVTClass@@XZ
	??$construct@PADAAPAD@?$_Wrap_alloc@V?$allocator@D@std@@@std@@QAEXPAPADAAPAD@Z
	??$destroy@PAD@?$_Wrap_alloc@V?$allocator@D@std@@@std@@QAEXPAPAD@Z
	??$addressof@D@std@@YAPADAAD@Z
	??$_Allocate@D@std@@YAPADIPAD@Z
	??$forward@AAPAD@std@@YAAAPADAAPAD@Z
	??$construct@PADAAPAD@?$allocator_traits@V?$allocator@D@std@@@std@@SAXAAV?$allocator@D@1@PAPADAAPAD@Z
	??$destroy@PAD@?$allocator_traits@V?$allocator@D@std@@@std@@SAXAAV?$allocator@D@1@PAPAD@Z
	??$construct@PADAAPAD@?$allocator@D@std@@QAEXPAPADAAPAD@Z
	??$destroy@PAD@?$allocator@D@std@@QAEXPAPAD@Z
	?_Generic_object@?$_Error_objects@H@std@@2V_Generic_error_category@2@A 	 DATA
	?_Iostream_object@?$_Error_objects@H@std@@2V_Iostream_error_category@2@A 	 DATA
	?_System_object@?$_Error_objects@H@std@@2V_System_error_category@2@A 	 DATA
	?id@?$num_put@DV?$back_insert_iterator@V?$basic_string@DU?$char_traits@D@std@@V?$allocator@D@2@@std@@@std@@@std@@2V0locale@2@A 	 DATA
	?id@?$num_put@_WV?$back_insert_iterator@V?$basic_string@_WU?$char_traits@_W@std@@V?$allocator@_W@2@@std@@@std@@@std@@2V0locale@2@A 	 DATA
	??_R0?AVerror_category@std@@@8 	 DATA
	??_R0?AV_Generic_error_category@std@@@8 	 DATA
	??_R0?AV_Iostream_error_category@std@@@8 	 DATA
	??_R0?AV_System_error_category@std@@@8 	 DATA
	??_R0?AVVtNegMatrix@MATRIX@@@8 	 DATA
	??_R0?AVVtMatrix@MATRIX@@@8 	 DATA
	??_R0?AVVtSqMatrix@MATRIX@@@8 	 DATA
	??_R0?AVVtSymMatrix@MATRIX@@@8 	 DATA
	??_R0?AVCMatrix@MATRIX@@@8 	 DATA
	??_R0?AVKalman@VERTEX@@@8 	 DATA
	hypot
	?length@?$char_traits@D@std@@SAIPBD@Z
	?copy@?$char_traits@D@std@@SAPADPADPBDI@Z
	?move@?$char_traits@D@std@@SAPADPADPBDI@Z
	?assign@?$char_traits@D@std@@SAXAADABD@Z
	?eq_int_type@?$char_traits@D@std@@SA_NABH0@Z
	?eof@?$char_traits@D@std@@SAHXZ
	??2@YAPAXIPAX@Z
	??3@YAXPAX0@Z
	?_Adopt@_Iterator_base0@std@@QAEXPBX@Z
	??0?$allocator@D@std@@QAE@XZ
	?deallocate@?$allocator@D@std@@QAEXPADI@Z
	?allocate@?$allocator@D@std@@QAEPADI@Z
	?max_size@?$allocator@D@std@@QBEIXZ
	?max_size@?$allocator_traits@V?$allocator@D@std@@@std@@SAIABV?$allocator@D@2@@Z
	??0?$_Wrap_alloc@V?$allocator@D@std@@@std@@QAE@XZ
	?allocate@?$_Wrap_alloc@V?$allocator@D@std@@@std@@QAEPADI@Z
	?deallocate@?$_Wrap_alloc@V?$allocator@D@std@@@std@@QAEXPADI@Z
	?max_size@?$_Wrap_alloc@V?$allocator@D@std@@@std@@QBEIXZ
	??0?$_String_val@U?$_Simple_types@D@std@@@std@@QAE@XZ
	?_Myptr@?$_String_val@U?$_Simple_types@D@std@@@std@@QAEPADXZ
	?_Myptr@?$_String_val@U?$_Simple_types@D@std@@@std@@QBEPBDXZ
	??0?$_String_alloc@$0A@U?$_String_base_types@DV?$allocator@D@std@@@std@@@std@@QAE@ABV?$allocator@D@1@@Z
	?_Getal@?$_String_alloc@$0A@U?$_String_base_types@DV?$allocator@D@std@@@std@@@std@@QBE?AU?$_Wrap_alloc@V?$allocator@D@std@@@2@XZ
	??0?$basic_string@DU?$char_traits@D@std@@V?$allocator@D@2@@std@@QAE@PBD@Z
	??1?$basic_string@DU?$char_traits@D@std@@V?$allocator@D@2@@std@@QAE@XZ
	?assign@?$basic_string@DU?$char_traits@D@std@@V?$allocator@D@2@@std@@QAEAAV12@ABV12@II@Z
	?assign@?$basic_string@DU?$char_traits@D@std@@V?$allocator@D@2@@std@@QAEAAV12@PBDI@Z
	?assign@?$basic_string@DU?$char_traits@D@std@@V?$allocator@D@2@@std@@QAEAAV12@PBD@Z
	?erase@?$basic_string@DU?$char_traits@D@std@@V?$allocator@D@2@@std@@QAEAAV12@I@Z
	?erase@?$basic_string@DU?$char_traits@D@std@@V?$allocator@D@2@@std@@QAEAAV12@II@Z
	?size@?$basic_string@DU?$char_traits@D@std@@V?$allocator@D@2@@std@@QBEIXZ
	?max_size@?$basic_string@DU?$char_traits@D@std@@V?$allocator@D@2@@std@@QBEIXZ
	?_Copy@?$basic_string@DU?$char_traits@D@std@@V?$allocator@D@2@@std@@QAEXII@Z
	?_Eos@?$basic_string@DU?$char_traits@D@std@@V?$allocator@D@2@@std@@QAEXI@Z
	?_Grow@?$basic_string@DU?$char_traits@D@std@@V?$allocator@D@2@@std@@QAE_NI_N@Z
	?_Inside@?$basic_string@DU?$char_traits@D@std@@V?$allocator@D@2@@std@@QAE_NPBD@Z
	?_Tidy@?$basic_string@DU?$char_traits@D@std@@V?$allocator@D@2@@std@@QAEX_NI@Z
	?_Xlen@?$basic_string@DU?$char_traits@D@std@@V?$allocator@D@2@@std@@QBEXXZ
	?_Xran@?$basic_string@DU?$char_traits@D@std@@V?$allocator@D@2@@std@@QBEXXZ
	?generic_category@std@@YAABVerror_category@1@XZ
	?system_category@std@@YAABVerror_category@1@XZ
	??0error_category@std@@QAE@XZ
	??1error_category@std@@UAE@XZ
	?default_error_condition@error_category@std@@UBE?AVerror_condition@2@H@Z
	?equivalent@error_category@std@@UBE_NHABVerror_condition@2@@Z
	?equivalent@error_category@std@@UBE_NABVerror_code@2@H@Z
	??8error_category@std@@QBE_NABV01@@Z
	?value@error_code@std@@QBEHXZ
	?category@error_code@std@@QBEABVerror_category@2@XZ
	??0error_condition@std@@QAE@HABVerror_category@1@@Z
	?value@error_condition@std@@QBEHXZ
	?category@error_condition@std@@QBEABVerror_category@2@XZ
	??8error_condition@std@@QBE_NABV01@@Z
	??0_Generic_error_category@std@@QAE@XZ
	?name@_Generic_error_category@std@@UBEPBDXZ
	?message@_Generic_error_category@std@@UBE?AV?$basic_string@DU?$char_traits@D@std@@V?$allocator@D@2@@2@H@Z
	??1_Generic_error_category@std@@UAE@XZ
	??0_Iostream_error_category@std@@QAE@XZ
	?name@_Iostream_error_category@std@@UBEPBDXZ
	?message@_Iostream_error_category@std@@UBE?AV?$basic_string@DU?$char_traits@D@std@@V?$allocator@D@2@@2@H@Z
	??1_Iostream_error_category@std@@UAE@XZ
	??0_System_error_category@std@@QAE@XZ
	?name@_System_error_category@std@@UBEPBDXZ
	?message@_System_error_category@std@@UBE?AV?$basic_string@DU?$char_traits@D@std@@V?$allocator@D@2@@2@H@Z
	?default_error_condition@_System_error_category@std@@UBE?AVerror_condition@2@H@Z
	??1_System_error_category@std@@UAE@XZ
	??AVtVector@MATRIX@@QBENI@Z
	??AVtVector@MATRIX@@QAEAANI@Z
	??0?$allocator@PAVRelation@VERTEX@@@std@@QAE@XZ
	?deallocate@?$allocator@PAVRelation@VERTEX@@@std@@QAEXPAPAVRelation@VERTEX@@I@Z
	?allocate@?$allocator@PAVRelation@VERTEX@@@std@@QAEPAPAVRelation@VERTEX@@I@Z
	?construct@?$allocator@PAVRelation@VERTEX@@@std@@QAEXPAPAVRelation@VERTEX@@ABQAV34@@Z
	?max_size@?$allocator@PAVRelation@VERTEX@@@std@@QBEIXZ
	?max_size@?$allocator_traits@V?$allocator@PAVRelation@VERTEX@@@std@@@std@@SAIABV?$allocator@PAVRelation@VERTEX@@@2@@Z
	??0?$_Wrap_alloc@V?$allocator@PAVRelation@VERTEX@@@std@@@std@@QAE@XZ
	?allocate@?$_Wrap_alloc@V?$allocator@PAVRelation@VERTEX@@@std@@@std@@QAEPAPAVRelation@VERTEX@@I@Z
	?deallocate@?$_Wrap_alloc@V?$allocator@PAVRelation@VERTEX@@@std@@@std@@QAEXPAPAVRelation@VERTEX@@I@Z
	?max_size@?$_Wrap_alloc@V?$allocator@PAVRelation@VERTEX@@@std@@@std@@QBEIXZ
	??0?$_Vector_val@U?$_Simple_types@PAVRelation@VERTEX@@@std@@@std@@QAE@XZ
	??0?$_Vector_alloc@$0A@U?$_Vec_base_types@PAVRelation@VERTEX@@V?$allocator@PAVRelation@VERTEX@@@std@@@std@@@std@@QAE@ABV?$allocator@PAVRelation@VERTEX@@@1@@Z
	?_Getal@?$_Vector_alloc@$0A@U?$_Vec_base_types@PAVRelation@VERTEX@@V?$allocator@PAVRelation@VERTEX@@@std@@@std@@@std@@QBE?AU?$_Wrap_alloc@V?$allocator@PAVRelation@VERTEX@@@std@@@2@XZ
	??0?$vector@PAVRelation@VERTEX@@V?$allocator@PAVRelation@VERTEX@@@std@@@std@@QAE@XZ
	??1?$vector@PAVRelation@VERTEX@@V?$allocator@PAVRelation@VERTEX@@@std@@@std@@QAE@XZ
	?capacity@?$vector@PAVRelation@VERTEX@@V?$allocator@PAVRelation@VERTEX@@@std@@@std@@QBEIXZ
	?_Unused_capacity@?$vector@PAVRelation@VERTEX@@V?$allocator@PAVRelation@VERTEX@@@std@@@std@@QBEIXZ
	?begin@?$vector@PAVRelation@VERTEX@@V?$allocator@PAVRelation@VERTEX@@@std@@@std@@QAE?AV?$_Vector_iterator@V?$_Vector_val@U?$_Simple_types@PAVRelation@VERTEX@@@std@@@std@@@2@XZ
	?begin@?$vector@PAVRelation@VERTEX@@V?$allocator@PAVRelation@VERTEX@@@std@@@std@@QBE?AV?$_Vector_const_iterator@V?$_Vector_val@U?$_Simple_types@PAVRelation@VERTEX@@@std@@@std@@@2@XZ
	?end@?$vector@PAVRelation@VERTEX@@V?$allocator@PAVRelation@VERTEX@@@std@@@std@@QAE?AV?$_Vector_iterator@V?$_Vector_val@U?$_Simple_types@PAVRelation@VERTEX@@@std@@@std@@@2@XZ
	?end@?$vector@PAVRelation@VERTEX@@V?$allocator@PAVRelation@VERTEX@@@std@@@std@@QBE?AV?$_Vector_const_iterator@V?$_Vector_val@U?$_Simple_types@PAVRelation@VERTEX@@@std@@@std@@@2@XZ
	?size@?$vector@PAVRelation@VERTEX@@V?$allocator@PAVRelation@VERTEX@@@std@@@std@@QBEIXZ
	?max_size@?$vector@PAVRelation@VERTEX@@V?$allocator@PAVRelation@VERTEX@@@std@@@std@@QBEIXZ
	?push_back@?$vector@PAVRelation@VERTEX@@V?$allocator@PAVRelation@VERTEX@@@std@@@std@@QAEXABQAVRelation@VERTEX@@@Z
	?_Destroy@?$vector@PAVRelation@VERTEX@@V?$allocator@PAVRelation@VERTEX@@@std@@@std@@IAEXPAPAVRelation@VERTEX@@0@Z
	?_Grow_to@?$vector@PAVRelation@VERTEX@@V?$allocator@PAVRelation@VERTEX@@@std@@@std@@IBEII@Z
	?_Inside@?$vector@PAVRelation@VERTEX@@V?$allocator@PAVRelation@VERTEX@@@std@@@std@@IBE_NPBQAVRelation@VERTEX@@@Z
	?_Reallocate@?$vector@PAVRelation@VERTEX@@V?$allocator@PAVRelation@VERTEX@@@std@@@std@@IAEXI@Z
	?_Reserve@?$vector@PAVRelation@VERTEX@@V?$allocator@PAVRelation@VERTEX@@@std@@@std@@IAEXI@Z
	?_Tidy@?$vector@PAVRelation@VERTEX@@V?$allocator@PAVRelation@VERTEX@@@std@@@std@@IAEXXZ
	?_Xlen@?$vector@PAVRelation@VERTEX@@V?$allocator@PAVRelation@VERTEX@@@std@@@std@@IBEXXZ
	?_Orphan_range@?$vector@PAVRelation@VERTEX@@V?$allocator@PAVRelation@VERTEX@@@std@@@std@@IBEXPAPAVRelation@VERTEX@@0@Z
	??0MassC@VERTEX@@QAE@XZ
	??0MassC@VERTEX@@QAE@N@Z
	??1MassC@VERTEX@@QAE@XZ
	?push_back@MassC@VERTEX@@QAEXPAVRelation@2@@Z
	?mass@MassC@VERTEX@@QBENXZ
	?print@MassC@VERTEX@@QBEXAAV?$basic_ostream@DU?$char_traits@D@std@@@std@@@Z
	?calc_Sl@MassC@VERTEX@@QAEXXZ
	?check_kinematic@MassC@VERTEX@@QBE?B_NXZ
	?gam@MassC@VERTEX@@QBE?BVVtVector@MATRIX@@ABVRelation@2@@Z
	?IsA@MassC@VERTEX@@UBEPAVTClass@@XZ
	?rm@Track@VERTEX@@QBENXZ
	??0?$allocator@U?$_List_node@PAVMassC@VERTEX@@PAX@std@@@std@@QAE@XZ
	?deallocate@?$allocator@U?$_List_node@PAVMassC@VERTEX@@PAX@std@@@std@@QAEXPAU?$_List_node@PAVMassC@VERTEX@@PAX@2@I@Z
	?allocate@?$allocator@U?$_List_node@PAVMassC@VERTEX@@PAX@std@@@std@@QAEPAU?$_List_node@PAVMassC@VERTEX@@PAX@2@I@Z
	?max_size@?$allocator@U?$_List_node@PAVMassC@VERTEX@@PAX@std@@@std@@QBEIXZ
	?max_size@?$allocator_traits@V?$allocator@U?$_List_node@PAVMassC@VERTEX@@PAX@std@@@std@@@std@@SAIABV?$allocator@U?$_List_node@PAVMassC@VERTEX@@PAX@std@@@2@@Z
	??0?$_Wrap_alloc@V?$allocator@U?$_List_node@PAVMassC@VERTEX@@PAX@std@@@std@@@std@@QAE@XZ
	?allocate@?$_Wrap_alloc@V?$allocator@U?$_List_node@PAVMassC@VERTEX@@PAX@std@@@std@@@std@@QAEPAU?$_List_node@PAVMassC@VERTEX@@PAX@2@I@Z
	?deallocate@?$_Wrap_alloc@V?$allocator@U?$_List_node@PAVMassC@VERTEX@@PAX@std@@@std@@@std@@QAEXPAU?$_List_node@PAVMassC@VERTEX@@PAX@2@I@Z
	?max_size@?$_Wrap_alloc@V?$allocator@U?$_List_node@PAVMassC@VERTEX@@PAX@std@@@std@@@std@@QBEIXZ
	?_Nextnode@?$_List_val@U?$_List_simple_types@PAVMassC@VERTEX@@@std@@@std@@SAAAPAU?$_List_node@PAVMassC@VERTEX@@PAX@2@PAU32@@Z
	?_Prevnode@?$_List_val@U?$_List_simple_types@PAVMassC@VERTEX@@@std@@@std@@SAAAPAU?$_List_node@PAVMassC@VERTEX@@PAX@2@PAU32@@Z
	?_Myval@?$_List_val@U?$_List_simple_types@PAVMassC@VERTEX@@@std@@@std@@SAAAPAVMassC@VERTEX@@PAU?$_List_node@PAVMassC@VERTEX@@PAX@2@@Z
	?_Buynode0@?$_List_alloc@$0A@U?$_List_base_types@PAVMassC@VERTEX@@V?$allocator@PAVMassC@VERTEX@@@std@@@std@@@std@@QAEPAU?$_List_node@PAVMassC@VERTEX@@PAX@2@PAU32@0@Z
	?_Getal@?$_List_alloc@$0A@U?$_List_base_types@PAVMassC@VERTEX@@V?$allocator@PAVMassC@VERTEX@@@std@@@std@@@std@@QBE?AU?$_Wrap_alloc@V?$allocator@U?$_List_node@PAVMassC@VERTEX@@PAX@std@@@std@@@2@XZ
	?_Freenode@?$_List_buy@PAVMassC@VERTEX@@V?$allocator@PAVMassC@VERTEX@@@std@@@std@@QAEXPAU?$_List_node@PAVMassC@VERTEX@@PAX@2@@Z
	?begin@?$list@PAVMassC@VERTEX@@V?$allocator@PAVMassC@VERTEX@@@std@@@std@@QAE?AV?$_List_iterator@V?$_List_val@U?$_List_simple_types@PAVMassC@VERTEX@@@std@@@std@@@2@XZ
	?end@?$list@PAVMassC@VERTEX@@V?$allocator@PAVMassC@VERTEX@@@std@@@std@@QAE?AV?$_List_iterator@V?$_List_val@U?$_List_simple_types@PAVMassC@VERTEX@@@std@@@std@@@2@XZ
	?_Unchecked_end@?$list@PAVMassC@VERTEX@@V?$allocator@PAVMassC@VERTEX@@@std@@@std@@QAE?AV?$_List_unchecked_iterator@V?$_List_val@U?$_List_simple_types@PAVMassC@VERTEX@@@std@@@std@@@2@XZ
	?_Make_iter@?$list@PAVMassC@VERTEX@@V?$allocator@PAVMassC@VERTEX@@@std@@@std@@QBE?AV?$_List_iterator@V?$_List_val@U?$_List_simple_types@PAVMassC@VERTEX@@@std@@@std@@@2@V?$_List_const_iterator@V?$_List_val@U?$_List_simple_types@PAVMassC@VERTEX@@@std@@@std@@@2@@Z
	?max_size@?$list@PAVMassC@VERTEX@@V?$allocator@PAVMassC@VERTEX@@@std@@@std@@QBEIXZ
	?push_back@?$list@PAVMassC@VERTEX@@V?$allocator@PAVMassC@VERTEX@@@std@@@std@@QAEXABQAVMassC@VERTEX@@@Z
	?_Unlinknode@?$list@PAVMassC@VERTEX@@V?$allocator@PAVMassC@VERTEX@@@std@@@std@@QAEPAU?$_List_node@PAVMassC@VERTEX@@PAX@2@V?$_List_const_iterator@V?$_List_val@U?$_List_simple_types@PAVMassC@VERTEX@@@std@@@std@@@2@@Z
	?erase@?$list@PAVMassC@VERTEX@@V?$allocator@PAVMassC@VERTEX@@@std@@@std@@QAE?AV?$_List_iterator@V?$_List_val@U?$_List_simple_types@PAVMassC@VERTEX@@@std@@@std@@@2@V?$_List_const_iterator@V?$_List_val@U?$_List_simple_types@PAVMassC@VERTEX@@@std@@@std@@@2@@Z
	?remove@?$list@PAVMassC@VERTEX@@V?$allocator@PAVMassC@VERTEX@@@std@@@std@@QAEXABQAVMassC@VERTEX@@@Z
	?_Incsize@?$list@PAVMassC@VERTEX@@V?$allocator@PAVMassC@VERTEX@@@std@@@std@@QAEXI@Z
	?alpc@Kalman@VERTEX@@QBEABVVtVector@MATRIX@@XZ
	?xn@Kalman@VERTEX@@QBENXZ
	?yn@Kalman@VERTEX@@QBENXZ
	?zn@Kalman@VERTEX@@QBENXZ
	?erg@Kalman@VERTEX@@QBENXZ
	?nalpc@Kalman@VERTEX@@QBEABVVtVector@MATRIX@@XZ
	??$sqr@N@VERTEX@@YA?BNABN@Z
	??0?$_Vector_const_iterator@V?$_Vector_val@U?$_Simple_types@PAVRelation@VERTEX@@@std@@@std@@@std@@QAE@PAPAVRelation@VERTEX@@PBU_Container_base0@1@@Z
	??D?$_Vector_const_iterator@V?$_Vector_val@U?$_Simple_types@PAVRelation@VERTEX@@@std@@@std@@@std@@QBEABQAVRelation@VERTEX@@XZ
	??E?$_Vector_const_iterator@V?$_Vector_val@U?$_Simple_types@PAVRelation@VERTEX@@@std@@@std@@@std@@QAEAAV01@XZ
	??8?$_Vector_const_iterator@V?$_Vector_val@U?$_Simple_types@PAVRelation@VERTEX@@@std@@@std@@@std@@QBE_NABV01@@Z
	??9?$_Vector_const_iterator@V?$_Vector_val@U?$_Simple_types@PAVRelation@VERTEX@@@std@@@std@@@std@@QBE_NABV01@@Z
	?_Compat@?$_Vector_const_iterator@V?$_Vector_val@U?$_Simple_types@PAVRelation@VERTEX@@@std@@@std@@@std@@QBEXABV12@@Z
	??0?$_Vector_iterator@V?$_Vector_val@U?$_Simple_types@PAVRelation@VERTEX@@@std@@@std@@@std@@QAE@PAPAVRelation@VERTEX@@PBU_Container_base0@1@@Z
	??$?6U?$char_traits@D@std@@@std@@YAAAV?$basic_ostream@DU?$char_traits@D@std@@@0@AAV10@PBD@Z
	??0_Sentry_base@?$basic_ostream@DU?$char_traits@D@std@@@std@@QAE@AAV12@@Z
	??1_Sentry_base@?$basic_ostream@DU?$char_traits@D@std@@@std@@QAE@XZ
	??0sentry@?$basic_ostream@DU?$char_traits@D@std@@@std@@QAE@AAV12@@Z
	??1sentry@?$basic_ostream@DU?$char_traits@D@std@@@std@@QAE@XZ
	??Bsentry@?$basic_ostream@DU?$char_traits@D@std@@@std@@QBE_NXZ
	??$addressof@QAVRelation@VERTEX@@@std@@YAPBQAVRelation@VERTEX@@ABQAV12@@Z
	??$construct@PAVRelation@VERTEX@@AAPAV12@@?$_Wrap_alloc@V?$allocator@PAVRelation@VERTEX@@@std@@@std@@QAEXPAPAVRelation@VERTEX@@AAPAV23@@Z
	??$construct@PAVRelation@VERTEX@@ABQAV12@@?$_Wrap_alloc@V?$allocator@PAVRelation@VERTEX@@@std@@@std@@QAEXPAPAVRelation@VERTEX@@ABQAV23@@Z
	??0?$_List_unchecked_const_iterator@V?$_List_val@U?$_List_simple_types@PAVMassC@VERTEX@@@std@@@std@@U_Iterator_base0@2@@std@@QAE@PAU?$_List_node@PAVMassC@VERTEX@@PAX@1@PBV?$_List_val@U?$_List_simple_types@PAVMassC@VERTEX@@@std@@@1@@Z
	?_Mynode@?$_List_unchecked_const_iterator@V?$_List_val@U?$_List_simple_types@PAVMassC@VERTEX@@@std@@@std@@U_Iterator_base0@2@@std@@QBEPAU?$_List_node@PAVMassC@VERTEX@@PAX@2@XZ
	??0?$_List_unchecked_iterator@V?$_List_val@U?$_List_simple_types@PAVMassC@VERTEX@@@std@@@std@@@std@@QAE@PAU?$_List_node@PAVMassC@VERTEX@@PAX@1@PBV?$_List_val@U?$_List_simple_types@PAVMassC@VERTEX@@@std@@@1@@Z
	??$_Insert@ABQAVMassC@VERTEX@@@?$list@PAVMassC@VERTEX@@V?$allocator@PAVMassC@VERTEX@@@std@@@std@@QAEXV?$_List_unchecked_const_iterator@V?$_List_val@U?$_List_simple_types@PAVMassC@VERTEX@@@std@@@std@@U_Iterator_base0@2@@1@ABQAVMassC@VERTEX@@@Z
	??0?$_List_const_iterator@V?$_List_val@U?$_List_simple_types@PAVMassC@VERTEX@@@std@@@std@@@std@@QAE@PAU?$_List_node@PAVMassC@VERTEX@@PAX@1@PBV?$_List_val@U?$_List_simple_types@PAVMassC@VERTEX@@@std@@@1@@Z
	??D?$_List_const_iterator@V?$_List_val@U?$_List_simple_types@PAVMassC@VERTEX@@@std@@@std@@@std@@QBEABQAVMassC@VERTEX@@XZ
	??E?$_List_const_iterator@V?$_List_val@U?$_List_simple_types@PAVMassC@VERTEX@@@std@@@std@@@std@@QAEAAV01@XZ
	??E?$_List_const_iterator@V?$_List_val@U?$_List_simple_types@PAVMassC@VERTEX@@@std@@@std@@@std@@QAE?AV01@H@Z
	??8?$_List_const_iterator@V?$_List_val@U?$_List_simple_types@PAVMassC@VERTEX@@@std@@@std@@@std@@QBE_NABV01@@Z
	??9?$_List_const_iterator@V?$_List_val@U?$_List_simple_types@PAVMassC@VERTEX@@@std@@@std@@@std@@QBE_NABV01@@Z
	??0?$_List_iterator@V?$_List_val@U?$_List_simple_types@PAVMassC@VERTEX@@@std@@@std@@@std@@QAE@PAU?$_List_node@PAVMassC@VERTEX@@PAX@1@PBV?$_List_val@U?$_List_simple_types@PAVMassC@VERTEX@@@std@@@1@@Z
	??D?$_List_iterator@V?$_List_val@U?$_List_simple_types@PAVMassC@VERTEX@@@std@@@std@@@std@@QBEAAPAVMassC@VERTEX@@XZ
	??E?$_List_iterator@V?$_List_val@U?$_List_simple_types@PAVMassC@VERTEX@@@std@@@std@@@std@@QAEAAV01@XZ
	??E?$_List_iterator@V?$_List_val@U?$_List_simple_types@PAVMassC@VERTEX@@@std@@@std@@@std@@QAE?AV01@H@Z
	??$addressof@PAVMassC@VERTEX@@@std@@YAPAPAVMassC@VERTEX@@AAPAV12@@Z
	??$addressof@QAVMassC@VERTEX@@@std@@YAPBQAVMassC@VERTEX@@ABQAV12@@Z
	??$construct@PADAAPAD@?$_Wrap_alloc@V?$allocator@D@std@@@std@@QAEXPAPADAAPAD@Z
	??$destroy@PAD@?$_Wrap_alloc@V?$allocator@D@std@@@std@@QAEXPAPAD@Z
	??$addressof@D@std@@YAPADAAD@Z
	??$_Destroy_range@U?$_Wrap_alloc@V?$allocator@PAVRelation@VERTEX@@@std@@@std@@@std@@YAXPAPAVRelation@VERTEX@@0AAU?$_Wrap_alloc@V?$allocator@PAVRelation@VERTEX@@@std@@@0@@Z
	??$_Umove@PAPAVRelation@VERTEX@@@?$vector@PAVRelation@VERTEX@@V?$allocator@PAVRelation@VERTEX@@@std@@@std@@IAEPAPAVRelation@VERTEX@@PAPAV23@00@Z
	??$addressof@PAU?$_List_node@PAVMassC@VERTEX@@PAX@std@@@std@@YAPAPAU?$_List_node@PAVMassC@VERTEX@@PAX@0@AAPAU10@@Z
	??$destroy@PAU?$_List_node@PAVMassC@VERTEX@@PAX@std@@@?$_Wrap_alloc@V?$allocator@U?$_List_node@PAVMassC@VERTEX@@PAX@std@@@std@@@std@@QAEXPAPAU?$_List_node@PAVMassC@VERTEX@@PAX@1@@Z
	??$destroy@PAVMassC@VERTEX@@@?$_Wrap_alloc@V?$allocator@U?$_List_node@PAVMassC@VERTEX@@PAX@std@@@std@@@std@@QAEXPAPAVMassC@VERTEX@@@Z
	??$_Allocate@PAVRelation@VERTEX@@@std@@YAPAPAVRelation@VERTEX@@IPAPAV12@@Z
	??$_Allocate@D@std@@YAPADIPAD@Z
	??$forward@AAPAVRelation@VERTEX@@@std@@YAAAPAVRelation@VERTEX@@AAPAV12@@Z
	??$construct@PAVRelation@VERTEX@@AAPAV12@@?$allocator_traits@V?$allocator@PAVRelation@VERTEX@@@std@@@std@@SAXAAV?$allocator@PAVRelation@VERTEX@@@1@PAPAVRelation@VERTEX@@AAPAV34@@Z
	??$forward@ABQAVRelation@VERTEX@@@std@@YAABQAVRelation@VERTEX@@ABQAV12@@Z
	??$construct@PAVRelation@VERTEX@@ABQAV12@@?$allocator_traits@V?$allocator@PAVRelation@VERTEX@@@std@@@std@@SAXAAV?$allocator@PAVRelation@VERTEX@@@1@PAPAVRelation@VERTEX@@ABQAV34@@Z
	??$forward@ABQAVMassC@VERTEX@@@std@@YAABQAVMassC@VERTEX@@ABQAV12@@Z
	??$_Buynode@ABQAVMassC@VERTEX@@@?$_List_buy@PAVMassC@VERTEX@@V?$allocator@PAVMassC@VERTEX@@@std@@@std@@QAEPAU?$_List_node@PAVMassC@VERTEX@@PAX@1@PAU21@0ABQAVMassC@VERTEX@@@Z
	??$forward@AAPAD@std@@YAAAPADAAPAD@Z
	??$construct@PADAAPAD@?$allocator_traits@V?$allocator@D@std@@@std@@SAXAAV?$allocator@D@1@PAPADAAPAD@Z
	??$destroy@PAD@?$allocator_traits@V?$allocator@D@std@@@std@@SAXAAV?$allocator@D@1@PAPAD@Z
	??$_Ptr_cat@PAVRelation@VERTEX@@PAV12@@std@@YA?AU_Scalar_ptr_iterator_tag@0@PAPAVRelation@VERTEX@@0@Z
	??$_Destroy_range@U?$_Wrap_alloc@V?$allocator@PAVRelation@VERTEX@@@std@@@std@@@std@@YAXPAPAVRelation@VERTEX@@0AAU?$_Wrap_alloc@V?$allocator@PAVRelation@VERTEX@@@std@@@0@U_Scalar_ptr_iterator_tag@0@@Z
	??$_Uninitialized_move@PAPAVRelation@VERTEX@@PAPAV12@U?$_Wrap_alloc@V?$allocator@PAVRelation@VERTEX@@@std@@@std@@@std@@YAPAPAVRelation@VERTEX@@PAPAV12@00AAU?$_Wrap_alloc@V?$allocator@PAVRelation@VERTEX@@@std@@@0@@Z
	??$destroy@PAU?$_List_node@PAVMassC@VERTEX@@PAX@std@@@?$allocator_traits@V?$allocator@U?$_List_node@PAVMassC@VERTEX@@PAX@std@@@std@@@std@@SAXAAV?$allocator@U?$_List_node@PAVMassC@VERTEX@@PAX@std@@@1@PAPAU?$_List_node@PAVMassC@VERTEX@@PAX@1@@Z
	??$destroy@PAVMassC@VERTEX@@@?$allocator_traits@V?$allocator@U?$_List_node@PAVMassC@VERTEX@@PAX@std@@@std@@@std@@SAXAAV?$allocator@U?$_List_node@PAVMassC@VERTEX@@PAX@std@@@1@PAPAVMassC@VERTEX@@@Z
	??$construct@PAVRelation@VERTEX@@AAPAV12@@?$allocator@PAVRelation@VERTEX@@@std@@QAEXPAPAVRelation@VERTEX@@AAPAV23@@Z
	??$construct@PAVMassC@VERTEX@@ABQAV12@@?$_Wrap_alloc@V?$allocator@U?$_List_node@PAVMassC@VERTEX@@PAX@std@@@std@@@std@@QAEXPAPAVMassC@VERTEX@@ABQAV23@@Z
	??$construct@PADAAPAD@?$allocator@D@std@@QAEXPAPADAAPAD@Z
	??$destroy@PAD@?$allocator@D@std@@QAEXPAPAD@Z
	??$_Unchecked@PAPAVRelation@VERTEX@@@std@@YAPAPAVRelation@VERTEX@@PAPAV12@@Z
	??$_Uninit_move@PAPAVRelation@VERTEX@@PAPAV12@U?$_Wrap_alloc@V?$allocator@PAVRelation@VERTEX@@@std@@@std@@@std@@YAPAPAVRelation@VERTEX@@PAPAV12@00AAU?$_Wrap_alloc@V?$allocator@PAVRelation@VERTEX@@@std@@@0@@Z
	??$_Rechecked@PAPAVRelation@VERTEX@@PAPAV12@@std@@YAAAPAPAVRelation@VERTEX@@AAPAPAV12@PAPAV12@@Z
	??$destroy@PAU?$_List_node@PAVMassC@VERTEX@@PAX@std@@@?$allocator@U?$_List_node@PAVMassC@VERTEX@@PAX@std@@@std@@QAEXPAPAU?$_List_node@PAVMassC@VERTEX@@PAX@1@@Z
	??$destroy@PAVMassC@VERTEX@@@?$allocator@U?$_List_node@PAVMassC@VERTEX@@PAX@std@@@std@@QAEXPAPAVMassC@VERTEX@@@Z
	??$construct@PAU?$_List_node@PAVMassC@VERTEX@@PAX@std@@AAPAU12@@?$_Wrap_alloc@V?$allocator@U?$_List_node@PAVMassC@VERTEX@@PAX@std@@@std@@@std@@QAEXPAPAU?$_List_node@PAVMassC@VERTEX@@PAX@1@AAPAU21@@Z
	??$_Allocate@U?$_List_node@PAVMassC@VERTEX@@PAX@std@@@std@@YAPAU?$_List_node@PAVMassC@VERTEX@@PAX@0@IPAU10@@Z
	??$construct@PAVMassC@VERTEX@@ABQAV12@@?$allocator_traits@V?$allocator@U?$_List_node@PAVMassC@VERTEX@@PAX@std@@@std@@@std@@SAXAAV?$allocator@U?$_List_node@PAVMassC@VERTEX@@PAX@std@@@1@PAPAVMassC@VERTEX@@ABQAV34@@Z
	??$_Val_type@PAPAVRelation@VERTEX@@@std@@YAPAPAVRelation@VERTEX@@PAPAV12@@Z
	??$_Uninit_move@PAVRelation@VERTEX@@PAV12@PAV12@@std@@YAPAPAVRelation@VERTEX@@PAPAV12@00AAU?$_Wrap_alloc@V?$allocator@PAVRelation@VERTEX@@@std@@@0@0U_Scalar_ptr_iterator_tag@0@@Z
	??$forward@AAPAU?$_List_node@PAVMassC@VERTEX@@PAX@std@@@std@@YAAAPAU?$_List_node@PAVMassC@VERTEX@@PAX@0@AAPAU10@@Z
	??$construct@PAU?$_List_node@PAVMassC@VERTEX@@PAX@std@@AAPAU12@@?$allocator_traits@V?$allocator@U?$_List_node@PAVMassC@VERTEX@@PAX@std@@@std@@@std@@SAXAAV?$allocator@U?$_List_node@PAVMassC@VERTEX@@PAX@std@@@1@PAPAU?$_List_node@PAVMassC@VERTEX@@PAX@1@AAPAU31@@Z
	??$construct@PAVMassC@VERTEX@@ABQAV12@@?$allocator@U?$_List_node@PAVMassC@VERTEX@@PAX@std@@@std@@QAEXPAPAVMassC@VERTEX@@ABQAV23@@Z
	??$construct@PAU?$_List_node@PAVMassC@VERTEX@@PAX@std@@AAPAU12@@?$allocator@U?$_List_node@PAVMassC@VERTEX@@PAX@std@@@std@@QAEXPAPAU?$_List_node@PAVMassC@VERTEX@@PAX@1@AAPAU21@@Z
	?_Generic_object@?$_Error_objects@H@std@@2V_Generic_error_category@2@A 	 DATA
	?_Iostream_object@?$_Error_objects@H@std@@2V_Iostream_error_category@2@A 	 DATA
	?_System_object@?$_Error_objects@H@std@@2V_System_error_category@2@A 	 DATA
	?id@?$num_put@DV?$back_insert_iterator@V?$basic_string@DU?$char_traits@D@std@@V?$allocator@D@2@@std@@@std@@@std@@2V0locale@2@A 	 DATA
	?id@?$num_put@_WV?$back_insert_iterator@V?$basic_string@_WU?$char_traits@_W@std@@V?$allocator@_W@2@@std@@@std@@@std@@2V0locale@2@A 	 DATA
	??_R0?AVerror_category@std@@@8 	 DATA
	??_R0?AV_Generic_error_category@std@@@8 	 DATA
	??_R0?AV_Iostream_error_category@std@@@8 	 DATA
	??_R0?AV_System_error_category@std@@@8 	 DATA
	??_R0?AVMassC@VERTEX@@@8 	 DATA
	hypot
	??2@YAPAXIPAX@Z
	??3@YAXPAX0@Z
	?length@?$char_traits@D@std@@SAIPBD@Z
	?copy@?$char_traits@D@std@@SAPADPADPBDI@Z
	?move@?$char_traits@D@std@@SAPADPADPBDI@Z
	?assign@?$char_traits@D@std@@SAXAADABD@Z
	?eq_int_type@?$char_traits@D@std@@SA_NABH0@Z
	?eof@?$char_traits@D@std@@SAHXZ
	?_Adopt@_Iterator_base0@std@@QAEXPBX@Z
	??0?$allocator@D@std@@QAE@XZ
	?deallocate@?$allocator@D@std@@QAEXPADI@Z
	?allocate@?$allocator@D@std@@QAEPADI@Z
	?max_size@?$allocator@D@std@@QBEIXZ
	?max_size@?$allocator_traits@V?$allocator@D@std@@@std@@SAIABV?$allocator@D@2@@Z
	??0?$_Wrap_alloc@V?$allocator@D@std@@@std@@QAE@XZ
	?allocate@?$_Wrap_alloc@V?$allocator@D@std@@@std@@QAEPADI@Z
	?deallocate@?$_Wrap_alloc@V?$allocator@D@std@@@std@@QAEXPADI@Z
	?max_size@?$_Wrap_alloc@V?$allocator@D@std@@@std@@QBEIXZ
	??0?$_String_val@U?$_Simple_types@D@std@@@std@@QAE@XZ
	?_Myptr@?$_String_val@U?$_Simple_types@D@std@@@std@@QAEPADXZ
	?_Myptr@?$_String_val@U?$_Simple_types@D@std@@@std@@QBEPBDXZ
	??0?$_String_alloc@$0A@U?$_String_base_types@DV?$allocator@D@std@@@std@@@std@@QAE@ABV?$allocator@D@1@@Z
	?_Getal@?$_String_alloc@$0A@U?$_String_base_types@DV?$allocator@D@std@@@std@@@std@@QBE?AU?$_Wrap_alloc@V?$allocator@D@std@@@2@XZ
	??0?$basic_string@DU?$char_traits@D@std@@V?$allocator@D@2@@std@@QAE@PBD@Z
	??1?$basic_string@DU?$char_traits@D@std@@V?$allocator@D@2@@std@@QAE@XZ
	?assign@?$basic_string@DU?$char_traits@D@std@@V?$allocator@D@2@@std@@QAEAAV12@ABV12@II@Z
	?assign@?$basic_string@DU?$char_traits@D@std@@V?$allocator@D@2@@std@@QAEAAV12@PBDI@Z
	?assign@?$basic_string@DU?$char_traits@D@std@@V?$allocator@D@2@@std@@QAEAAV12@PBD@Z
	?erase@?$basic_string@DU?$char_traits@D@std@@V?$allocator@D@2@@std@@QAEAAV12@I@Z
	?erase@?$basic_string@DU?$char_traits@D@std@@V?$allocator@D@2@@std@@QAEAAV12@II@Z
	?size@?$basic_string@DU?$char_traits@D@std@@V?$allocator@D@2@@std@@QBEIXZ
	?max_size@?$basic_string@DU?$char_traits@D@std@@V?$allocator@D@2@@std@@QBEIXZ
	?_Copy@?$basic_string@DU?$char_traits@D@std@@V?$allocator@D@2@@std@@QAEXII@Z
	?_Eos@?$basic_string@DU?$char_traits@D@std@@V?$allocator@D@2@@std@@QAEXI@Z
	?_Grow@?$basic_string@DU?$char_traits@D@std@@V?$allocator@D@2@@std@@QAE_NI_N@Z
	?_Inside@?$basic_string@DU?$char_traits@D@std@@V?$allocator@D@2@@std@@QAE_NPBD@Z
	?_Tidy@?$basic_string@DU?$char_traits@D@std@@V?$allocator@D@2@@std@@QAEX_NI@Z
	?_Xlen@?$basic_string@DU?$char_traits@D@std@@V?$allocator@D@2@@std@@QBEXXZ
	?_Xran@?$basic_string@DU?$char_traits@D@std@@V?$allocator@D@2@@std@@QBEXXZ
	?generic_category@std@@YAABVerror_category@1@XZ
	?system_category@std@@YAABVerror_category@1@XZ
	??0error_category@std@@QAE@XZ
	??1error_category@std@@UAE@XZ
	?default_error_condition@error_category@std@@UBE?AVerror_condition@2@H@Z
	?equivalent@error_category@std@@UBE_NHABVerror_condition@2@@Z
	?equivalent@error_category@std@@UBE_NABVerror_code@2@H@Z
	??8error_category@std@@QBE_NABV01@@Z
	?value@error_code@std@@QBEHXZ
	?category@error_code@std@@QBEABVerror_category@2@XZ
	??0error_condition@std@@QAE@HABVerror_category@1@@Z
	?value@error_condition@std@@QBEHXZ
	?category@error_condition@std@@QBEABVerror_category@2@XZ
	??8error_condition@std@@QBE_NABV01@@Z
	??0_Generic_error_category@std@@QAE@XZ
	?name@_Generic_error_category@std@@UBEPBDXZ
	?message@_Generic_error_category@std@@UBE?AV?$basic_string@DU?$char_traits@D@std@@V?$allocator@D@2@@2@H@Z
	??1_Generic_error_category@std@@UAE@XZ
	??0_Iostream_error_category@std@@QAE@XZ
	?name@_Iostream_error_category@std@@UBEPBDXZ
	?message@_Iostream_error_category@std@@UBE?AV?$basic_string@DU?$char_traits@D@std@@V?$allocator@D@2@@2@H@Z
	??1_Iostream_error_category@std@@UAE@XZ
	??0_System_error_category@std@@QAE@XZ
	?name@_System_error_category@std@@UBEPBDXZ
	?message@_System_error_category@std@@UBE?AV?$basic_string@DU?$char_traits@D@std@@V?$allocator@D@2@@2@H@Z
	?default_error_condition@_System_error_category@std@@UBE?AVerror_condition@2@H@Z
	??1_System_error_category@std@@UAE@XZ
	?createRelation@VERTEX@@YA_NAAVTrack@1@AAVVertex@1@@Z
	??0?$allocator@PAVRelation@VERTEX@@@std@@QAE@XZ
	??0?$allocator@U?$_List_node@PAVRelation@VERTEX@@PAX@std@@@std@@QAE@XZ
	??0?$allocator@U?$_List_node@PAVRelation@VERTEX@@PAX@std@@@std@@QAE@ABV01@@Z
	?deallocate@?$allocator@U?$_List_node@PAVRelation@VERTEX@@PAX@std@@@std@@QAEXPAU?$_List_node@PAVRelation@VERTEX@@PAX@2@I@Z
	?allocate@?$allocator@U?$_List_node@PAVRelation@VERTEX@@PAX@std@@@std@@QAEPAU?$_List_node@PAVRelation@VERTEX@@PAX@2@I@Z
	?max_size@?$allocator@U?$_List_node@PAVRelation@VERTEX@@PAX@std@@@std@@QBEIXZ
	?max_size@?$allocator_traits@V?$allocator@U?$_List_node@PAVRelation@VERTEX@@PAX@std@@@std@@@std@@SAIABV?$allocator@U?$_List_node@PAVRelation@VERTEX@@PAX@std@@@2@@Z
	??0?$_Wrap_alloc@V?$allocator@U?$_List_node@PAVRelation@VERTEX@@PAX@std@@@std@@@std@@QAE@XZ
	?allocate@?$_Wrap_alloc@V?$allocator@U?$_List_node@PAVRelation@VERTEX@@PAX@std@@@std@@@std@@QAEPAU?$_List_node@PAVRelation@VERTEX@@PAX@2@I@Z
	?deallocate@?$_Wrap_alloc@V?$allocator@U?$_List_node@PAVRelation@VERTEX@@PAX@std@@@std@@@std@@QAEXPAU?$_List_node@PAVRelation@VERTEX@@PAX@2@I@Z
	?max_size@?$_Wrap_alloc@V?$allocator@U?$_List_node@PAVRelation@VERTEX@@PAX@std@@@std@@@std@@QBEIXZ
	??0?$_List_val@U?$_List_simple_types@PAVRelation@VERTEX@@@std@@@std@@QAE@XZ
	?_Nextnode@?$_List_val@U?$_List_simple_types@PAVRelation@VERTEX@@@std@@@std@@SAAAPAU?$_List_node@PAVRelation@VERTEX@@PAX@2@PAU32@@Z
	?_Prevnode@?$_List_val@U?$_List_simple_types@PAVRelation@VERTEX@@@std@@@std@@SAAAPAU?$_List_node@PAVRelation@VERTEX@@PAX@2@PAU32@@Z
	?_Myval@?$_List_val@U?$_List_simple_types@PAVRelation@VERTEX@@@std@@@std@@SAAAPAVRelation@VERTEX@@PAU?$_List_node@PAVRelation@VERTEX@@PAX@2@@Z
	??0?$_List_alloc@$0A@U?$_List_base_types@PAVRelation@VERTEX@@V?$allocator@PAVRelation@VERTEX@@@std@@@std@@@std@@QAE@ABV?$allocator@PAVRelation@VERTEX@@@1@@Z
	??1?$_List_alloc@$0A@U?$_List_base_types@PAVRelation@VERTEX@@V?$allocator@PAVRelation@VERTEX@@@std@@@std@@@std@@QAE@XZ
	?_Change_alloc@?$_List_alloc@$0A@U?$_List_base_types@PAVRelation@VERTEX@@V?$allocator@PAVRelation@VERTEX@@@std@@@std@@@std@@QAEXABU?$_Wrap_alloc@V?$allocator@U?$_List_node@PAVRelation@VERTEX@@PAX@std@@@std@@@2@@Z
	?_Buyheadnode@?$_List_alloc@$0A@U?$_List_base_types@PAVRelation@VERTEX@@V?$allocator@PAVRelation@VERTEX@@@std@@@std@@@std@@QAEPAU?$_List_node@PAVRelation@VERTEX@@PAX@2@XZ
	?_Freeheadnode@?$_List_alloc@$0A@U?$_List_base_types@PAVRelation@VERTEX@@V?$allocator@PAVRelation@VERTEX@@@std@@@std@@@std@@QAEXPAU?$_List_node@PAVRelation@VERTEX@@PAX@2@@Z
	?_Buynode0@?$_List_alloc@$0A@U?$_List_base_types@PAVRelation@VERTEX@@V?$allocator@PAVRelation@VERTEX@@@std@@@std@@@std@@QAEPAU?$_List_node@PAVRelation@VERTEX@@PAX@2@PAU32@0@Z
	?_Getal@?$_List_alloc@$0A@U?$_List_base_types@PAVRelation@VERTEX@@V?$allocator@PAVRelation@VERTEX@@@std@@@std@@@std@@QBE?AU?$_Wrap_alloc@V?$allocator@U?$_List_node@PAVRelation@VERTEX@@PAX@std@@@std@@@2@XZ
	??0?$_List_buy@PAVRelation@VERTEX@@V?$allocator@PAVRelation@VERTEX@@@std@@@std@@QAE@ABV?$allocator@PAVRelation@VERTEX@@@1@@Z
	?_Freenode@?$_List_buy@PAVRelation@VERTEX@@V?$allocator@PAVRelation@VERTEX@@@std@@@std@@QAEXPAU?$_List_node@PAVRelation@VERTEX@@PAX@2@@Z
	??1?$_List_buy@PAVRelation@VERTEX@@V?$allocator@PAVRelation@VERTEX@@@std@@@std@@QAE@XZ
	??0?$list@PAVRelation@VERTEX@@V?$allocator@PAVRelation@VERTEX@@@std@@@std@@QAE@XZ
	??1?$list@PAVRelation@VERTEX@@V?$allocator@PAVRelation@VERTEX@@@std@@@std@@QAE@XZ
	??4?$list@PAVRelation@VERTEX@@V?$allocator@PAVRelation@VERTEX@@@std@@@std@@QAEAAV01@ABV01@@Z
	?begin@?$list@PAVRelation@VERTEX@@V?$allocator@PAVRelation@VERTEX@@@std@@@std@@QAE?AV?$_List_iterator@V?$_List_val@U?$_List_simple_types@PAVRelation@VERTEX@@@std@@@std@@@2@XZ
	?begin@?$list@PAVRelation@VERTEX@@V?$allocator@PAVRelation@VERTEX@@@std@@@std@@QBE?AV?$_List_const_iterator@V?$_List_val@U?$_List_simple_types@PAVRelation@VERTEX@@@std@@@std@@@2@XZ
	?end@?$list@PAVRelation@VERTEX@@V?$allocator@PAVRelation@VERTEX@@@std@@@std@@QAE?AV?$_List_iterator@V?$_List_val@U?$_List_simple_types@PAVRelation@VERTEX@@@std@@@std@@@2@XZ
	?end@?$list@PAVRelation@VERTEX@@V?$allocator@PAVRelation@VERTEX@@@std@@@std@@QBE?AV?$_List_const_iterator@V?$_List_val@U?$_List_simple_types@PAVRelation@VERTEX@@@std@@@std@@@2@XZ
	?_Unchecked_end@?$list@PAVRelation@VERTEX@@V?$allocator@PAVRelation@VERTEX@@@std@@@std@@QAE?AV?$_List_unchecked_iterator@V?$_List_val@U?$_List_simple_types@PAVRelation@VERTEX@@@std@@@std@@@2@XZ
	?_Make_iter@?$list@PAVRelation@VERTEX@@V?$allocator@PAVRelation@VERTEX@@@std@@@std@@QBE?AV?$_List_iterator@V?$_List_val@U?$_List_simple_types@PAVRelation@VERTEX@@@std@@@std@@@2@V?$_List_const_iterator@V?$_List_val@U?$_List_simple_types@PAVRelation@VERTEX@@@std@@@std@@@2@@Z
	?size@?$list@PAVRelation@VERTEX@@V?$allocator@PAVRelation@VERTEX@@@std@@@std@@QBEIXZ
	?max_size@?$list@PAVRelation@VERTEX@@V?$allocator@PAVRelation@VERTEX@@@std@@@std@@QBEIXZ
	?empty@?$list@PAVRelation@VERTEX@@V?$allocator@PAVRelation@VERTEX@@@std@@@std@@QBE_NXZ
	?back@?$list@PAVRelation@VERTEX@@V?$allocator@PAVRelation@VERTEX@@@std@@@std@@QAEAAPAVRelation@VERTEX@@XZ
	?push_back@?$list@PAVRelation@VERTEX@@V?$allocator@PAVRelation@VERTEX@@@std@@@std@@QAEXABQAVRelation@VERTEX@@@Z
	?_Unlinknode@?$list@PAVRelation@VERTEX@@V?$allocator@PAVRelation@VERTEX@@@std@@@std@@QAEPAU?$_List_node@PAVRelation@VERTEX@@PAX@2@V?$_List_const_iterator@V?$_List_val@U?$_List_simple_types@PAVRelation@VERTEX@@@std@@@std@@@2@@Z
	?erase@?$list@PAVRelation@VERTEX@@V?$allocator@PAVRelation@VERTEX@@@std@@@std@@QAE?AV?$_List_iterator@V?$_List_val@U?$_List_simple_types@PAVRelation@VERTEX@@@std@@@std@@@2@V?$_List_const_iterator@V?$_List_val@U?$_List_simple_types@PAVRelation@VERTEX@@@std@@@std@@@2@@Z
	?erase@?$list@PAVRelation@VERTEX@@V?$allocator@PAVRelation@VERTEX@@@std@@@std@@QAE?AV?$_List_iterator@V?$_List_val@U?$_List_simple_types@PAVRelation@VERTEX@@@std@@@std@@@2@V?$_List_const_iterator@V?$_List_val@U?$_List_simple_types@PAVRelation@VERTEX@@@std@@@std@@@2@0@Z
	?clear@?$list@PAVRelation@VERTEX@@V?$allocator@PAVRelation@VERTEX@@@std@@@std@@QAEXXZ
	?remove@?$list@PAVRelation@VERTEX@@V?$allocator@PAVRelation@VERTEX@@@std@@@std@@QAEXABQAVRelation@VERTEX@@@Z
	?_Tidy@?$list@PAVRelation@VERTEX@@V?$allocator@PAVRelation@VERTEX@@@std@@@std@@QAEXXZ
	?_Incsize@?$list@PAVRelation@VERTEX@@V?$allocator@PAVRelation@VERTEX@@@std@@@std@@QAEXI@Z
	??0?$_List_unchecked_const_iterator@V?$_List_val@U?$_List_simple_types@PAVRelation@VERTEX@@@std@@@std@@U_Iterator_base0@2@@std@@QAE@XZ
	??0?$_List_unchecked_const_iterator@V?$_List_val@U?$_List_simple_types@PAVRelation@VERTEX@@@std@@@std@@U_Iterator_base0@2@@std@@QAE@PAU?$_List_node@PAVRelation@VERTEX@@PAX@1@PBV?$_List_val@U?$_List_simple_types@PAVRelation@VERTEX@@@std@@@1@@Z
	?_Mynode@?$_List_unchecked_const_iterator@V?$_List_val@U?$_List_simple_types@PAVRelation@VERTEX@@@std@@@std@@U_Iterator_base0@2@@std@@QBEPAU?$_List_node@PAVRelation@VERTEX@@PAX@2@XZ
	??0?$_List_const_iterator@V?$_List_val@U?$_List_simple_types@PAVRelation@VERTEX@@@std@@@std@@@std@@QAE@XZ
	??0?$_List_const_iterator@V?$_List_val@U?$_List_simple_types@PAVRelation@VERTEX@@@std@@@std@@@std@@QAE@PAU?$_List_node@PAVRelation@VERTEX@@PAX@1@PBV?$_List_val@U?$_List_simple_types@PAVRelation@VERTEX@@@std@@@1@@Z
	??D?$_List_const_iterator@V?$_List_val@U?$_List_simple_types@PAVRelation@VERTEX@@@std@@@std@@@std@@QBEABQAVRelation@VERTEX@@XZ
	??E?$_List_const_iterator@V?$_List_val@U?$_List_simple_types@PAVRelation@VERTEX@@@std@@@std@@@std@@QAEAAV01@XZ
	??E?$_List_const_iterator@V?$_List_val@U?$_List_simple_types@PAVRelation@VERTEX@@@std@@@std@@@std@@QAE?AV01@H@Z
	??F?$_List_const_iterator@V?$_List_val@U?$_List_simple_types@PAVRelation@VERTEX@@@std@@@std@@@std@@QAEAAV01@XZ
	??8?$_List_const_iterator@V?$_List_val@U?$_List_simple_types@PAVRelation@VERTEX@@@std@@@std@@@std@@QBE_NABV01@@Z
	??9?$_List_const_iterator@V?$_List_val@U?$_List_simple_types@PAVRelation@VERTEX@@@std@@@std@@@std@@QBE_NABV01@@Z
	??0?$_List_iterator@V?$_List_val@U?$_List_simple_types@PAVRelation@VERTEX@@@std@@@std@@@std@@QAE@XZ
	??0?$_List_iterator@V?$_List_val@U?$_List_simple_types@PAVRelation@VERTEX@@@std@@@std@@@std@@QAE@PAU?$_List_node@PAVRelation@VERTEX@@PAX@1@PBV?$_List_val@U?$_List_simple_types@PAVRelation@VERTEX@@@std@@@1@@Z
	??D?$_List_iterator@V?$_List_val@U?$_List_simple_types@PAVRelation@VERTEX@@@std@@@std@@@std@@QBEAAPAVRelation@VERTEX@@XZ
	??E?$_List_iterator@V?$_List_val@U?$_List_simple_types@PAVRelation@VERTEX@@@std@@@std@@@std@@QAEAAV01@XZ
	??E?$_List_iterator@V?$_List_val@U?$_List_simple_types@PAVRelation@VERTEX@@@std@@@std@@@std@@QAE?AV01@H@Z
	??F?$_List_iterator@V?$_List_val@U?$_List_simple_types@PAVRelation@VERTEX@@@std@@@std@@@std@@QAEAAV01@XZ
	??0RelationIterator@VERTEX@@QAE@XZ
	??0RelationIterator@VERTEX@@QAE@ABV?$_List_iterator@V?$_List_val@U?$_List_simple_types@PAVRelation@VERTEX@@@std@@@std@@@std@@@Z
	??ERelationIterator@VERTEX@@QAEAAV01@XZ
	??FRelationIterator@VERTEX@@QAEAAV01@XZ
	??DRelationIterator@VERTEX@@QBEAAVRelation@1@XZ
	??CRelationIterator@VERTEX@@QBEPAVRelation@1@XZ
	?IsA@RelationIterator@VERTEX@@UBEPAVTClass@@XZ
	??0ConstRelationIterator@VERTEX@@QAE@XZ
	??EConstRelationIterator@VERTEX@@QAEAAV01@XZ
	??FConstRelationIterator@VERTEX@@QAEAAV01@XZ
	??DConstRelationIterator@VERTEX@@QBEABVRelation@1@XZ
	??CConstRelationIterator@VERTEX@@QBEQBVRelation@1@XZ
	?IsA@ConstRelationIterator@VERTEX@@UBEPAVTClass@@XZ
	??0?$_Revranit@V?$_List_iterator@V?$_List_val@U?$_List_simple_types@PAVRelation@VERTEX@@@std@@@std@@@std@@U?$iterator@Ubidirectional_iterator_tag@std@@PAVRelation@VERTEX@@HPAPAV34@AAPAV34@@2@@std@@QAE@XZ
	??D?$_Revranit@V?$_List_iterator@V?$_List_val@U?$_List_simple_types@PAVRelation@VERTEX@@@std@@@std@@@std@@U?$iterator@Ubidirectional_iterator_tag@std@@PAVRelation@VERTEX@@HPAPAV34@AAPAV34@@2@@std@@QBEAAPAVRelation@VERTEX@@XZ
	??E?$_Revranit@V?$_List_iterator@V?$_List_val@U?$_List_simple_types@PAVRelation@VERTEX@@@std@@@std@@@std@@U?$iterator@Ubidirectional_iterator_tag@std@@PAVRelation@VERTEX@@HPAPAV34@AAPAV34@@2@@std@@QAEAAV01@XZ
	??F?$_Revranit@V?$_List_iterator@V?$_List_val@U?$_List_simple_types@PAVRelation@VERTEX@@@std@@@std@@@std@@U?$iterator@Ubidirectional_iterator_tag@std@@PAVRelation@VERTEX@@HPAPAV34@AAPAV34@@2@@std@@QAEAAV01@XZ
	??0?$reverse_iterator@V?$_List_iterator@V?$_List_val@U?$_List_simple_types@PAVRelation@VERTEX@@@std@@@std@@@std@@@std@@QAE@XZ
	??E?$reverse_iterator@V?$_List_iterator@V?$_List_val@U?$_List_simple_types@PAVRelation@VERTEX@@@std@@@std@@@std@@@std@@QAEAAV01@XZ
	??F?$reverse_iterator@V?$_List_iterator@V?$_List_val@U?$_List_simple_types@PAVRelation@VERTEX@@@std@@@std@@@std@@@std@@QAEAAV01@XZ
	??0ReverseRelationIterator@VERTEX@@QAE@XZ
	??EReverseRelationIterator@VERTEX@@QAEAAV01@XZ
	??FReverseRelationIterator@VERTEX@@QAEAAV01@XZ
	??DReverseRelationIterator@VERTEX@@QBEAAVRelation@1@XZ
	??CReverseRelationIterator@VERTEX@@QBEPAVRelation@1@XZ
	?IsA@ReverseRelationIterator@VERTEX@@UBEPAVTClass@@XZ
	??0?$_Revranit@V?$_List_const_iterator@V?$_List_val@U?$_List_simple_types@PAVRelation@VERTEX@@@std@@@std@@@std@@U?$iterator@Ubidirectional_iterator_tag@std@@PAVRelation@VERTEX@@HPBQAV34@ABQAV34@@2@@std@@QAE@XZ
	??D?$_Revranit@V?$_List_const_iterator@V?$_List_val@U?$_List_simple_types@PAVRelation@VERTEX@@@std@@@std@@@std@@U?$iterator@Ubidirectional_iterator_tag@std@@PAVRelation@VERTEX@@HPBQAV34@ABQAV34@@2@@std@@QBEABQAVRelation@VERTEX@@XZ
	??E?$_Revranit@V?$_List_const_iterator@V?$_List_val@U?$_List_simple_types@PAVRelation@VERTEX@@@std@@@std@@@std@@U?$iterator@Ubidirectional_iterator_tag@std@@PAVRelation@VERTEX@@HPBQAV34@ABQAV34@@2@@std@@QAEAAV01@XZ
	??F?$_Revranit@V?$_List_const_iterator@V?$_List_val@U?$_List_simple_types@PAVRelation@VERTEX@@@std@@@std@@@std@@U?$iterator@Ubidirectional_iterator_tag@std@@PAVRelation@VERTEX@@HPBQAV34@ABQAV34@@2@@std@@QAEAAV01@XZ
	??0?$reverse_iterator@V?$_List_const_iterator@V?$_List_val@U?$_List_simple_types@PAVRelation@VERTEX@@@std@@@std@@@std@@@std@@QAE@XZ
	??E?$reverse_iterator@V?$_List_const_iterator@V?$_List_val@U?$_List_simple_types@PAVRelation@VERTEX@@@std@@@std@@@std@@@std@@QAEAAV01@XZ
	??F?$reverse_iterator@V?$_List_const_iterator@V?$_List_val@U?$_List_simple_types@PAVRelation@VERTEX@@@std@@@std@@@std@@@std@@QAEAAV01@XZ
	??0ConstReverseRelationIterator@VERTEX@@QAE@XZ
	??EConstReverseRelationIterator@VERTEX@@QAEAAV01@XZ
	??FConstReverseRelationIterator@VERTEX@@QAEAAV01@XZ
	??DConstReverseRelationIterator@VERTEX@@QBEABVRelation@1@XZ
	??CConstReverseRelationIterator@VERTEX@@QBEQBVRelation@1@XZ
	?IsA@ConstReverseRelationIterator@VERTEX@@UBEPAVTClass@@XZ
	??0RelationList@VERTEX@@QAE@XZ
	??1RelationList@VERTEX@@UAE@XZ
	?clear@RelationList@VERTEX@@UAEXXZ
	?push__back@RelationList@VERTEX@@QAEXPAVRelation@2@@Z
	?erase@RelationList@VERTEX@@UAE?BVRelationIterator@2@ABV32@@Z
	??ARelationList@VERTEX@@QBEQAVRelation@1@I@Z
	?print@RelationList@VERTEX@@QBEXAAV?$basic_ostream@DU?$char_traits@D@std@@@std@@@Z
	?unbook@RelationList@VERTEX@@QAEXQAVRelation@2@@Z
	?remove@RelationList@VERTEX@@UAEXQAVRelation@2@@Z
	??4RelationList@VERTEX@@QAEABV01@ABV01@@Z
	?IsA@RelationList@VERTEX@@UBEPAVTClass@@XZ
	??6VERTEX@@YAAAV?$basic_ostream@DU?$char_traits@D@std@@@std@@AAV12@ABVRelation@0@@Z
	??$?6U?$char_traits@D@std@@@std@@YAAAV?$basic_ostream@DU?$char_traits@D@std@@@0@AAV10@PBD@Z
	??$?9V?$allocator@U?$_List_node@PAVRelation@VERTEX@@PAX@std@@@std@@V01@@std@@YA_NABU?$_Wrap_alloc@V?$allocator@U?$_List_node@PAVRelation@VERTEX@@PAX@std@@@std@@@0@0@Z
	??$assign@V?$_List_const_iterator@V?$_List_val@U?$_List_simple_types@PAVRelation@VERTEX@@@std@@@std@@@std@@@?$list@PAVRelation@VERTEX@@V?$allocator@PAVRelation@VERTEX@@@std@@@std@@QAEXV?$_List_const_iterator@V?$_List_val@U?$_List_simple_types@PAVRelation@VERTEX@@@std@@@std@@@1@0@Z
	??0?$_List_unchecked_iterator@V?$_List_val@U?$_List_simple_types@PAVRelation@VERTEX@@@std@@@std@@@std@@QAE@PAU?$_List_node@PAVRelation@VERTEX@@PAX@1@PBV?$_List_val@U?$_List_simple_types@PAVRelation@VERTEX@@@std@@@1@@Z
	??$_Insert@ABQAVRelation@VERTEX@@@?$list@PAVRelation@VERTEX@@V?$allocator@PAVRelation@VERTEX@@@std@@@std@@QAEXV?$_List_unchecked_const_iterator@V?$_List_val@U?$_List_simple_types@PAVRelation@VERTEX@@@std@@@std@@U_Iterator_base0@2@@1@ABQAVRelation@VERTEX@@@Z
	??$addressof@PAVRelation@VERTEX@@@std@@YAPAPAVRelation@VERTEX@@AAPAV12@@Z
	??$addressof@QAVRelation@VERTEX@@@std@@YAPBQAVRelation@VERTEX@@ABQAV12@@Z
	??$construct@PADAAPAD@?$_Wrap_alloc@V?$allocator@D@std@@@std@@QAEXPAPADAAPAD@Z
	??$destroy@PAD@?$_Wrap_alloc@V?$allocator@D@std@@@std@@QAEXPAPAD@Z
	??$addressof@D@std@@YAPADAAD@Z
	??$addressof@PAU?$_List_node@PAVRelation@VERTEX@@PAX@std@@@std@@YAPAPAU?$_List_node@PAVRelation@VERTEX@@PAX@0@AAPAU10@@Z
	??$destroy@PAU?$_List_node@PAVRelation@VERTEX@@PAX@std@@@?$_Wrap_alloc@V?$allocator@U?$_List_node@PAVRelation@VERTEX@@PAX@std@@@std@@@std@@QAEXPAPAU?$_List_node@PAVRelation@VERTEX@@PAX@1@@Z
	??$destroy@PAVRelation@VERTEX@@@?$_Wrap_alloc@V?$allocator@U?$_List_node@PAVRelation@VERTEX@@PAX@std@@@std@@@std@@QAEXPAPAVRelation@VERTEX@@@Z
	??0_Sentry_base@?$basic_ostream@DU?$char_traits@D@std@@@std@@QAE@AAV12@@Z
	??1_Sentry_base@?$basic_ostream@DU?$char_traits@D@std@@@std@@QAE@XZ
	??0sentry@?$basic_ostream@DU?$char_traits@D@std@@@std@@QAE@AAV12@@Z
	??1sentry@?$basic_ostream@DU?$char_traits@D@std@@@std@@QAE@XZ
	??Bsentry@?$basic_ostream@DU?$char_traits@D@std@@@std@@QBE_NXZ
	??$construct@PAU?$_List_node@PAVRelation@VERTEX@@PAX@std@@AAPAU12@@?$_Wrap_alloc@V?$allocator@U?$_List_node@PAVRelation@VERTEX@@PAX@std@@@std@@@std@@QAEXPAPAU?$_List_node@PAVRelation@VERTEX@@PAX@1@AAPAU21@@Z
	??$_Allocate@D@std@@YAPADIPAD@Z
	??$_Allocate@U?$_List_node@PAVRelation@VERTEX@@PAX@std@@@std@@YAPAU?$_List_node@PAVRelation@VERTEX@@PAX@0@IPAU10@@Z
	??$?8V?$allocator@U?$_List_node@PAVRelation@VERTEX@@PAX@std@@@std@@V01@@std@@YA_NABU?$_Wrap_alloc@V?$allocator@U?$_List_node@PAVRelation@VERTEX@@PAX@std@@@std@@@0@0@Z
	??$?8U?$_List_node@PAVRelation@VERTEX@@PAX@std@@U01@@std@@YA_NABV?$allocator@U?$_List_node@PAVRelation@VERTEX@@PAX@std@@@0@0@Z
	??$_Reusenode@ABQAVRelation@VERTEX@@@?$list@PAVRelation@VERTEX@@V?$allocator@PAVRelation@VERTEX@@@std@@@std@@QAEXV?$_List_iterator@V?$_List_val@U?$_List_simple_types@PAVRelation@VERTEX@@@std@@@std@@@1@ABQAVRelation@VERTEX@@@Z
	??$forward@ABQAVRelation@VERTEX@@@std@@YAABQAVRelation@VERTEX@@ABQAV12@@Z
	??$_Buynode@ABQAVRelation@VERTEX@@@?$_List_buy@PAVRelation@VERTEX@@V?$allocator@PAVRelation@VERTEX@@@std@@@std@@QAEPAU?$_List_node@PAVRelation@VERTEX@@PAX@1@PAU21@0ABQAVRelation@VERTEX@@@Z
	??$forward@AAPAD@std@@YAAAPADAAPAD@Z
	??$construct@PADAAPAD@?$allocator_traits@V?$allocator@D@std@@@std@@SAXAAV?$allocator@D@1@PAPADAAPAD@Z
	??$destroy@PAD@?$allocator_traits@V?$allocator@D@std@@@std@@SAXAAV?$allocator@D@1@PAPAD@Z
	??$destroy@PAU?$_List_node@PAVRelation@VERTEX@@PAX@std@@@?$allocator_traits@V?$allocator@U?$_List_node@PAVRelation@VERTEX@@PAX@std@@@std@@@std@@SAXAAV?$allocator@U?$_List_node@PAVRelation@VERTEX@@PAX@std@@@1@PAPAU?$_List_node@PAVRelation@VERTEX@@PAX@1@@Z
	??$destroy@PAVRelation@VERTEX@@@?$allocator_traits@V?$allocator@U?$_List_node@PAVRelation@VERTEX@@PAX@std@@@std@@@std@@SAXAAV?$allocator@U?$_List_node@PAVRelation@VERTEX@@PAX@std@@@1@PAPAVRelation@VERTEX@@@Z
	??$forward@AAPAU?$_List_node@PAVRelation@VERTEX@@PAX@std@@@std@@YAAAPAU?$_List_node@PAVRelation@VERTEX@@PAX@0@AAPAU10@@Z
	??$construct@PAU?$_List_node@PAVRelation@VERTEX@@PAX@std@@AAPAU12@@?$allocator_traits@V?$allocator@U?$_List_node@PAVRelation@VERTEX@@PAX@std@@@std@@@std@@SAXAAV?$allocator@U?$_List_node@PAVRelation@VERTEX@@PAX@std@@@1@PAPAU?$_List_node@PAVRelation@VERTEX@@PAX@1@AAPAU31@@Z
	??$construct@PAVRelation@VERTEX@@ABQAV12@@?$_Wrap_alloc@V?$allocator@U?$_List_node@PAVRelation@VERTEX@@PAX@std@@@std@@@std@@QAEXPAPAVRelation@VERTEX@@ABQAV23@@Z
	??$construct@PADAAPAD@?$allocator@D@std@@QAEXPAPADAAPAD@Z
	??$destroy@PAD@?$allocator@D@std@@QAEXPAPAD@Z
	??$destroy@PAU?$_List_node@PAVRelation@VERTEX@@PAX@std@@@?$allocator@U?$_List_node@PAVRelation@VERTEX@@PAX@std@@@std@@QAEXPAPAU?$_List_node@PAVRelation@VERTEX@@PAX@1@@Z
	??$destroy@PAVRelation@VERTEX@@@?$allocator@U?$_List_node@PAVRelation@VERTEX@@PAX@std@@@std@@QAEXPAPAVRelation@VERTEX@@@Z
	??$construct@PAU?$_List_node@PAVRelation@VERTEX@@PAX@std@@AAPAU12@@?$allocator@U?$_List_node@PAVRelation@VERTEX@@PAX@std@@@std@@QAEXPAPAU?$_List_node@PAVRelation@VERTEX@@PAX@1@AAPAU21@@Z
	??$construct@PAVRelation@VERTEX@@ABQAV12@@?$allocator_traits@V?$allocator@U?$_List_node@PAVRelation@VERTEX@@PAX@std@@@std@@@std@@SAXAAV?$allocator@U?$_List_node@PAVRelation@VERTEX@@PAX@std@@@1@PAPAVRelation@VERTEX@@ABQAV34@@Z
	??$construct@PAVRelation@VERTEX@@ABQAV12@@?$allocator@U?$_List_node@PAVRelation@VERTEX@@PAX@std@@@std@@QAEXPAPAVRelation@VERTEX@@ABQAV23@@Z
	?_Generic_object@?$_Error_objects@H@std@@2V_Generic_error_category@2@A 	 DATA
	?_Iostream_object@?$_Error_objects@H@std@@2V_Iostream_error_category@2@A 	 DATA
	?_System_object@?$_Error_objects@H@std@@2V_System_error_category@2@A 	 DATA
	?id@?$num_put@DV?$back_insert_iterator@V?$basic_string@DU?$char_traits@D@std@@V?$allocator@D@2@@std@@@std@@@std@@2V0locale@2@A 	 DATA
	?id@?$num_put@_WV?$back_insert_iterator@V?$basic_string@_WU?$char_traits@_W@std@@V?$allocator@_W@2@@std@@@std@@@std@@2V0locale@2@A 	 DATA
	??_R0?AVerror_category@std@@@8 	 DATA
	??_R0?AV_Generic_error_category@std@@@8 	 DATA
	??_R0?AV_Iostream_error_category@std@@@8 	 DATA
	??_R0?AV_System_error_category@std@@@8 	 DATA
	??_R0?AVRelationIterator@VERTEX@@@8 	 DATA
	??_R0?AVConstRelationIterator@VERTEX@@@8 	 DATA
	??_R0?AVReverseRelationIterator@VERTEX@@@8 	 DATA
	??_R0?AVConstReverseRelationIterator@VERTEX@@@8 	 DATA
	??_R0?AVRelationList@VERTEX@@@8 	 DATA
	hypot
	fabsf
	sqrtf
	?fabs@@YAMM@Z
	?sqrt@@YAMM@Z
	??2@YAPAXIPAX@Z
	??3@YAXPAX0@Z
	?length@?$char_traits@D@std@@SAIPBD@Z
	?copy@?$char_traits@D@std@@SAPADPADPBDI@Z
	?move@?$char_traits@D@std@@SAPADPADPBDI@Z
	?assign@?$char_traits@D@std@@SAXAADABD@Z
	?eq_int_type@?$char_traits@D@std@@SA_NABH0@Z
	?eof@?$char_traits@D@std@@SAHXZ
	?_Adopt@_Iterator_base0@std@@QAEXPBX@Z
	?_Getcont@_Iterator_base0@std@@QBEPBU_Container_base0@2@XZ
	??0?$allocator@D@std@@QAE@XZ
	?deallocate@?$allocator@D@std@@QAEXPADI@Z
	?allocate@?$allocator@D@std@@QAEPADI@Z
	?max_size@?$allocator@D@std@@QBEIXZ
	?max_size@?$allocator_traits@V?$allocator@D@std@@@std@@SAIABV?$allocator@D@2@@Z
	??0?$_Wrap_alloc@V?$allocator@D@std@@@std@@QAE@XZ
	?allocate@?$_Wrap_alloc@V?$allocator@D@std@@@std@@QAEPADI@Z
	?deallocate@?$_Wrap_alloc@V?$allocator@D@std@@@std@@QAEXPADI@Z
	?max_size@?$_Wrap_alloc@V?$allocator@D@std@@@std@@QBEIXZ
	??0?$_String_val@U?$_Simple_types@D@std@@@std@@QAE@XZ
	?_Myptr@?$_String_val@U?$_Simple_types@D@std@@@std@@QAEPADXZ
	?_Myptr@?$_String_val@U?$_Simple_types@D@std@@@std@@QBEPBDXZ
	??0?$_String_alloc@$0A@U?$_String_base_types@DV?$allocator@D@std@@@std@@@std@@QAE@ABV?$allocator@D@1@@Z
	?_Getal@?$_String_alloc@$0A@U?$_String_base_types@DV?$allocator@D@std@@@std@@@std@@QBE?AU?$_Wrap_alloc@V?$allocator@D@std@@@2@XZ
	??0?$basic_string@DU?$char_traits@D@std@@V?$allocator@D@2@@std@@QAE@PBD@Z
	??1?$basic_string@DU?$char_traits@D@std@@V?$allocator@D@2@@std@@QAE@XZ
	?assign@?$basic_string@DU?$char_traits@D@std@@V?$allocator@D@2@@std@@QAEAAV12@ABV12@II@Z
	?assign@?$basic_string@DU?$char_traits@D@std@@V?$allocator@D@2@@std@@QAEAAV12@PBDI@Z
	?assign@?$basic_string@DU?$char_traits@D@std@@V?$allocator@D@2@@std@@QAEAAV12@PBD@Z
	?erase@?$basic_string@DU?$char_traits@D@std@@V?$allocator@D@2@@std@@QAEAAV12@I@Z
	?erase@?$basic_string@DU?$char_traits@D@std@@V?$allocator@D@2@@std@@QAEAAV12@II@Z
	?size@?$basic_string@DU?$char_traits@D@std@@V?$allocator@D@2@@std@@QBEIXZ
	?max_size@?$basic_string@DU?$char_traits@D@std@@V?$allocator@D@2@@std@@QBEIXZ
	?_Copy@?$basic_string@DU?$char_traits@D@std@@V?$allocator@D@2@@std@@QAEXII@Z
	?_Eos@?$basic_string@DU?$char_traits@D@std@@V?$allocator@D@2@@std@@QAEXI@Z
	?_Grow@?$basic_string@DU?$char_traits@D@std@@V?$allocator@D@2@@std@@QAE_NI_N@Z
	?_Inside@?$basic_string@DU?$char_traits@D@std@@V?$allocator@D@2@@std@@QAE_NPBD@Z
	?_Tidy@?$basic_string@DU?$char_traits@D@std@@V?$allocator@D@2@@std@@QAEX_NI@Z
	?_Xlen@?$basic_string@DU?$char_traits@D@std@@V?$allocator@D@2@@std@@QBEXXZ
	?_Xran@?$basic_string@DU?$char_traits@D@std@@V?$allocator@D@2@@std@@QBEXXZ
	?generic_category@std@@YAABVerror_category@1@XZ
	?system_category@std@@YAABVerror_category@1@XZ
	??0error_category@std@@QAE@XZ
	??1error_category@std@@UAE@XZ
	?default_error_condition@error_category@std@@UBE?AVerror_condition@2@H@Z
	?equivalent@error_category@std@@UBE_NHABVerror_condition@2@@Z
	?equivalent@error_category@std@@UBE_NABVerror_code@2@H@Z
	??8error_category@std@@QBE_NABV01@@Z
	?value@error_code@std@@QBEHXZ
	?category@error_code@std@@QBEABVerror_category@2@XZ
	??0error_condition@std@@QAE@HABVerror_category@1@@Z
	?value@error_condition@std@@QBEHXZ
	?category@error_condition@std@@QBEABVerror_category@2@XZ
	??8error_condition@std@@QBE_NABV01@@Z
	??0_Generic_error_category@std@@QAE@XZ
	?name@_Generic_error_category@std@@UBEPBDXZ
	?message@_Generic_error_category@std@@UBE?AV?$basic_string@DU?$char_traits@D@std@@V?$allocator@D@2@@2@H@Z
	??1_Generic_error_category@std@@UAE@XZ
	??0_Iostream_error_category@std@@QAE@XZ
	?name@_Iostream_error_category@std@@UBEPBDXZ
	?message@_Iostream_error_category@std@@UBE?AV?$basic_string@DU?$char_traits@D@std@@V?$allocator@D@2@@2@H@Z
	??1_Iostream_error_category@std@@UAE@XZ
	??0_System_error_category@std@@QAE@XZ
	?name@_System_error_category@std@@UBEPBDXZ
	?message@_System_error_category@std@@UBE?AV?$basic_string@DU?$char_traits@D@std@@V?$allocator@D@2@@2@H@Z
	?default_error_condition@_System_error_category@std@@UBE?AVerror_condition@2@H@Z
	??1_System_error_category@std@@UAE@XZ
	?array@VtMatrix@MATRIX@@QBEPANXZ
	??0VtSqMatrix@MATRIX@@QAE@H@Z
	?IsA@VtSqMatrix@MATRIX@@UBEPAVTClass@@XZ
	??0VtSymMatrix@MATRIX@@QAE@I@Z
	?IsA@VtSymMatrix@MATRIX@@UBEPAVTClass@@XZ
	??6MATRIX@@YAAAV?$basic_ostream@DU?$char_traits@D@std@@@std@@AAV12@ABVVtSymMatrix@0@@Z
	??0CMatrix@MATRIX@@QAE@ABVVtSymMatrix@1@@Z
	?x@CMatrix@MATRIX@@QBENXZ
	?y@CMatrix@MATRIX@@QBENXZ
	?IsA@CMatrix@MATRIX@@UBEPAVTClass@@XZ
	??1CMatrix@MATRIX@@UAE@XZ
	??4CMatrix@MATRIX@@QAEAAV01@ABV01@@Z
	??AVtVector@MATRIX@@QBENI@Z
	??AVtVector@MATRIX@@QAEAANI@Z
	?_Nextnode@?$_List_val@U?$_List_simple_types@PAVRelation@VERTEX@@@std@@@std@@SAAAPAU?$_List_node@PAVRelation@VERTEX@@PAX@2@PAU32@@Z
	?_Prevnode@?$_List_val@U?$_List_simple_types@PAVRelation@VERTEX@@@std@@@std@@SAAAPAU?$_List_node@PAVRelation@VERTEX@@PAX@2@PAU32@@Z
	?_Myval@?$_List_val@U?$_List_simple_types@PAVRelation@VERTEX@@@std@@@std@@SAAAPAVRelation@VERTEX@@PAU?$_List_node@PAVRelation@VERTEX@@PAX@2@@Z
	?begin@?$list@PAVRelation@VERTEX@@V?$allocator@PAVRelation@VERTEX@@@std@@@std@@QAE?AV?$_List_iterator@V?$_List_val@U?$_List_simple_types@PAVRelation@VERTEX@@@std@@@std@@@2@XZ
	?begin@?$list@PAVRelation@VERTEX@@V?$allocator@PAVRelation@VERTEX@@@std@@@std@@QBE?AV?$_List_const_iterator@V?$_List_val@U?$_List_simple_types@PAVRelation@VERTEX@@@std@@@std@@@2@XZ
	?end@?$list@PAVRelation@VERTEX@@V?$allocator@PAVRelation@VERTEX@@@std@@@std@@QAE?AV?$_List_iterator@V?$_List_val@U?$_List_simple_types@PAVRelation@VERTEX@@@std@@@std@@@2@XZ
	?end@?$list@PAVRelation@VERTEX@@V?$allocator@PAVRelation@VERTEX@@@std@@@std@@QBE?AV?$_List_const_iterator@V?$_List_val@U?$_List_simple_types@PAVRelation@VERTEX@@@std@@@std@@@2@XZ
	?rbegin@?$list@PAVRelation@VERTEX@@V?$allocator@PAVRelation@VERTEX@@@std@@@std@@QBE?AV?$reverse_iterator@V?$_List_const_iterator@V?$_List_val@U?$_List_simple_types@PAVRelation@VERTEX@@@std@@@std@@@std@@@2@XZ
	?size@?$list@PAVRelation@VERTEX@@V?$allocator@PAVRelation@VERTEX@@@std@@@std@@QBEIXZ
	?back@?$list@PAVRelation@VERTEX@@V?$allocator@PAVRelation@VERTEX@@@std@@@std@@QBEABQAVRelation@VERTEX@@XZ
	??0?$_List_unchecked_const_iterator@V?$_List_val@U?$_List_simple_types@PAVRelation@VERTEX@@@std@@@std@@U_Iterator_base0@2@@std@@QAE@PAU?$_List_node@PAVRelation@VERTEX@@PAX@1@PBV?$_List_val@U?$_List_simple_types@PAVRelation@VERTEX@@@std@@@1@@Z
	??D?$_List_unchecked_const_iterator@V?$_List_val@U?$_List_simple_types@PAVRelation@VERTEX@@@std@@@std@@U_Iterator_base0@2@@std@@QBEABQAVRelation@VERTEX@@XZ
	??E?$_List_unchecked_const_iterator@V?$_List_val@U?$_List_simple_types@PAVRelation@VERTEX@@@std@@@std@@U_Iterator_base0@2@@std@@QAEAAV01@XZ
	??8?$_List_unchecked_const_iterator@V?$_List_val@U?$_List_simple_types@PAVRelation@VERTEX@@@std@@@std@@U_Iterator_base0@2@@std@@QBE_NABV01@@Z
	??9?$_List_unchecked_const_iterator@V?$_List_val@U?$_List_simple_types@PAVRelation@VERTEX@@@std@@@std@@U_Iterator_base0@2@@std@@QBE_NABV01@@Z
	??0?$_List_const_iterator@V?$_List_val@U?$_List_simple_types@PAVRelation@VERTEX@@@std@@@std@@@std@@QAE@PAU?$_List_node@PAVRelation@VERTEX@@PAX@1@PBV?$_List_val@U?$_List_simple_types@PAVRelation@VERTEX@@@std@@@1@@Z
	?_Unchecked@?$_List_const_iterator@V?$_List_val@U?$_List_simple_types@PAVRelation@VERTEX@@@std@@@std@@@std@@QBE?AV?$_List_unchecked_const_iterator@V?$_List_val@U?$_List_simple_types@PAVRelation@VERTEX@@@std@@@std@@U_Iterator_base0@2@@2@XZ
	??D?$_List_const_iterator@V?$_List_val@U?$_List_simple_types@PAVRelation@VERTEX@@@std@@@std@@@std@@QBEABQAVRelation@VERTEX@@XZ
	??F?$_List_const_iterator@V?$_List_val@U?$_List_simple_types@PAVRelation@VERTEX@@@std@@@std@@@std@@QAEAAV01@XZ
	??8?$_List_const_iterator@V?$_List_val@U?$_List_simple_types@PAVRelation@VERTEX@@@std@@@std@@@std@@QBE_NABV01@@Z
	??9?$_List_const_iterator@V?$_List_val@U?$_List_simple_types@PAVRelation@VERTEX@@@std@@@std@@@std@@QBE_NABV01@@Z
	??0?$_List_iterator@V?$_List_val@U?$_List_simple_types@PAVRelation@VERTEX@@@std@@@std@@@std@@QAE@PAU?$_List_node@PAVRelation@VERTEX@@PAX@1@PBV?$_List_val@U?$_List_simple_types@PAVRelation@VERTEX@@@std@@@1@@Z
	??0RelationIterator@VERTEX@@QAE@ABV?$_List_iterator@V?$_List_val@U?$_List_simple_types@PAVRelation@VERTEX@@@std@@@std@@@std@@@Z
	??9RelationIterator@VERTEX@@QBEHABV01@@Z
	?IsA@RelationIterator@VERTEX@@UBEPAVTClass@@XZ
	??0RelationIterator@VERTEX@@QAE@ABV01@@Z
	??0ConstRelationIterator@VERTEX@@QAE@ABV?$_List_const_iterator@V?$_List_val@U?$_List_simple_types@PAVRelation@VERTEX@@@std@@@std@@@std@@@Z
	??9ConstRelationIterator@VERTEX@@QBEHABV01@@Z
	?IsA@ConstRelationIterator@VERTEX@@UBEPAVTClass@@XZ
	??0ConstRelationIterator@VERTEX@@QAE@ABV01@@Z
	??0?$_Revranit@V?$_List_const_iterator@V?$_List_val@U?$_List_simple_types@PAVRelation@VERTEX@@@std@@@std@@@std@@U?$iterator@Ubidirectional_iterator_tag@std@@PAVRelation@VERTEX@@HPBQAV34@ABQAV34@@2@@std@@QAE@V?$_List_const_iterator@V?$_List_val@U?$_List_simple_types@PAVRelation@VERTEX@@@std@@@std@@@1@@Z
	??0?$reverse_iterator@V?$_List_const_iterator@V?$_List_val@U?$_List_simple_types@PAVRelation@VERTEX@@@std@@@std@@@std@@@std@@QAE@V?$_List_const_iterator@V?$_List_val@U?$_List_simple_types@PAVRelation@VERTEX@@@std@@@std@@@1@@Z
	??0ConstReverseRelationIterator@VERTEX@@QAE@ABV?$reverse_iterator@V?$_List_const_iterator@V?$_List_val@U?$_List_simple_types@PAVRelation@VERTEX@@@std@@@std@@@std@@@std@@@Z
	?IsA@ConstReverseRelationIterator@VERTEX@@UBEPAVTClass@@XZ
	??0ConstReverseRelationIterator@VERTEX@@QAE@ABV01@@Z
	??4ConstReverseRelationIterator@VERTEX@@QAEAAV01@ABV01@@Z
	?back@RelationList@VERTEX@@QBEPAVRelation@2@XZ
	?size@RelationList@VERTEX@@QBEIXZ
	?begin@RelationList@VERTEX@@QAE?AVRelationIterator@2@XZ
	?end@RelationList@VERTEX@@QAE?AVRelationIterator@2@XZ
	?begin@RelationList@VERTEX@@QBE?AVConstRelationIterator@2@XZ
	?end@RelationList@VERTEX@@QBE?AVConstRelationIterator@2@XZ
	?rbegin@RelationList@VERTEX@@QBE?AVConstReverseRelationIterator@2@XZ
	??8RelationList@VERTEX@@QBE_NABV01@@Z
	??$?8PAVRelation@VERTEX@@V?$allocator@PAVRelation@VERTEX@@@std@@@std@@YA_NABV?$list@PAVRelation@VERTEX@@V?$allocator@PAVRelation@VERTEX@@@std@@@0@0@Z
	?Clear@TObject@@UAEXPBD@Z
	?GetOption@TObject@@UBEPBDXZ
	?IsSortable@TObject@@UBE_NXZ
	?ex@Track@VERTEX@@QBENXZ
	?ey@Track@VERTEX@@QBENXZ
	?ez@Track@VERTEX@@QBENXZ
	?rm@Track@VERTEX@@QBENXZ
	?rmCC@Track@VERTEX@@QBENXZ
	??0?$allocator@PAVMassC@VERTEX@@@std@@QAE@XZ
	??0?$allocator@U?$_List_node@PAVMassC@VERTEX@@PAX@std@@@std@@QAE@XZ
	?deallocate@?$allocator@U?$_List_node@PAVMassC@VERTEX@@PAX@std@@@std@@QAEXPAU?$_List_node@PAVMassC@VERTEX@@PAX@2@I@Z
	?allocate@?$allocator@U?$_List_node@PAVMassC@VERTEX@@PAX@std@@@std@@QAEPAU?$_List_node@PAVMassC@VERTEX@@PAX@2@I@Z
	?max_size@?$allocator@U?$_List_node@PAVMassC@VERTEX@@PAX@std@@@std@@QBEIXZ
	?max_size@?$allocator_traits@V?$allocator@U?$_List_node@PAVMassC@VERTEX@@PAX@std@@@std@@@std@@SAIABV?$allocator@U?$_List_node@PAVMassC@VERTEX@@PAX@std@@@2@@Z
	??0?$_Wrap_alloc@V?$allocator@U?$_List_node@PAVMassC@VERTEX@@PAX@std@@@std@@@std@@QAE@XZ
	?allocate@?$_Wrap_alloc@V?$allocator@U?$_List_node@PAVMassC@VERTEX@@PAX@std@@@std@@@std@@QAEPAU?$_List_node@PAVMassC@VERTEX@@PAX@2@I@Z
	?deallocate@?$_Wrap_alloc@V?$allocator@U?$_List_node@PAVMassC@VERTEX@@PAX@std@@@std@@@std@@QAEXPAU?$_List_node@PAVMassC@VERTEX@@PAX@2@I@Z
	?max_size@?$_Wrap_alloc@V?$allocator@U?$_List_node@PAVMassC@VERTEX@@PAX@std@@@std@@@std@@QBEIXZ
	??0?$_List_val@U?$_List_simple_types@PAVMassC@VERTEX@@@std@@@std@@QAE@XZ
	?_Nextnode@?$_List_val@U?$_List_simple_types@PAVMassC@VERTEX@@@std@@@std@@SAAAPAU?$_List_node@PAVMassC@VERTEX@@PAX@2@PAU32@@Z
	?_Prevnode@?$_List_val@U?$_List_simple_types@PAVMassC@VERTEX@@@std@@@std@@SAAAPAU?$_List_node@PAVMassC@VERTEX@@PAX@2@PAU32@@Z
	?_Myval@?$_List_val@U?$_List_simple_types@PAVMassC@VERTEX@@@std@@@std@@SAAAPAVMassC@VERTEX@@PAU?$_List_node@PAVMassC@VERTEX@@PAX@2@@Z
	??0?$_List_alloc@$0A@U?$_List_base_types@PAVMassC@VERTEX@@V?$allocator@PAVMassC@VERTEX@@@std@@@std@@@std@@QAE@ABV?$allocator@PAVMassC@VERTEX@@@1@@Z
	??1?$_List_alloc@$0A@U?$_List_base_types@PAVMassC@VERTEX@@V?$allocator@PAVMassC@VERTEX@@@std@@@std@@@std@@QAE@XZ
	?_Buyheadnode@?$_List_alloc@$0A@U?$_List_base_types@PAVMassC@VERTEX@@V?$allocator@PAVMassC@VERTEX@@@std@@@std@@@std@@QAEPAU?$_List_node@PAVMassC@VERTEX@@PAX@2@XZ
	?_Freeheadnode@?$_List_alloc@$0A@U?$_List_base_types@PAVMassC@VERTEX@@V?$allocator@PAVMassC@VERTEX@@@std@@@std@@@std@@QAEXPAU?$_List_node@PAVMassC@VERTEX@@PAX@2@@Z
	?_Buynode0@?$_List_alloc@$0A@U?$_List_base_types@PAVMassC@VERTEX@@V?$allocator@PAVMassC@VERTEX@@@std@@@std@@@std@@QAEPAU?$_List_node@PAVMassC@VERTEX@@PAX@2@PAU32@0@Z
	?_Getal@?$_List_alloc@$0A@U?$_List_base_types@PAVMassC@VERTEX@@V?$allocator@PAVMassC@VERTEX@@@std@@@std@@@std@@QBE?AU?$_Wrap_alloc@V?$allocator@U?$_List_node@PAVMassC@VERTEX@@PAX@std@@@std@@@2@XZ
	??0?$_List_buy@PAVMassC@VERTEX@@V?$allocator@PAVMassC@VERTEX@@@std@@@std@@QAE@ABV?$allocator@PAVMassC@VERTEX@@@1@@Z
	?_Freenode@?$_List_buy@PAVMassC@VERTEX@@V?$allocator@PAVMassC@VERTEX@@@std@@@std@@QAEXPAU?$_List_node@PAVMassC@VERTEX@@PAX@2@@Z
	??1?$_List_buy@PAVMassC@VERTEX@@V?$allocator@PAVMassC@VERTEX@@@std@@@std@@QAE@XZ
	??0?$list@PAVMassC@VERTEX@@V?$allocator@PAVMassC@VERTEX@@@std@@@std@@QAE@XZ
	?push_back@?$list@PAVMassC@VERTEX@@V?$allocator@PAVMassC@VERTEX@@@std@@@std@@QAEX$$QAPAVMassC@VERTEX@@@Z
	??1?$list@PAVMassC@VERTEX@@V?$allocator@PAVMassC@VERTEX@@@std@@@std@@QAE@XZ
	?begin@?$list@PAVMassC@VERTEX@@V?$allocator@PAVMassC@VERTEX@@@std@@@std@@QAE?AV?$_List_iterator@V?$_List_val@U?$_List_simple_types@PAVMassC@VERTEX@@@std@@@std@@@2@XZ
	?begin@?$list@PAVMassC@VERTEX@@V?$allocator@PAVMassC@VERTEX@@@std@@@std@@QBE?AV?$_List_const_iterator@V?$_List_val@U?$_List_simple_types@PAVMassC@VERTEX@@@std@@@std@@@2@XZ
	?end@?$list@PAVMassC@VERTEX@@V?$allocator@PAVMassC@VERTEX@@@std@@@std@@QAE?AV?$_List_iterator@V?$_List_val@U?$_List_simple_types@PAVMassC@VERTEX@@@std@@@std@@@2@XZ
	?end@?$list@PAVMassC@VERTEX@@V?$allocator@PAVMassC@VERTEX@@@std@@@std@@QBE?AV?$_List_const_iterator@V?$_List_val@U?$_List_simple_types@PAVMassC@VERTEX@@@std@@@std@@@2@XZ
	?_Unchecked_end@?$list@PAVMassC@VERTEX@@V?$allocator@PAVMassC@VERTEX@@@std@@@std@@QAE?AV?$_List_unchecked_iterator@V?$_List_val@U?$_List_simple_types@PAVMassC@VERTEX@@@std@@@std@@@2@XZ
	?size@?$list@PAVMassC@VERTEX@@V?$allocator@PAVMassC@VERTEX@@@std@@@std@@QBEIXZ
	?max_size@?$list@PAVMassC@VERTEX@@V?$allocator@PAVMassC@VERTEX@@@std@@@std@@QBEIXZ
	?back@?$list@PAVMassC@VERTEX@@V?$allocator@PAVMassC@VERTEX@@@std@@@std@@QAEAAPAVMassC@VERTEX@@XZ
	?push_back@?$list@PAVMassC@VERTEX@@V?$allocator@PAVMassC@VERTEX@@@std@@@std@@QAEXABQAVMassC@VERTEX@@@Z
	?clear@?$list@PAVMassC@VERTEX@@V?$allocator@PAVMassC@VERTEX@@@std@@@std@@QAEXXZ
	?_Tidy@?$list@PAVMassC@VERTEX@@V?$allocator@PAVMassC@VERTEX@@@std@@@std@@QAEXXZ
	?_Incsize@?$list@PAVMassC@VERTEX@@V?$allocator@PAVMassC@VERTEX@@@std@@@std@@QAEXI@Z
	??0?$allocator@PAVTrack@VERTEX@@@std@@QAE@XZ
	?deallocate@?$allocator@PAVTrack@VERTEX@@@std@@QAEXPAPAVTrack@VERTEX@@I@Z
	?allocate@?$allocator@PAVTrack@VERTEX@@@std@@QAEPAPAVTrack@VERTEX@@I@Z
	?max_size@?$allocator@PAVTrack@VERTEX@@@std@@QBEIXZ
	?max_size@?$allocator_traits@V?$allocator@PAVTrack@VERTEX@@@std@@@std@@SAIABV?$allocator@PAVTrack@VERTEX@@@2@@Z
	??0?$_Wrap_alloc@V?$allocator@PAVTrack@VERTEX@@@std@@@std@@QAE@XZ
	?allocate@?$_Wrap_alloc@V?$allocator@PAVTrack@VERTEX@@@std@@@std@@QAEPAPAVTrack@VERTEX@@I@Z
	?deallocate@?$_Wrap_alloc@V?$allocator@PAVTrack@VERTEX@@@std@@@std@@QAEXPAPAVTrack@VERTEX@@I@Z
	?max_size@?$_Wrap_alloc@V?$allocator@PAVTrack@VERTEX@@@std@@@std@@QBEIXZ
	??0?$_Vector_val@U?$_Simple_types@PAVTrack@VERTEX@@@std@@@std@@QAE@XZ
	??0?$_Vector_alloc@$0A@U?$_Vec_base_types@PAVTrack@VERTEX@@V?$allocator@PAVTrack@VERTEX@@@std@@@std@@@std@@QAE@ABV?$allocator@PAVTrack@VERTEX@@@1@@Z
	?_Getal@?$_Vector_alloc@$0A@U?$_Vec_base_types@PAVTrack@VERTEX@@V?$allocator@PAVTrack@VERTEX@@@std@@@std@@@std@@QBE?AU?$_Wrap_alloc@V?$allocator@PAVTrack@VERTEX@@@std@@@2@XZ
	??0?$vector@PAVTrack@VERTEX@@V?$allocator@PAVTrack@VERTEX@@@std@@@std@@QAE@XZ
	?push_back@?$vector@PAVTrack@VERTEX@@V?$allocator@PAVTrack@VERTEX@@@std@@@std@@QAEX$$QAPAVTrack@VERTEX@@@Z
	??1?$vector@PAVTrack@VERTEX@@V?$allocator@PAVTrack@VERTEX@@@std@@@std@@QAE@XZ
	?capacity@?$vector@PAVTrack@VERTEX@@V?$allocator@PAVTrack@VERTEX@@@std@@@std@@QBEIXZ
	?_Unused_capacity@?$vector@PAVTrack@VERTEX@@V?$allocator@PAVTrack@VERTEX@@@std@@@std@@QBEIXZ
	?begin@?$vector@PAVTrack@VERTEX@@V?$allocator@PAVTrack@VERTEX@@@std@@@std@@QAE?AV?$_Vector_iterator@V?$_Vector_val@U?$_Simple_types@PAVTrack@VERTEX@@@std@@@std@@@2@XZ
	?begin@?$vector@PAVTrack@VERTEX@@V?$allocator@PAVTrack@VERTEX@@@std@@@std@@QBE?AV?$_Vector_const_iterator@V?$_Vector_val@U?$_Simple_types@PAVTrack@VERTEX@@@std@@@std@@@2@XZ
	?end@?$vector@PAVTrack@VERTEX@@V?$allocator@PAVTrack@VERTEX@@@std@@@std@@QAE?AV?$_Vector_iterator@V?$_Vector_val@U?$_Simple_types@PAVTrack@VERTEX@@@std@@@std@@@2@XZ
	?end@?$vector@PAVTrack@VERTEX@@V?$allocator@PAVTrack@VERTEX@@@std@@@std@@QBE?AV?$_Vector_const_iterator@V?$_Vector_val@U?$_Simple_types@PAVTrack@VERTEX@@@std@@@std@@@2@XZ
	?size@?$vector@PAVTrack@VERTEX@@V?$allocator@PAVTrack@VERTEX@@@std@@@std@@QBEIXZ
	?max_size@?$vector@PAVTrack@VERTEX@@V?$allocator@PAVTrack@VERTEX@@@std@@@std@@QBEIXZ
	?at@?$vector@PAVTrack@VERTEX@@V?$allocator@PAVTrack@VERTEX@@@std@@@std@@QBEABQAVTrack@VERTEX@@I@Z
	?clear@?$vector@PAVTrack@VERTEX@@V?$allocator@PAVTrack@VERTEX@@@std@@@std@@QAEXXZ
	?_Destroy@?$vector@PAVTrack@VERTEX@@V?$allocator@PAVTrack@VERTEX@@@std@@@std@@IAEXPAPAVTrack@VERTEX@@0@Z
	?_Grow_to@?$vector@PAVTrack@VERTEX@@V?$allocator@PAVTrack@VERTEX@@@std@@@std@@IBEII@Z
	?_Inside@?$vector@PAVTrack@VERTEX@@V?$allocator@PAVTrack@VERTEX@@@std@@@std@@IBE_NPBQAVTrack@VERTEX@@@Z
	?_Reallocate@?$vector@PAVTrack@VERTEX@@V?$allocator@PAVTrack@VERTEX@@@std@@@std@@IAEXI@Z
	?_Reserve@?$vector@PAVTrack@VERTEX@@V?$allocator@PAVTrack@VERTEX@@@std@@@std@@IAEXI@Z
	?_Tidy@?$vector@PAVTrack@VERTEX@@V?$allocator@PAVTrack@VERTEX@@@std@@@std@@IAEXXZ
	?_Xlen@?$vector@PAVTrack@VERTEX@@V?$allocator@PAVTrack@VERTEX@@@std@@@std@@IBEXXZ
	?_Xran@?$vector@PAVTrack@VERTEX@@V?$allocator@PAVTrack@VERTEX@@@std@@@std@@IBEXXZ
	?_Orphan_range@?$vector@PAVTrack@VERTEX@@V?$allocator@PAVTrack@VERTEX@@@std@@@std@@IBEXPAPAVTrack@VERTEX@@0@Z
	??0Vertex@VERTEX@@QAE@XZ
	??0Vertex@VERTEX@@QAE@ABV01@@Z
	??0Vertex@VERTEX@@QAE@ABV?$vector@PAVTrack@VERTEX@@V?$allocator@PAVTrack@VERTEX@@@std@@@std@@@Z
	??0Vertex@VERTEX@@QAE@AAVTrack@1@0@Z
	??1Vertex@VERTEX@@UAE@XZ
	?vx@Vertex@VERTEX@@QBEMXZ
	?vy@Vertex@VERTEX@@QBEMXZ
	?vz@Vertex@VERTEX@@QBEMXZ
	?chi2@Vertex@VERTEX@@QBEMXZ
	?prob@Vertex@VERTEX@@QBEMXZ
	?ndf@Vertex@VERTEX@@QBEGXZ
	?ntracks@Vertex@VERTEX@@QBEGXZ
	?vpos@Vertex@VERTEX@@QBE?AV?$SVector@N$02@@XZ
	?VCOV@Vertex@VERTEX@@QBEABV?$SMatrix@N$02$02@@XZ
	?vtx_cov_x@Vertex@VERTEX@@QBEMXZ
	?vtx_cov_y@Vertex@VERTEX@@QBEMXZ
	?vtx_cov_z@Vertex@VERTEX@@QBEMXZ
	?angle@Vertex@VERTEX@@QBENXZ
	?dist@Vertex@VERTEX@@QBENXZ
	?pmaxfrac@Vertex@VERTEX@@QBENXZ
	?CS@Vertex@VERTEX@@QBEABVVtSymMatrix@MATRIX@@XZ
	?valid@Vertex@VERTEX@@QBE_NXZ
	?mass@Vertex@VERTEX@@QBEN_N@Z
	?massCC@Vertex@VERTEX@@QBEN_N@Z
	?mass@Vertex@VERTEX@@QBENN@Z
	?mass@Vertex@VERTEX@@QBENNN@Z
	?mass@Vertex@VERTEX@@QBENNNN@Z
	?mass@Vertex@VERTEX@@QBENNNNN@Z
	?mass@Vertex@VERTEX@@QBENABV?$vector@NV?$allocator@N@std@@@std@@_N1@Z
	?findVertex2D@Vertex@VERTEX@@QAE?B_NXZ
	?findVertex3D@Vertex@VERTEX@@QAE?B_NXZ
	?findVertexVt@Vertex@VERTEX@@QAE?B_NXZ
	?VtEstimateVertex@Vertex@VERTEX@@QAE?B_NXZ
	?VtEstimateVertexMath@Vertex@VERTEX@@QAE?B_NAAN00@Z
	?VtEstimateVertexMathTA@Vertex@VERTEX@@QAE?B_NAAN00@Z
	?VtMass@Vertex@VERTEX@@QAE?B_NXZ
	?push_back@Vertex@VERTEX@@QAEXAAVTrack@2@@Z
	?rmsDistAngle@Vertex@VERTEX@@QBENXZ
	?calc_mother@Vertex@VERTEX@@QAE_N_N@Z
	?calc_mother_cov@Vertex@VERTEX@@QAE_NXZ
	?remove_last@Vertex@VERTEX@@QAE?B_NXZ
	?remove_worst@Vertex@VERTEX@@QAEXXZ
	?track_chi2@Vertex@VERTEX@@QAENH@Z
	?track_worst@Vertex@VERTEX@@QAEHXZ
	?use_momentum@Vertex@VERTEX@@QAEX_N@Z
	?distance@Vertex@VERTEX@@QBENNNN@Z
	?distance@Vertex@VERTEX@@QBENAAVTrack@2@@Z
	?distance@Vertex@VERTEX@@QBENABV12@@Z
	?clear@Vertex@VERTEX@@UAEXXZ
	?VtFilter@Vertex@VERTEX@@QAE?B_NXZ
	?VtInverseFilter@Vertex@VERTEX@@QBE?B_NXZ
	?VtSmoothX@Vertex@VERTEX@@QAEXXZ
	?VtSmoothQ@Vertex@VERTEX@@QAEXXZ
	?VtRemoveTrack@Vertex@VERTEX@@QAE?B_NAAVRelation@2@@Z
	?VtFit@Vertex@VERTEX@@QAE?B_NXZ
	?xvs@Vertex@VERTEX@@QBEABVVtVector@MATRIX@@XZ
	?print@Vertex@VERTEX@@QBEAAV?$basic_ostream@DU?$char_traits@D@std@@@std@@AAV34@@Z
	?chi2n@Vertex@VERTEX@@QBENXZ
	?chi2l@Vertex@VERTEX@@QBENXZ
	?remove@Vertex@VERTEX@@UAEXPAVRelation@2@@Z
	?erase@Vertex@VERTEX@@UAE?BVRelationIterator@2@ABV32@@Z
	?bigcov@Vertex@VERTEX@@QAEABVVtSymMatrix@MATRIX@@XZ
	?MassConstr@Vertex@VERTEX@@QAEXN@Z
	?addMassConstr@Vertex@VERTEX@@QAEAAVMassC@2@N@Z
	?clearMassConstr@Vertex@VERTEX@@QAEXXZ
	?nMassConstr@Vertex@VERTEX@@QBEIXZ
	??4Vertex@VERTEX@@QAEABV01@ABV01@@Z
	??8Vertex@VERTEX@@QBE?B_NABV01@@Z
	??GVertex@VERTEX@@QBE?BNABV01@@Z
	?add_track@Vertex@VERTEX@@QAEXAAVTrack@2@@Z
	?get_track@Vertex@VERTEX@@QBEPBVTrack@2@H@Z
	?bigdim@Vertex@VERTEX@@ABE?BIXZ
	?invalid@Vertex@VERTEX@@AAEXXZ
	?IsA@Vertex@VERTEX@@UBEPAVTClass@@XZ
	?chi2@Kalman@VERTEX@@QBENXZ
	?chi2s@Kalman@VERTEX@@QBENXZ
	?tx@Kalman@VERTEX@@QBENXZ
	?ty@Kalman@VERTEX@@QBENXZ
	?p@Kalman@VERTEX@@QBENXZ
	?pz@Kalman@VERTEX@@QBENXZ
	?ex@Kalman@VERTEX@@QBENXZ
	?ey@Kalman@VERTEX@@QBENXZ
	?ez@Kalman@VERTEX@@QBENXZ
	?tvec@Kalman@VERTEX@@QBE?AV?$SVector@N$02@@XZ
	?pvec@Kalman@VERTEX@@QBE?AV?$SVector@N$02@@XZ
	?C@Kalman@VERTEX@@QBEABVVtSymMatrix@MATRIX@@XZ
	?CINV@Kalman@VERTEX@@QBEABVVtSymMatrix@MATRIX@@XZ
	?F@Kalman@VERTEX@@QBEABVVtSqMatrix@MATRIX@@XZ
	?ES@Kalman@VERTEX@@QBEABVVtSqMatrix@MATRIX@@XZ
	?DS@Kalman@VERTEX@@QBEABVVtSymMatrix@MATRIX@@XZ
	?xv@Kalman@VERTEX@@QBEABVVtVector@MATRIX@@XZ
	?xnk@Kalman@VERTEX@@QBEABVVtVector@MATRIX@@XZ
	?set_chi2@Kalman@VERTEX@@QAENN@Z
	?alpc_init@Kalman@VERTEX@@QAEXXZ
	?alp_init@Kalman@VERTEX@@QAEXXZ
	?alpc@Kalman@VERTEX@@QBEABVVtVector@MATRIX@@XZ
	?alp@Kalman@VERTEX@@QBEABVVtVector@MATRIX@@XZ
	?qvs_nc@Kalman@VERTEX@@QAEAAVVtVector@MATRIX@@XZ
	??$sqr@N@VERTEX@@YA?BNABN@Z
	??0?$SVector@N$02@@QAE@XZ
	??0?$SVector@N$02@@QAE@ABN00@Z
	??4?$SVector@N$02@@QAEAAV0@ABN@Z
	?apply@?$SVector@N$02@@QBENI@Z
	??A?$SVector@N$02@@QAEAANI@Z
	??Y?$SVector@N$02@@QAEAAV0@ABV0@@Z
	??$mag@N$02@@YANABV?$SVector@N$02@@@Z
	??$?DNN$02@@YA?AV?$Expr@V?$BinaryOp@V?$MulOp@N@@V?$Constant@N@@V?$SVector@N$02@@N@@N$02$0A@@@ABNABV?$SVector@N$02@@@Z
	??0?$Expr@V?$BinaryOp@V?$MulOp@N@@V?$Constant@N@@V?$SVector@N$02@@N@@N$02$0A@@@QAE@ABV?$BinaryOp@V?$MulOp@N@@V?$Constant@N@@V?$SVector@N$02@@N@@@Z
	??1?$Expr@V?$BinaryOp@V?$MulOp@N@@V?$Constant@N@@V?$SVector@N$02@@N@@N$02$0A@@@QAE@XZ
	?apply@?$Expr@V?$BinaryOp@V?$MulOp@N@@V?$Constant@N@@V?$SVector@N$02@@N@@N$02$0A@@@QBENI@Z
	??0?$BinaryOp@V?$MulOp@N@@V?$Constant@N@@V?$SVector@N$02@@N@@QAE@V?$MulOp@N@@ABV?$Constant@N@@ABV?$SVector@N$02@@@Z
	??1?$BinaryOp@V?$MulOp@N@@V?$Constant@N@@V?$SVector@N$02@@N@@QAE@XZ
	?apply@?$BinaryOp@V?$MulOp@N@@V?$Constant@N@@V?$SVector@N$02@@N@@QBENI@Z
	??$?0V?$BinaryOp@V?$MulOp@N@@V?$Constant@N@@V?$SVector@N$02@@N@@@?$SVector@N$02@@QAE@ABV?$Expr@V?$BinaryOp@V?$MulOp@N@@V?$Constant@N@@V?$SVector@N$02@@N@@N$02$0A@@@@Z
	??1VtNegMatrix@MATRIX@@UAE@XZ
	?IsA@VtNegMatrix@MATRIX@@UBEPAVTClass@@XZ
	?push_back@MassC@VERTEX@@QAEXAAVRelation@2@@Z
	?galp@MassC@VERTEX@@QBENXZ
	??6VERTEX@@YAAAV?$basic_ostream@DU?$char_traits@D@std@@@std@@AAV12@ABVMassC@0@@Z
	??0?$_Vector_const_iterator@V?$_Vector_val@U?$_Simple_types@PAVTrack@VERTEX@@@std@@@std@@@std@@QAE@PAPAVTrack@VERTEX@@PBU_Container_base0@1@@Z
	??D?$_Vector_const_iterator@V?$_Vector_val@U?$_Simple_types@PAVTrack@VERTEX@@@std@@@std@@@std@@QBEABQAVTrack@VERTEX@@XZ
	??E?$_Vector_const_iterator@V?$_Vector_val@U?$_Simple_types@PAVTrack@VERTEX@@@std@@@std@@@std@@QAEAAV01@XZ
	??8?$_Vector_const_iterator@V?$_Vector_val@U?$_Simple_types@PAVTrack@VERTEX@@@std@@@std@@@std@@QBE_NABV01@@Z
	??9?$_Vector_const_iterator@V?$_Vector_val@U?$_Simple_types@PAVTrack@VERTEX@@@std@@@std@@@std@@QBE_NABV01@@Z
	?_Compat@?$_Vector_const_iterator@V?$_Vector_val@U?$_Simple_types@PAVTrack@VERTEX@@@std@@@std@@@std@@QBEXABV12@@Z
	??0?$_Vector_iterator@V?$_Vector_val@U?$_Simple_types@PAVTrack@VERTEX@@@std@@@std@@@std@@QAE@PAPAVTrack@VERTEX@@PBU_Container_base0@1@@Z
	??0?$SMatrix@N$02$02@@QAE@XZ
	??4?$SMatrix@N$02$02@@QAEAAV0@ABN@Z
	??$?0N@?$SMatrix@N$02$02@@QAE@PBN_NI@Z
	??0?$_List_unchecked_const_iterator@V?$_List_val@U?$_List_simple_types@PAVMassC@VERTEX@@@std@@@std@@U_Iterator_base0@2@@std@@QAE@PAU?$_List_node@PAVMassC@VERTEX@@PAX@1@PBV?$_List_val@U?$_List_simple_types@PAVMassC@VERTEX@@@std@@@1@@Z
	??D?$_List_unchecked_const_iterator@V?$_List_val@U?$_List_simple_types@PAVMassC@VERTEX@@@std@@@std@@U_Iterator_base0@2@@std@@QBEABQAVMassC@VERTEX@@XZ
	??E?$_List_unchecked_const_iterator@V?$_List_val@U?$_List_simple_types@PAVMassC@VERTEX@@@std@@@std@@U_Iterator_base0@2@@std@@QAEAAV01@XZ
	??8?$_List_unchecked_const_iterator@V?$_List_val@U?$_List_simple_types@PAVMassC@VERTEX@@@std@@@std@@U_Iterator_base0@2@@std@@QBE_NABV01@@Z
	??9?$_List_unchecked_const_iterator@V?$_List_val@U?$_List_simple_types@PAVMassC@VERTEX@@@std@@@std@@U_Iterator_base0@2@@std@@QBE_NABV01@@Z
	?_Mynode@?$_List_unchecked_const_iterator@V?$_List_val@U?$_List_simple_types@PAVMassC@VERTEX@@@std@@@std@@U_Iterator_base0@2@@std@@QBEPAU?$_List_node@PAVMassC@VERTEX@@PAX@2@XZ
	??0?$_List_const_iterator@V?$_List_val@U?$_List_simple_types@PAVMassC@VERTEX@@@std@@@std@@@std@@QAE@PAU?$_List_node@PAVMassC@VERTEX@@PAX@1@PBV?$_List_val@U?$_List_simple_types@PAVMassC@VERTEX@@@std@@@1@@Z
	??D?$_List_const_iterator@V?$_List_val@U?$_List_simple_types@PAVMassC@VERTEX@@@std@@@std@@@std@@QBEABQAVMassC@VERTEX@@XZ
	??E?$_List_const_iterator@V?$_List_val@U?$_List_simple_types@PAVMassC@VERTEX@@@std@@@std@@@std@@QAEAAV01@XZ
	??F?$_List_const_iterator@V?$_List_val@U?$_List_simple_types@PAVMassC@VERTEX@@@std@@@std@@@std@@QAEAAV01@XZ
	??8?$_List_const_iterator@V?$_List_val@U?$_List_simple_types@PAVMassC@VERTEX@@@std@@@std@@@std@@QBE_NABV01@@Z
	??9?$_List_const_iterator@V?$_List_val@U?$_List_simple_types@PAVMassC@VERTEX@@@std@@@std@@@std@@QBE_NABV01@@Z
	??0?$_List_iterator@V?$_List_val@U?$_List_simple_types@PAVMassC@VERTEX@@@std@@@std@@@std@@QAE@PAU?$_List_node@PAVMassC@VERTEX@@PAX@1@PBV?$_List_val@U?$_List_simple_types@PAVMassC@VERTEX@@@std@@@1@@Z
	?_Rechecked@?$_List_iterator@V?$_List_val@U?$_List_simple_types@PAVMassC@VERTEX@@@std@@@std@@@std@@QAEAAV12@V?$_List_unchecked_iterator@V?$_List_val@U?$_List_simple_types@PAVMassC@VERTEX@@@std@@@std@@@2@@Z
	?_Unchecked@?$_List_iterator@V?$_List_val@U?$_List_simple_types@PAVMassC@VERTEX@@@std@@@std@@@std@@QBE?AV?$_List_unchecked_iterator@V?$_List_val@U?$_List_simple_types@PAVMassC@VERTEX@@@std@@@std@@@2@XZ
	??D?$_List_iterator@V?$_List_val@U?$_List_simple_types@PAVMassC@VERTEX@@@std@@@std@@@std@@QBEAAPAVMassC@VERTEX@@XZ
	??F?$_List_iterator@V?$_List_val@U?$_List_simple_types@PAVMassC@VERTEX@@@std@@@std@@@std@@QAEAAV01@XZ
	??$find@V?$_List_iterator@V?$_List_val@U?$_List_simple_types@PAVMassC@VERTEX@@@std@@@std@@@std@@PAVMassC@VERTEX@@@std@@YA?AV?$_List_iterator@V?$_List_val@U?$_List_simple_types@PAVMassC@VERTEX@@@std@@@std@@@0@V10@0ABQAVMassC@VERTEX@@@Z
	??$?6U?$char_traits@D@std@@@std@@YAAAV?$basic_ostream@DU?$char_traits@D@std@@@0@AAV10@PBD@Z
	??$endl@DU?$char_traits@D@std@@@std@@YAAAV?$basic_ostream@DU?$char_traits@D@std@@@0@AAV10@@Z
	??$?6DU?$char_traits@D@std@@_J@std@@YAAAV?$basic_ostream@DU?$char_traits@D@std@@@0@AAV10@ABU?$_Smanip@_J@0@@Z
	??0?$allocator@N@std@@QAE@XZ
	?deallocate@?$allocator@N@std@@QAEXPANI@Z
	?allocate@?$allocator@N@std@@QAEPANI@Z
	?max_size@?$allocator@N@std@@QBEIXZ
	?max_size@?$allocator_traits@V?$allocator@N@std@@@std@@SAIABV?$allocator@N@2@@Z
	??0?$_Wrap_alloc@V?$allocator@N@std@@@std@@QAE@XZ
	?allocate@?$_Wrap_alloc@V?$allocator@N@std@@@std@@QAEPANI@Z
	?deallocate@?$_Wrap_alloc@V?$allocator@N@std@@@std@@QAEXPANI@Z
	?max_size@?$_Wrap_alloc@V?$allocator@N@std@@@std@@QBEIXZ
	??0?$_Vector_val@U?$_Simple_types@N@std@@@std@@QAE@XZ
	??0?$_Vector_alloc@$0A@U?$_Vec_base_types@NV?$allocator@N@std@@@std@@@std@@QAE@ABV?$allocator@N@1@@Z
	?_Getal@?$_Vector_alloc@$0A@U?$_Vec_base_types@NV?$allocator@N@std@@@std@@@std@@QBE?AU?$_Wrap_alloc@V?$allocator@N@std@@@2@XZ
	??0?$vector@NV?$allocator@N@std@@@std@@QAE@I@Z
	??0?$vector@NV?$allocator@N@std@@@std@@QAE@IABN@Z
	?_Construct_n@?$vector@NV?$allocator@N@std@@@std@@QAEXIPBN@Z
	??1?$vector@NV?$allocator@N@std@@@std@@QAE@XZ
	?max_size@?$vector@NV?$allocator@N@std@@@std@@QBEIXZ
	??A?$vector@NV?$allocator@N@std@@@std@@QBEABNI@Z
	??A?$vector@NV?$allocator@N@std@@@std@@QAEAANI@Z
	?_Buy@?$vector@NV?$allocator@N@std@@@std@@IAE_NI@Z
	?_Destroy@?$vector@NV?$allocator@N@std@@@std@@IAEXPAN0@Z
	?_Tidy@?$vector@NV?$allocator@N@std@@@std@@IAEXXZ
	?_Ufill@?$vector@NV?$allocator@N@std@@@std@@IAEPANPANIPBN@Z
	?_Xlen@?$vector@NV?$allocator@N@std@@@std@@IBEXXZ
	??$mag2@N$02@@YANABV?$SVector@N$02@@@Z
	??$sqr@M@VERTEX@@YA?BMABM@Z
	??$max@N@VERTEX@@YA?BNABN0@Z
	??0_Sentry_base@?$basic_ostream@DU?$char_traits@D@std@@@std@@QAE@AAV12@@Z
	??1_Sentry_base@?$basic_ostream@DU?$char_traits@D@std@@@std@@QAE@XZ
	??0sentry@?$basic_ostream@DU?$char_traits@D@std@@@std@@QAE@AAV12@@Z
	??1sentry@?$basic_ostream@DU?$char_traits@D@std@@@std@@QAE@XZ
	??Bsentry@?$basic_ostream@DU?$char_traits@D@std@@@std@@QBE_NXZ
	??0?$_List_unchecked_iterator@V?$_List_val@U?$_List_simple_types@PAVMassC@VERTEX@@@std@@@std@@@std@@QAE@PAU?$_List_node@PAVMassC@VERTEX@@PAX@1@PBV?$_List_val@U?$_List_simple_types@PAVMassC@VERTEX@@@std@@@1@@Z
	??D?$_List_unchecked_iterator@V?$_List_val@U?$_List_simple_types@PAVMassC@VERTEX@@@std@@@std@@@std@@QBEAAPAVMassC@VERTEX@@XZ
	??E?$_List_unchecked_iterator@V?$_List_val@U?$_List_simple_types@PAVMassC@VERTEX@@@std@@@std@@@std@@QAEAAV01@XZ
	??$forward@PAVMassC@VERTEX@@@std@@YA$$QAPAVMassC@VERTEX@@AAPAV12@@Z
	??$_Insert@PAVMassC@VERTEX@@@?$list@PAVMassC@VERTEX@@V?$allocator@PAVMassC@VERTEX@@@std@@@std@@QAEXV?$_List_unchecked_const_iterator@V?$_List_val@U?$_List_simple_types@PAVMassC@VERTEX@@@std@@@std@@U_Iterator_base0@2@@1@$$QAPAVMassC@VERTEX@@@Z
	??$_Insert@ABQAVMassC@VERTEX@@@?$list@PAVMassC@VERTEX@@V?$allocator@PAVMassC@VERTEX@@@std@@@std@@QAEXV?$_List_unchecked_const_iterator@V?$_List_val@U?$_List_simple_types@PAVMassC@VERTEX@@@std@@@std@@U_Iterator_base0@2@@1@ABQAVMassC@VERTEX@@@Z
	??$addressof@PAVTrack@VERTEX@@@std@@YAPAPAVTrack@VERTEX@@AAPAV12@@Z
	??$forward@PAVTrack@VERTEX@@@std@@YA$$QAPAVTrack@VERTEX@@AAPAV12@@Z
	??$construct@PAVTrack@VERTEX@@PAV12@@?$_Wrap_alloc@V?$allocator@PAVTrack@VERTEX@@@std@@@std@@QAEXPAPAVTrack@VERTEX@@$$QAPAV23@@Z
	??$_Uninitialized_default_fill_n@PANIU?$_Wrap_alloc@V?$allocator@N@std@@@std@@@std@@YAXPANIAAU?$_Wrap_alloc@V?$allocator@N@std@@@0@@Z
	??$addressof@$$CBN@std@@YAPBNABN@Z
	??$construct@PADAAPAD@?$_Wrap_alloc@V?$allocator@D@std@@@std@@QAEXPAPADAAPAD@Z
	??$destroy@PAD@?$_Wrap_alloc@V?$allocator@D@std@@@std@@QAEXPAPAD@Z
	??$addressof@D@std@@YAPADAAD@Z
	??$addressof@PAU?$_List_node@PAVMassC@VERTEX@@PAX@std@@@std@@YAPAPAU?$_List_node@PAVMassC@VERTEX@@PAX@0@AAPAU10@@Z
	??$destroy@PAU?$_List_node@PAVMassC@VERTEX@@PAX@std@@@?$_Wrap_alloc@V?$allocator@U?$_List_node@PAVMassC@VERTEX@@PAX@std@@@std@@@std@@QAEXPAPAU?$_List_node@PAVMassC@VERTEX@@PAX@1@@Z
	??$addressof@PAVMassC@VERTEX@@@std@@YAPAPAVMassC@VERTEX@@AAPAV12@@Z
	??$destroy@PAVMassC@VERTEX@@@?$_Wrap_alloc@V?$allocator@U?$_List_node@PAVMassC@VERTEX@@PAX@std@@@std@@@std@@QAEXPAPAVMassC@VERTEX@@@Z
	??$_Destroy_range@U?$_Wrap_alloc@V?$allocator@PAVTrack@VERTEX@@@std@@@std@@@std@@YAXPAPAVTrack@VERTEX@@0AAU?$_Wrap_alloc@V?$allocator@PAVTrack@VERTEX@@@std@@@0@@Z
	??$_Umove@PAPAVTrack@VERTEX@@@?$vector@PAVTrack@VERTEX@@V?$allocator@PAVTrack@VERTEX@@@std@@@std@@IAEPAPAVTrack@VERTEX@@PAPAV23@00@Z
	??$_Destroy_range@U?$_Wrap_alloc@V?$allocator@N@std@@@std@@@std@@YAXPAN0AAU?$_Wrap_alloc@V?$allocator@N@std@@@0@@Z
	??$_Uninitialized_fill_n@PANINU?$_Wrap_alloc@V?$allocator@N@std@@@std@@@std@@YAXPANIPBNAAU?$_Wrap_alloc@V?$allocator@N@std@@@0@@Z
	??$_Allocate@N@std@@YAPANIPAN@Z
	??$construct@PAU?$_List_node@PAVMassC@VERTEX@@PAX@std@@AAPAU12@@?$_Wrap_alloc@V?$allocator@U?$_List_node@PAVMassC@VERTEX@@PAX@std@@@std@@@std@@QAEXPAPAU?$_List_node@PAVMassC@VERTEX@@PAX@1@AAPAU21@@Z
	??$_Allocate@PAVTrack@VERTEX@@@std@@YAPAPAVTrack@VERTEX@@IPAPAV12@@Z
	??$_Allocate@D@std@@YAPADIPAD@Z
	??$_Allocate@U?$_List_node@PAVMassC@VERTEX@@PAX@std@@@std@@YAPAU?$_List_node@PAVMassC@VERTEX@@PAX@0@IPAU10@@Z
	??$equal@V?$_List_const_iterator@V?$_List_val@U?$_List_simple_types@PAVRelation@VERTEX@@@std@@@std@@@std@@V12@@std@@YA_NV?$_List_const_iterator@V?$_List_val@U?$_List_simple_types@PAVRelation@VERTEX@@@std@@@std@@@0@00@Z
	?apply@?$MulOp@N@@SANABN0@Z
	??0?$Constant@N@@QAE@ABN@Z
	??1?$Constant@N@@QAE@XZ
	?apply@?$Constant@N@@QBENI@Z
	??$?4V?$BinaryOp@V?$MulOp@N@@V?$Constant@N@@V?$SVector@N$02@@N@@@?$SVector@N$02@@QAEAAV0@ABV?$Expr@V?$BinaryOp@V?$MulOp@N@@V?$Constant@N@@V?$SVector@N$02@@N@@N$02$0A@@@@Z
	??$square@I@@YA?BIABI@Z
	??$_Unchecked@V?$_List_val@U?$_List_simple_types@PAVMassC@VERTEX@@@std@@@std@@@std@@YA?AV?$_List_unchecked_iterator@V?$_List_val@U?$_List_simple_types@PAVMassC@VERTEX@@@std@@@std@@@0@V?$_List_iterator@V?$_List_val@U?$_List_simple_types@PAVMassC@VERTEX@@@std@@@std@@@0@@Z
	??$_Find@V?$_List_unchecked_iterator@V?$_List_val@U?$_List_simple_types@PAVMassC@VERTEX@@@std@@@std@@@std@@PAVMassC@VERTEX@@@std@@YA?AV?$_List_unchecked_iterator@V?$_List_val@U?$_List_simple_types@PAVMassC@VERTEX@@@std@@@std@@@0@V10@0ABQAVMassC@VERTEX@@@Z
	??$_Rechecked@V?$_List_val@U?$_List_simple_types@PAVMassC@VERTEX@@@std@@@std@@@std@@YAAAV?$_List_iterator@V?$_List_val@U?$_List_simple_types@PAVMassC@VERTEX@@@std@@@std@@@0@AAV10@V?$_List_unchecked_iterator@V?$_List_val@U?$_List_simple_types@PAVMassC@VERTEX@@@std@@@std@@@0@@Z
	??$f@V?$SVector@N$02@@N@?$meta_mag@$01@@SANABV?$SVector@N$02@@ABN@Z
	??$_Buynode@PAVMassC@VERTEX@@@?$_List_buy@PAVMassC@VERTEX@@V?$allocator@PAVMassC@VERTEX@@@std@@@std@@QAEPAU?$_List_node@PAVMassC@VERTEX@@PAX@1@PAU21@0$$QAPAVMassC@VERTEX@@@Z
	??$forward@ABQAVMassC@VERTEX@@@std@@YAABQAVMassC@VERTEX@@ABQAV12@@Z
	??$_Buynode@ABQAVMassC@VERTEX@@@?$_List_buy@PAVMassC@VERTEX@@V?$allocator@PAVMassC@VERTEX@@@std@@@std@@QAEPAU?$_List_node@PAVMassC@VERTEX@@PAX@1@PAU21@0ABQAVMassC@VERTEX@@@Z
	??$construct@PAVTrack@VERTEX@@PAV12@@?$allocator_traits@V?$allocator@PAVTrack@VERTEX@@@std@@@std@@SAXAAV?$allocator@PAVTrack@VERTEX@@@1@PAPAVTrack@VERTEX@@$$QAPAV34@@Z
	??$_Val_type@PAN@std@@YAPANPAN@Z
	??$_Ptr_cat@NN@std@@YA?AU_Scalar_ptr_iterator_tag@0@PAN0@Z
	??$_Uninit_def_fill_n@NIN@std@@YAXPANIAAU?$_Wrap_alloc@V?$allocator@N@std@@@0@0U_Scalar_ptr_iterator_tag@0@@Z
	??$forward@AAPAD@std@@YAAAPADAAPAD@Z
	??$construct@PADAAPAD@?$allocator_traits@V?$allocator@D@std@@@std@@SAXAAV?$allocator@D@1@PAPADAAPAD@Z
	??$destroy@PAD@?$allocator_traits@V?$allocator@D@std@@@std@@SAXAAV?$allocator@D@1@PAPAD@Z
	??$destroy@PAU?$_List_node@PAVMassC@VERTEX@@PAX@std@@@?$allocator_traits@V?$allocator@U?$_List_node@PAVMassC@VERTEX@@PAX@std@@@std@@@std@@SAXAAV?$allocator@U?$_List_node@PAVMassC@VERTEX@@PAX@std@@@1@PAPAU?$_List_node@PAVMassC@VERTEX@@PAX@1@@Z
	??$destroy@PAVMassC@VERTEX@@@?$allocator_traits@V?$allocator@U?$_List_node@PAVMassC@VERTEX@@PAX@std@@@std@@@std@@SAXAAV?$allocator@U?$_List_node@PAVMassC@VERTEX@@PAX@std@@@1@PAPAVMassC@VERTEX@@@Z
	??$_Ptr_cat@PAVTrack@VERTEX@@PAV12@@std@@YA?AU_Scalar_ptr_iterator_tag@0@PAPAVTrack@VERTEX@@0@Z
	??$_Destroy_range@U?$_Wrap_alloc@V?$allocator@PAVTrack@VERTEX@@@std@@@std@@@std@@YAXPAPAVTrack@VERTEX@@0AAU?$_Wrap_alloc@V?$allocator@PAVTrack@VERTEX@@@std@@@0@U_Scalar_ptr_iterator_tag@0@@Z
	??$_Uninitialized_move@PAPAVTrack@VERTEX@@PAPAV12@U?$_Wrap_alloc@V?$allocator@PAVTrack@VERTEX@@@std@@@std@@@std@@YAPAPAVTrack@VERTEX@@PAPAV12@00AAU?$_Wrap_alloc@V?$allocator@PAVTrack@VERTEX@@@std@@@0@@Z
	??$_Destroy_range@U?$_Wrap_alloc@V?$allocator@N@std@@@std@@@std@@YAXPAN0AAU?$_Wrap_alloc@V?$allocator@N@std@@@0@U_Scalar_ptr_iterator_tag@0@@Z
	??$_Uninit_fill_n@NINN@std@@YAXPANIPBNAAU?$_Wrap_alloc@V?$allocator@N@std@@@0@0U_Scalar_ptr_iterator_tag@0@@Z
	??$forward@AAPAU?$_List_node@PAVMassC@VERTEX@@PAX@std@@@std@@YAAAPAU?$_List_node@PAVMassC@VERTEX@@PAX@0@AAPAU10@@Z
	??$construct@PAU?$_List_node@PAVMassC@VERTEX@@PAX@std@@AAPAU12@@?$allocator_traits@V?$allocator@U?$_List_node@PAVMassC@VERTEX@@PAX@std@@@std@@@std@@SAXAAV?$allocator@U?$_List_node@PAVMassC@VERTEX@@PAX@std@@@1@PAPAU?$_List_node@PAVMassC@VERTEX@@PAX@1@AAPAU31@@Z
	??$_Unchecked@V?$_List_val@U?$_List_simple_types@PAVRelation@VERTEX@@@std@@@std@@@std@@YA?AV?$_List_unchecked_const_iterator@V?$_List_val@U?$_List_simple_types@PAVRelation@VERTEX@@@std@@@std@@U_Iterator_base0@2@@0@V?$_List_const_iterator@V?$_List_val@U?$_List_simple_types@PAVRelation@VERTEX@@@std@@@std@@@0@@Z
	??$_Equal@V?$_List_unchecked_const_iterator@V?$_List_val@U?$_List_simple_types@PAVRelation@VERTEX@@@std@@@std@@U_Iterator_base0@2@@std@@V12@@std@@YA_NV?$_List_unchecked_const_iterator@V?$_List_val@U?$_List_simple_types@PAVRelation@VERTEX@@@std@@@std@@U_Iterator_base0@2@@0@00@Z
	??$_Find@V?$_List_unchecked_iterator@V?$_List_val@U?$_List_simple_types@PAVMassC@VERTEX@@@std@@@std@@@std@@PAVMassC@VERTEX@@@std@@YA?AV?$_List_unchecked_iterator@V?$_List_val@U?$_List_simple_types@PAVMassC@VERTEX@@@std@@@std@@@0@V10@0ABQAVMassC@VERTEX@@U?$integral_constant@_N$0A@@0@@Z
	??$square@N@@YA?BNABN@Z
	??$f@V?$SVector@N$02@@N@?$meta_mag@$00@@SANABV?$SVector@N$02@@ABN@Z
	??$construct@PAVMassC@VERTEX@@PAV12@@?$_Wrap_alloc@V?$allocator@U?$_List_node@PAVMassC@VERTEX@@PAX@std@@@std@@@std@@QAEXPAPAVMassC@VERTEX@@$$QAPAV23@@Z
	??$construct@PAVMassC@VERTEX@@ABQAV12@@?$_Wrap_alloc@V?$allocator@U?$_List_node@PAVMassC@VERTEX@@PAX@std@@@std@@@std@@QAEXPAPAVMassC@VERTEX@@ABQAV23@@Z
	??$construct@PAVTrack@VERTEX@@PAV12@@?$allocator@PAVTrack@VERTEX@@@std@@QAEXPAPAVTrack@VERTEX@@$$QAPAV23@@Z
	??$_Fill_n@PANIN@std@@YAPANPANIABN@Z
	??$construct@PADAAPAD@?$allocator@D@std@@QAEXPAPADAAPAD@Z
	??$destroy@PAD@?$allocator@D@std@@QAEXPAPAD@Z
	??$destroy@PAU?$_List_node@PAVMassC@VERTEX@@PAX@std@@@?$allocator@U?$_List_node@PAVMassC@VERTEX@@PAX@std@@@std@@QAEXPAPAU?$_List_node@PAVMassC@VERTEX@@PAX@1@@Z
	??$destroy@PAVMassC@VERTEX@@@?$allocator@U?$_List_node@PAVMassC@VERTEX@@PAX@std@@@std@@QAEXPAPAVMassC@VERTEX@@@Z
	??$_Unchecked@PAPAVTrack@VERTEX@@@std@@YAPAPAVTrack@VERTEX@@PAPAV12@@Z
	??$_Uninit_move@PAPAVTrack@VERTEX@@PAPAV12@U?$_Wrap_alloc@V?$allocator@PAVTrack@VERTEX@@@std@@@std@@@std@@YAPAPAVTrack@VERTEX@@PAPAV12@00AAU?$_Wrap_alloc@V?$allocator@PAVTrack@VERTEX@@@std@@@0@@Z
	??$_Rechecked@PAPAVTrack@VERTEX@@PAPAV12@@std@@YAAAPAPAVTrack@VERTEX@@AAPAPAV12@PAPAV12@@Z
	??$construct@PAU?$_List_node@PAVMassC@VERTEX@@PAX@std@@AAPAU12@@?$allocator@U?$_List_node@PAVMassC@VERTEX@@PAX@std@@@std@@QAEXPAPAU?$_List_node@PAVMassC@VERTEX@@PAX@1@AAPAU21@@Z
	??$f@V?$SVector@N$02@@N@?$meta_mag@$0A@@@SANABV?$SVector@N$02@@ABN@Z
	??$construct@PAVMassC@VERTEX@@PAV12@@?$allocator_traits@V?$allocator@U?$_List_node@PAVMassC@VERTEX@@PAX@std@@@std@@@std@@SAXAAV?$allocator@U?$_List_node@PAVMassC@VERTEX@@PAX@std@@@1@PAPAVMassC@VERTEX@@$$QAPAV34@@Z
	??$construct@PAVMassC@VERTEX@@ABQAV12@@?$allocator_traits@V?$allocator@U?$_List_node@PAVMassC@VERTEX@@PAX@std@@@std@@@std@@SAXAAV?$allocator@U?$_List_node@PAVMassC@VERTEX@@PAX@std@@@1@PAPAVMassC@VERTEX@@ABQAV34@@Z
	??$_Val_type@PAPAVTrack@VERTEX@@@std@@YAPAPAVTrack@VERTEX@@PAPAV12@@Z
	??$_Uninit_move@PAVTrack@VERTEX@@PAV12@PAV12@@std@@YAPAPAVTrack@VERTEX@@PAPAV12@00AAU?$_Wrap_alloc@V?$allocator@PAVTrack@VERTEX@@@std@@@0@0U_Scalar_ptr_iterator_tag@0@@Z
	??$construct@PAVMassC@VERTEX@@PAV12@@?$allocator@U?$_List_node@PAVMassC@VERTEX@@PAX@std@@@std@@QAEXPAPAVMassC@VERTEX@@$$QAPAV23@@Z
	??$construct@PAVMassC@VERTEX@@ABQAV12@@?$allocator@U?$_List_node@PAVMassC@VERTEX@@PAX@std@@@std@@QAEXPAPAVMassC@VERTEX@@ABQAV23@@Z
	?IsA@Vertex@VERTEX@@WM@BEPAVTClass@@XZ
	?ShowMembers@Vertex@VERTEX@@WM@AEXAAVTMemberInspector@@@Z
	?Streamer@Vertex@VERTEX@@WM@AEXAAVTBuffer@@@Z
	?_Generic_object@?$_Error_objects@H@std@@2V_Generic_error_category@2@A 	 DATA
	?_Iostream_object@?$_Error_objects@H@std@@2V_Iostream_error_category@2@A 	 DATA
	?_System_object@?$_Error_objects@H@std@@2V_System_error_category@2@A 	 DATA
	?id@?$num_put@DV?$back_insert_iterator@V?$basic_string@DU?$char_traits@D@std@@V?$allocator@D@2@@std@@@std@@@std@@2V0locale@2@A 	 DATA
	?id@?$num_put@_WV?$back_insert_iterator@V?$basic_string@_WU?$char_traits@_W@std@@V?$allocator@_W@2@@std@@@std@@@std@@2V0locale@2@A 	 DATA
	??_R0?AVerror_category@std@@@8 	 DATA
	??_R0?AV_Generic_error_category@std@@@8 	 DATA
	??_R0?AV_Iostream_error_category@std@@@8 	 DATA
	??_R0?AV_System_error_category@std@@@8 	 DATA
	??_R0?AVTObject@@@8 	 DATA
	??_R0?AVVtNegMatrix@MATRIX@@@8 	 DATA
	??_R0?AVVtMatrix@MATRIX@@@8 	 DATA
	??_R0?AVVtSqMatrix@MATRIX@@@8 	 DATA
	??_R0?AVVtSymMatrix@MATRIX@@@8 	 DATA
	??_R0?AVCMatrix@MATRIX@@@8 	 DATA
	??_R0?AVRelationIterator@VERTEX@@@8 	 DATA
	??_R0?AVConstRelationIterator@VERTEX@@@8 	 DATA
	??_R0?AVConstReverseRelationIterator@VERTEX@@@8 	 DATA
	??_R0?AVVertex@VERTEX@@@8 	 DATA
	??_R0?AVTrack@VERTEX@@@8 	 DATA
	??_R0?AVRelationList@VERTEX@@@8 	 DATA
	hypot
	??2@YAPAXIPAX@Z
	??3@YAXPAX0@Z
	?length@?$char_traits@D@std@@SAIPBD@Z
	?copy@?$char_traits@D@std@@SAPADPADPBDI@Z
	?move@?$char_traits@D@std@@SAPADPADPBDI@Z
	?assign@?$char_traits@D@std@@SAXAADABD@Z
	??0?$allocator@D@std@@QAE@XZ
	?deallocate@?$allocator@D@std@@QAEXPADI@Z
	?allocate@?$allocator@D@std@@QAEPADI@Z
	?max_size@?$allocator@D@std@@QBEIXZ
	?max_size@?$allocator_traits@V?$allocator@D@std@@@std@@SAIABV?$allocator@D@2@@Z
	??0?$_Wrap_alloc@V?$allocator@D@std@@@std@@QAE@XZ
	?allocate@?$_Wrap_alloc@V?$allocator@D@std@@@std@@QAEPADI@Z
	?deallocate@?$_Wrap_alloc@V?$allocator@D@std@@@std@@QAEXPADI@Z
	?max_size@?$_Wrap_alloc@V?$allocator@D@std@@@std@@QBEIXZ
	??0?$_String_val@U?$_Simple_types@D@std@@@std@@QAE@XZ
	?_Myptr@?$_String_val@U?$_Simple_types@D@std@@@std@@QAEPADXZ
	?_Myptr@?$_String_val@U?$_Simple_types@D@std@@@std@@QBEPBDXZ
	??0?$_String_alloc@$0A@U?$_String_base_types@DV?$allocator@D@std@@@std@@@std@@QAE@ABV?$allocator@D@1@@Z
	?_Getal@?$_String_alloc@$0A@U?$_String_base_types@DV?$allocator@D@std@@@std@@@std@@QBE?AU?$_Wrap_alloc@V?$allocator@D@std@@@2@XZ
	??0?$basic_string@DU?$char_traits@D@std@@V?$allocator@D@2@@std@@QAE@PBD@Z
	??1?$basic_string@DU?$char_traits@D@std@@V?$allocator@D@2@@std@@QAE@XZ
	?assign@?$basic_string@DU?$char_traits@D@std@@V?$allocator@D@2@@std@@QAEAAV12@ABV12@II@Z
	?assign@?$basic_string@DU?$char_traits@D@std@@V?$allocator@D@2@@std@@QAEAAV12@PBDI@Z
	?assign@?$basic_string@DU?$char_traits@D@std@@V?$allocator@D@2@@std@@QAEAAV12@PBD@Z
	?erase@?$basic_string@DU?$char_traits@D@std@@V?$allocator@D@2@@std@@QAEAAV12@I@Z
	?erase@?$basic_string@DU?$char_traits@D@std@@V?$allocator@D@2@@std@@QAEAAV12@II@Z
	?size@?$basic_string@DU?$char_traits@D@std@@V?$allocator@D@2@@std@@QBEIXZ
	?max_size@?$basic_string@DU?$char_traits@D@std@@V?$allocator@D@2@@std@@QBEIXZ
	?_Copy@?$basic_string@DU?$char_traits@D@std@@V?$allocator@D@2@@std@@QAEXII@Z
	?_Eos@?$basic_string@DU?$char_traits@D@std@@V?$allocator@D@2@@std@@QAEXI@Z
	?_Grow@?$basic_string@DU?$char_traits@D@std@@V?$allocator@D@2@@std@@QAE_NI_N@Z
	?_Inside@?$basic_string@DU?$char_traits@D@std@@V?$allocator@D@2@@std@@QAE_NPBD@Z
	?_Tidy@?$basic_string@DU?$char_traits@D@std@@V?$allocator@D@2@@std@@QAEX_NI@Z
	?_Xlen@?$basic_string@DU?$char_traits@D@std@@V?$allocator@D@2@@std@@QBEXXZ
	?_Xran@?$basic_string@DU?$char_traits@D@std@@V?$allocator@D@2@@std@@QBEXXZ
	?generic_category@std@@YAABVerror_category@1@XZ
	?system_category@std@@YAABVerror_category@1@XZ
	??0error_category@std@@QAE@XZ
	??1error_category@std@@UAE@XZ
	?default_error_condition@error_category@std@@UBE?AVerror_condition@2@H@Z
	?equivalent@error_category@std@@UBE_NHABVerror_condition@2@@Z
	?equivalent@error_category@std@@UBE_NABVerror_code@2@H@Z
	??8error_category@std@@QBE_NABV01@@Z
	?value@error_code@std@@QBEHXZ
	?category@error_code@std@@QBEABVerror_category@2@XZ
	??0error_condition@std@@QAE@HABVerror_category@1@@Z
	?value@error_condition@std@@QBEHXZ
	?category@error_condition@std@@QBEABVerror_category@2@XZ
	??8error_condition@std@@QBE_NABV01@@Z
	??0_Generic_error_category@std@@QAE@XZ
	?name@_Generic_error_category@std@@UBEPBDXZ
	?message@_Generic_error_category@std@@UBE?AV?$basic_string@DU?$char_traits@D@std@@V?$allocator@D@2@@2@H@Z
	??1_Generic_error_category@std@@UAE@XZ
	??0_Iostream_error_category@std@@QAE@XZ
	?name@_Iostream_error_category@std@@UBEPBDXZ
	?message@_Iostream_error_category@std@@UBE?AV?$basic_string@DU?$char_traits@D@std@@V?$allocator@D@2@@2@H@Z
	??1_Iostream_error_category@std@@UAE@XZ
	??0_System_error_category@std@@QAE@XZ
	?name@_System_error_category@std@@UBEPBDXZ
	?message@_System_error_category@std@@UBE?AV?$basic_string@DU?$char_traits@D@std@@V?$allocator@D@2@@2@H@Z
	?default_error_condition@_System_error_category@std@@UBE?AVerror_condition@2@H@Z
	??1_System_error_category@std@@UAE@XZ
	?distanceChi2@VERTEX@@YANAAVTrack@1@0@Z
	?distance@VERTEX@@YANABVTrack@1@ABVVertex@1@@Z
	?SGNdistance@VERTEX@@YANABVTrack@1@ABVVertex@1@@Z
	?SGNdistance@VERTEX@@YANABVTrack@1@NNN@Z
	?distanceChi2@VERTEX@@YANABVVertex@1@0@Z
	?distanceChi2@VERTEX@@YANABVVertex@1@NNN@Z
	??$sqr@N@VERTEX@@YA?BNABN@Z
	??$sgn@N@VERTEX@@YA?BFABN@Z
	??$construct@PADAAPAD@?$_Wrap_alloc@V?$allocator@D@std@@@std@@QAEXPAPADAAPAD@Z
	??$destroy@PAD@?$_Wrap_alloc@V?$allocator@D@std@@@std@@QAEXPAPAD@Z
	??$addressof@D@std@@YAPADAAD@Z
	??$_Allocate@D@std@@YAPADIPAD@Z
	??$forward@AAPAD@std@@YAAAPADAAPAD@Z
	??$construct@PADAAPAD@?$allocator_traits@V?$allocator@D@std@@@std@@SAXAAV?$allocator@D@1@PAPADAAPAD@Z
	??$destroy@PAD@?$allocator_traits@V?$allocator@D@std@@@std@@SAXAAV?$allocator@D@1@PAPAD@Z
	??$construct@PADAAPAD@?$allocator@D@std@@QAEXPAPADAAPAD@Z
	??$destroy@PAD@?$allocator@D@std@@QAEXPAPAD@Z
	?_Generic_object@?$_Error_objects@H@std@@2V_Generic_error_category@2@A 	 DATA
	?_Iostream_object@?$_Error_objects@H@std@@2V_Iostream_error_category@2@A 	 DATA
	?_System_object@?$_Error_objects@H@std@@2V_System_error_category@2@A 	 DATA
	?id@?$num_put@DV?$back_insert_iterator@V?$basic_string@DU?$char_traits@D@std@@V?$allocator@D@2@@std@@@std@@@std@@2V0locale@2@A 	 DATA
	?id@?$num_put@_WV?$back_insert_iterator@V?$basic_string@_WU?$char_traits@_W@std@@V?$allocator@_W@2@@std@@@std@@@std@@2V0locale@2@A 	 DATA
	??_R0?AVerror_category@std@@@8 	 DATA
	??_R0?AV_Generic_error_category@std@@@8 	 DATA
	??_R0?AV_Iostream_error_category@std@@@8 	 DATA
	??_R0?AV_System_error_category@std@@@8 	 DATA
	?fgIsA@VtVector@MATRIX@@0PAVTClass@@A 	 DATA
	?GenerateInitInstance@ROOTDict@VERTEX@@YAPAVTGenericClassInfo@ROOT@@XZ
	?vtCintInitFunctionKeeper283@ROOTDict@VERTEX@@3P6APAVTGenericClassInfo@ROOT@@XZA 	 DATA
	?fgIsA@ConstReverseRelationIterator@VERTEX@@0PAVTClass@@A 	 DATA
	?fgIsA@VtMatrix@MATRIX@@0PAVTClass@@A 	 DATA
	?fgIsA@CMatrix@MATRIX@@0PAVTClass@@A 	 DATA
	?fgIsA@RelationList@VERTEX@@0PAVTClass@@A 	 DATA
	?fgIsA@VtSqMatrix@MATRIX@@0PAVTClass@@A 	 DATA
	?fgIsA@Vertex@VERTEX@@0PAVTClass@@A 	 DATA
	?fgIsA@MassC@VERTEX@@0PAVTClass@@A 	 DATA
	?fgIsA@VtNegMatrix@MATRIX@@0PAVTClass@@A 	 DATA
	?fgIsA@RelationIterator@VERTEX@@0PAVTClass@@A 	 DATA
	?fgIsA@Track@VERTEX@@0PAVTClass@@A 	 DATA
	?fgIsA@VtSymMatrix@MATRIX@@0PAVTClass@@A 	 DATA
	?G__vtCintLN_TClass@@3UG__linked_taginfo@@A 	 DATA
	?G__vtCintLN_TBuffer@@3UG__linked_taginfo@@A 	 DATA
	?G__vtCintLN_TMemberInspector@@3UG__linked_taginfo@@A 	 DATA
	?G__vtCintLN_TObject@@3UG__linked_taginfo@@A 	 DATA
	?G__vtCintLN_vectorlEdoublecOallocatorlEdoublegRsPgR@@3UG__linked_taginfo@@A 	 DATA
	?G__vtCintLN_basic_ostreamlEcharcOchar_traitslEchargRsPgR@@3UG__linked_taginfo@@A 	 DATA
	?G__vtCintLN_vectorlEROOTcLcLTSchemaHelpercOallocatorlEROOTcLcLTSchemaHelpergRsPgR@@3UG__linked_taginfo@@A 	 DATA
	?G__vtCintLN_reverse_iteratorlEvectorlEROOTcLcLTSchemaHelpercOallocatorlEROOTcLcLTSchemaHelpergRsPgRcLcLiteratorgR@@3UG__linked_taginfo@@A 	 DATA
	?G__vtCintLN_iteratorlErandom_access_iterator_tagcOROOTcLcLTSchemaHelpercOlongcOROOTcLcLTSchemaHelpermUcOROOTcLcLTSchemaHelperaNgR@@3UG__linked_taginfo@@A 	 DATA
	?G__vtCintLN_reverse_iteratorlEvectorlEROOTcLcLTSchemaHelpercOallocatorlEROOTcLcLTSchemaHelpergRsPgRcLcLconst_iteratorgR@@3UG__linked_taginfo@@A 	 DATA
	?G__vtCintLN_vectorlETVirtualArraymUcOallocatorlETVirtualArraymUgRsPgR@@3UG__linked_taginfo@@A 	 DATA
	?G__vtCintLN_reverse_iteratorlEvectorlETVirtualArraymUcOallocatorlETVirtualArraymUgRsPgRcLcLiteratorgR@@3UG__linked_taginfo@@A 	 DATA
	?G__vtCintLN_iteratorlErandom_access_iterator_tagcOTVirtualArraymUcOlongcOTVirtualArraymUmUcOTVirtualArraymUaNgR@@3UG__linked_taginfo@@A 	 DATA
	?G__vtCintLN_reverse_iteratorlEvectorlETVirtualArraymUcOallocatorlETVirtualArraymUgRsPgRcLcLconst_iteratorgR@@3UG__linked_taginfo@@A 	 DATA
	?G__vtCintLN_MATRIX@@3UG__linked_taginfo@@A 	 DATA
	?G__vtCintLN_MATRIXcLcLVtVector@@3UG__linked_taginfo@@A 	 DATA
	?G__vtCintLN_MATRIXcLcLVtNegMatrix@@3UG__linked_taginfo@@A 	 DATA
	?G__vtCintLN_MATRIXcLcLVtMatrix@@3UG__linked_taginfo@@A 	 DATA
	?G__vtCintLN_MATRIXcLcLVtMatrixcLcLVtMatrix_row@@3UG__linked_taginfo@@A 	 DATA
	?G__vtCintLN_MATRIXcLcLVtMatrixcLcLVtMatrix_row_const@@3UG__linked_taginfo@@A 	 DATA
	?G__vtCintLN_MATRIXcLcLVtSqMatrix@@3UG__linked_taginfo@@A 	 DATA
	?G__vtCintLN_MATRIXcLcLVtSymMatrix@@3UG__linked_taginfo@@A 	 DATA
	?G__vtCintLN_MATRIXcLcLCMatrix@@3UG__linked_taginfo@@A 	 DATA
	?G__vtCintLN_VERTEX@@3UG__linked_taginfo@@A 	 DATA
	?G__vtCintLN_VERTEXcLcLVtIni@@3UG__linked_taginfo@@A 	 DATA
	?G__vtCintLN_VERTEXcLcLRelation@@3UG__linked_taginfo@@A 	 DATA
	?G__vtCintLN_VERTEXcLcLRelationIterator@@3UG__linked_taginfo@@A 	 DATA
	?fgIsA@ConstRelationIterator@VERTEX@@0PAVTClass@@A 	 DATA
	?G__vtCintLN_VERTEXcLcLConstRelationIterator@@3UG__linked_taginfo@@A 	 DATA
	?G__vtCintLN_VERTEXcLcLReverseRelationIterator@@3UG__linked_taginfo@@A 	 DATA
	?G__vtCintLN_VERTEXcLcLConstReverseRelationIterator@@3UG__linked_taginfo@@A 	 DATA
	?G__vtCintLN_VERTEXcLcLTrack@@3UG__linked_taginfo@@A 	 DATA
	?G__vtCintLN_VERTEXcLcLVertex@@3UG__linked_taginfo@@A 	 DATA
	?G__vtCintLN_listlEVERTEXcLcLRelationmUcOallocatorlEVERTEXcLcLRelationmUgRsPgR@@3UG__linked_taginfo@@A 	 DATA
	?G__vtCintLN_listlEVERTEXcLcLRelationmUcOallocatorlEVERTEXcLcLRelationmUgRsPgRcLcLiterator@@3UG__linked_taginfo@@A 	 DATA
	?G__vtCintLN_listlEVERTEXcLcLRelationmUcOallocatorlEVERTEXcLcLRelationmUgRsPgRcLcLreverse_iterator@@3UG__linked_taginfo@@A 	 DATA
	?G__vtCintLN_VERTEXcLcLRelationList@@3UG__linked_taginfo@@A 	 DATA
	?G__vtCintLN_VERTEXcLcLKalman@@3UG__linked_taginfo@@A 	 DATA
	?G__vtCintLN_VERTEXcLcLMassC@@3UG__linked_taginfo@@A 	 DATA
	?G__vtCintLN_listlEVERTEXcLcLMassCmUcOallocatorlEVERTEXcLcLMassCmUgRsPgR@@3UG__linked_taginfo@@A 	 DATA
	?G__vtCintLN_listlEVERTEXcLcLMassCmUcOallocatorlEVERTEXcLcLMassCmUgRsPgRcLcLiterator@@3UG__linked_taginfo@@A 	 DATA
	?G__vtCintLN_vectorlEVERTEXcLcLRelationmUcOallocatorlEVERTEXcLcLRelationmUgRsPgR@@3UG__linked_taginfo@@A 	 DATA
	?G__vtCintLN_vectorlEVERTEXcLcLRelationmUcOallocatorlEVERTEXcLcLRelationmUgRsPgRcLcLconst_iterator@@3UG__linked_taginfo@@A 	 DATA
	?G__vtCintLN_vectorlEVERTEXcLcLRelationmUcOallocatorlEVERTEXcLcLRelationmUgRsPgRcLcLiterator@@3UG__linked_taginfo@@A 	 DATA
	?G__vtCintLN_reverse_iteratorlEvectorlEVERTEXcLcLRelationmUcOallocatorlEVERTEXcLcLRelationmUgRsPgRcLcLiteratorgR@@3UG__linked_taginfo@@A 	 DATA
	?G__vtCintLN_iteratorlErandom_access_iterator_tagcOVERTEXcLcLRelationmUcOlongcOVERTEXcLcLRelationmUmUcOVERTEXcLcLRelationmUaNgR@@3UG__linked_taginfo@@A 	 DATA
	?G__vtCintLN_reverse_iteratorlEvectorlEVERTEXcLcLRelationmUcOallocatorlEVERTEXcLcLRelationmUgRsPgRcLcLconst_iteratorgR@@3UG__linked_taginfo@@A 	 DATA
	?G__vtCintLN_vectorlEVERTEXcLcLTrackmUcOallocatorlEVERTEXcLcLTrackmUgRsPgR@@3UG__linked_taginfo@@A 	 DATA
	?G__vtCintLN_vectorlEVERTEXcLcLTrackmUcOallocatorlEVERTEXcLcLTrackmUgRsPgRcLcLconst_iterator@@3UG__linked_taginfo@@A 	 DATA
	?G__vtCintLN_vectorlEVERTEXcLcLTrackmUcOallocatorlEVERTEXcLcLTrackmUgRsPgRcLcLiterator@@3UG__linked_taginfo@@A 	 DATA
	?G__vtCintLN_reverse_iteratorlEvectorlEVERTEXcLcLTrackmUcOallocatorlEVERTEXcLcLTrackmUgRsPgRcLcLiteratorgR@@3UG__linked_taginfo@@A 	 DATA
	?G__vtCintLN_iteratorlErandom_access_iterator_tagcOVERTEXcLcLTrackmUcOlongcOVERTEXcLcLTrackmUmUcOVERTEXcLcLTrackmUaNgR@@3UG__linked_taginfo@@A 	 DATA
	?G__vtCintLN_reverse_iteratorlEvectorlEVERTEXcLcLTrackmUcOallocatorlEVERTEXcLcLTrackmUgRsPgRcLcLconst_iteratorgR@@3UG__linked_taginfo@@A 	 DATA
	?GenerateInitInstance@ROOTDict@MATRIX@@YAPAVTGenericClassInfo@ROOT@@XZ
	?vtCintInitFunctionKeeper66@ROOTDict@MATRIX@@3P6APAVTGenericClassInfo@ROOT@@XZA 	 DATA
	?fgIsA@Relation@VERTEX@@0PAVTClass@@A 	 DATA
	?fgIsA@ReverseRelationIterator@VERTEX@@0PAVTClass@@A 	 DATA
	?fgIsA@Kalman@VERTEX@@0PAVTClass@@A 	 DATA
	??_H@YGXPAXIHP6EPAX0@Z@Z
	hypot
	??0funcptr_and_voidptr@G__func2void@@QAE@PAX@Z
	??BG__func2void@@QBEPAXXZ
	G__cpp_dllrevvtCint
	G__set_cpp_environmentvtCint
	G__cpp_setup_tagtablevtCint
	G__cpp_setup_inheritancevtCint
	G__cpp_setup_typetablevtCint
	G__cpp_setup_memvarvtCint
	G__cpp_setup_globalvtCint
	G__cpp_setup_memfuncvtCint
	G__cpp_setup_funcvtCint
	G__cpp_setupvtCint
	??2@YAPAXIPAX@Z
	??3@YAXPAX0@Z
	??_U@YAPAXIPAX@Z
	??_V@YAXPAX0@Z
	?length@?$char_traits@D@std@@SAIPBD@Z
	?copy@?$char_traits@D@std@@SAPADPADPBDI@Z
	?move@?$char_traits@D@std@@SAPADPADPBDI@Z
	?assign@?$char_traits@D@std@@SAXAADABD@Z
	?_Adopt@_Iterator_base0@std@@QAEXPBX@Z
	?_Getcont@_Iterator_base0@std@@QBEPBU_Container_base0@2@XZ
	??0?$allocator@D@std@@QAE@XZ
	?deallocate@?$allocator@D@std@@QAEXPADI@Z
	?allocate@?$allocator@D@std@@QAEPADI@Z
	?max_size@?$allocator@D@std@@QBEIXZ
	?max_size@?$allocator_traits@V?$allocator@D@std@@@std@@SAIABV?$allocator@D@2@@Z
	??0?$_Wrap_alloc@V?$allocator@D@std@@@std@@QAE@XZ
	?allocate@?$_Wrap_alloc@V?$allocator@D@std@@@std@@QAEPADI@Z
	?deallocate@?$_Wrap_alloc@V?$allocator@D@std@@@std@@QAEXPADI@Z
	?max_size@?$_Wrap_alloc@V?$allocator@D@std@@@std@@QBEIXZ
	??0?$_String_val@U?$_Simple_types@D@std@@@std@@QAE@XZ
	?_Myptr@?$_String_val@U?$_Simple_types@D@std@@@std@@QAEPADXZ
	?_Myptr@?$_String_val@U?$_Simple_types@D@std@@@std@@QBEPBDXZ
	??0?$_String_alloc@$0A@U?$_String_base_types@DV?$allocator@D@std@@@std@@@std@@QAE@ABV?$allocator@D@1@@Z
	?_Getal@?$_String_alloc@$0A@U?$_String_base_types@DV?$allocator@D@std@@@std@@@std@@QBE?AU?$_Wrap_alloc@V?$allocator@D@std@@@2@XZ
	??0?$basic_string@DU?$char_traits@D@std@@V?$allocator@D@2@@std@@QAE@PBD@Z
	?assign@?$basic_string@DU?$char_traits@D@std@@V?$allocator@D@2@@std@@QAEAAV12@ABV12@II@Z
	?assign@?$basic_string@DU?$char_traits@D@std@@V?$allocator@D@2@@std@@QAEAAV12@PBDI@Z
	?assign@?$basic_string@DU?$char_traits@D@std@@V?$allocator@D@2@@std@@QAEAAV12@PBD@Z
	?erase@?$basic_string@DU?$char_traits@D@std@@V?$allocator@D@2@@std@@QAEAAV12@I@Z
	?erase@?$basic_string@DU?$char_traits@D@std@@V?$allocator@D@2@@std@@QAEAAV12@II@Z
	?size@?$basic_string@DU?$char_traits@D@std@@V?$allocator@D@2@@std@@QBEIXZ
	?max_size@?$basic_string@DU?$char_traits@D@std@@V?$allocator@D@2@@std@@QBEIXZ
	?_Copy@?$basic_string@DU?$char_traits@D@std@@V?$allocator@D@2@@std@@QAEXII@Z
	?_Eos@?$basic_string@DU?$char_traits@D@std@@V?$allocator@D@2@@std@@QAEXI@Z
	?_Grow@?$basic_string@DU?$char_traits@D@std@@V?$allocator@D@2@@std@@QAE_NI_N@Z
	?_Inside@?$basic_string@DU?$char_traits@D@std@@V?$allocator@D@2@@std@@QAE_NPBD@Z
	?_Tidy@?$basic_string@DU?$char_traits@D@std@@V?$allocator@D@2@@std@@QAEX_NI@Z
	?_Xlen@?$basic_string@DU?$char_traits@D@std@@V?$allocator@D@2@@std@@QBEXXZ
	?_Xran@?$basic_string@DU?$char_traits@D@std@@V?$allocator@D@2@@std@@QBEXXZ
	?generic_category@std@@YAABVerror_category@1@XZ
	?system_category@std@@YAABVerror_category@1@XZ
	??0error_category@std@@QAE@XZ
	??1error_category@std@@UAE@XZ
	?default_error_condition@error_category@std@@UBE?AVerror_condition@2@H@Z
	?equivalent@error_category@std@@UBE_NHABVerror_condition@2@@Z
	?equivalent@error_category@std@@UBE_NABVerror_code@2@H@Z
	??8error_category@std@@QBE_NABV01@@Z
	?value@error_code@std@@QBEHXZ
	?category@error_code@std@@QBEABVerror_category@2@XZ
	??0error_condition@std@@QAE@HABVerror_category@1@@Z
	?value@error_condition@std@@QBEHXZ
	?category@error_condition@std@@QBEABVerror_category@2@XZ
	??8error_condition@std@@QBE_NABV01@@Z
	??0_Generic_error_category@std@@QAE@XZ
	?name@_Generic_error_category@std@@UBEPBDXZ
	?message@_Generic_error_category@std@@UBE?AV?$basic_string@DU?$char_traits@D@std@@V?$allocator@D@2@@2@H@Z
	??1_Generic_error_category@std@@UAE@XZ
	??0_Iostream_error_category@std@@QAE@XZ
	?name@_Iostream_error_category@std@@UBEPBDXZ
	?message@_Iostream_error_category@std@@UBE?AV?$basic_string@DU?$char_traits@D@std@@V?$allocator@D@2@@2@H@Z
	??1_Iostream_error_category@std@@UAE@XZ
	??0_System_error_category@std@@QAE@XZ
	?name@_System_error_category@std@@UBEPBDXZ
	?message@_System_error_category@std@@UBE?AV?$basic_string@DU?$char_traits@D@std@@V?$allocator@D@2@@2@H@Z
	?default_error_condition@_System_error_category@std@@UBE?AVerror_condition@2@H@Z
	??1_System_error_category@std@@UAE@XZ
	??2TObject@@SAPAXI@Z
	??_UTObject@@SAPAXI@Z
	??2TObject@@SAPAXIPAX@Z
	??_UTObject@@SAPAXIPAX@Z
	?IsReading@TBuffer@@QBE_NXZ
	??5@YAAAVTBuffer@@AAV0@AAF@Z
	??5@YAAAVTBuffer@@AAV0@AAN@Z
	??6@YAAAVTBuffer@@AAV0@F@Z
	??6@YAAAVTBuffer@@AAV0@N@Z
	??AVtVector@MATRIX@@QBENI@Z
	??AVtVector@MATRIX@@QAEAANI@Z
	??RVtVector@MATRIX@@QBENI@Z
	??RVtVector@MATRIX@@QAEAANI@Z
	?size@VtVector@MATRIX@@QBEIXZ
	?nrow@VtVector@MATRIX@@QBEIXZ
	?mag@VtVector@MATRIX@@QBENXZ
	?Class@VtVector@MATRIX@@SAPAVTClass@@XZ
	?Class_Name@VtVector@MATRIX@@SAPBDXZ
	?Class_Version@VtVector@MATRIX@@SAFXZ
	?Dictionary@VtVector@MATRIX@@SAXXZ
	?IsA@VtVector@MATRIX@@UBEPAVTClass@@XZ
	?ShowMembers@VtVector@MATRIX@@UAEXAAVTMemberInspector@@@Z
	?Streamer@VtVector@MATRIX@@UAEXAAVTBuffer@@@Z
	?StreamerNVirtual@VtVector@MATRIX@@QAEXAAVTBuffer@@@Z
	?DeclFileName@VtVector@MATRIX@@SAPBDXZ
	?ImplFileLine@VtVector@MATRIX@@SAHXZ
	?ImplFileName@VtVector@MATRIX@@SAPBDXZ
	?DeclFileLine@VtVector@MATRIX@@SAHXZ
	??6MATRIX@@YAAAV?$basic_ostream@DU?$char_traits@D@std@@@std@@AAV12@ABVVtVector@0@@Z
	?nrow@VtMatrix@MATRIX@@QBEIXZ
	?ncol@VtMatrix@MATRIX@@QBEIXZ
	?size@VtMatrix@MATRIX@@QBEHXZ
	??0VtMatrix_row@VtMatrix@MATRIX@@QAE@AAV12@H@Z
	??0VtMatrix_row_const@VtMatrix@MATRIX@@QAE@ABV12@H@Z
	??AVtMatrix@MATRIX@@QAE?AVVtMatrix_row@01@H@Z
	??AVtMatrix@MATRIX@@QBE?AVVtMatrix_row_const@01@H@Z
	?get@VtMatrix@MATRIX@@QBENII@Z
	?get@VtMatrix@MATRIX@@QAEAANII@Z
	?array@VtMatrix@MATRIX@@QBEPANXZ
	?Class@VtMatrix@MATRIX@@SAPAVTClass@@XZ
	?Class_Name@VtMatrix@MATRIX@@SAPBDXZ
	?Class_Version@VtMatrix@MATRIX@@SAFXZ
	?Dictionary@VtMatrix@MATRIX@@SAXXZ
	?IsA@VtMatrix@MATRIX@@UBEPAVTClass@@XZ
	?ShowMembers@VtMatrix@MATRIX@@UAEXAAVTMemberInspector@@@Z
	?Streamer@VtMatrix@MATRIX@@UAEXAAVTBuffer@@@Z
	?StreamerNVirtual@VtMatrix@MATRIX@@QAEXAAVTBuffer@@@Z
	?DeclFileName@VtMatrix@MATRIX@@SAPBDXZ
	?ImplFileLine@VtMatrix@MATRIX@@SAHXZ
	?ImplFileName@VtMatrix@MATRIX@@SAPBDXZ
	?DeclFileLine@VtMatrix@MATRIX@@SAHXZ
	??6MATRIX@@YAAAV?$basic_ostream@DU?$char_traits@D@std@@@std@@AAV12@ABVVtMatrix@0@@Z
	??0VtSqMatrix@MATRIX@@QAE@H@Z
	??0VtSqMatrix@MATRIX@@QAE@ABV01@@Z
	??0VtSqMatrix@MATRIX@@QAE@ABVVtMatrix@1@@Z
	?Class@VtSqMatrix@MATRIX@@SAPAVTClass@@XZ
	?Class_Name@VtSqMatrix@MATRIX@@SAPBDXZ
	?Class_Version@VtSqMatrix@MATRIX@@SAFXZ
	?Dictionary@VtSqMatrix@MATRIX@@SAXXZ
	?IsA@VtSqMatrix@MATRIX@@UBEPAVTClass@@XZ
	?ShowMembers@VtSqMatrix@MATRIX@@UAEXAAVTMemberInspector@@@Z
	?Streamer@VtSqMatrix@MATRIX@@UAEXAAVTBuffer@@@Z
	?StreamerNVirtual@VtSqMatrix@MATRIX@@QAEXAAVTBuffer@@@Z
	?DeclFileName@VtSqMatrix@MATRIX@@SAPBDXZ
	?ImplFileLine@VtSqMatrix@MATRIX@@SAHXZ
	?ImplFileName@VtSqMatrix@MATRIX@@SAPBDXZ
	?DeclFileLine@VtSqMatrix@MATRIX@@SAHXZ
	??4VtSqMatrix@MATRIX@@QAEAAV01@ABV01@@Z
	??6MATRIX@@YAAAV?$basic_ostream@DU?$char_traits@D@std@@@std@@AAV12@ABVVtSqMatrix@0@@Z
	??0VtSymMatrix@MATRIX@@QAE@I@Z
	??0VtSymMatrix@MATRIX@@QAE@ABVVtSqMatrix@1@@Z
	??0VtSymMatrix@MATRIX@@QAE@ABVVtMatrix@1@@Z
	?Class@VtSymMatrix@MATRIX@@SAPAVTClass@@XZ
	?Class_Name@VtSymMatrix@MATRIX@@SAPBDXZ
	?Class_Version@VtSymMatrix@MATRIX@@SAFXZ
	?Dictionary@VtSymMatrix@MATRIX@@SAXXZ
	?IsA@VtSymMatrix@MATRIX@@UBEPAVTClass@@XZ
	?ShowMembers@VtSymMatrix@MATRIX@@UAEXAAVTMemberInspector@@@Z
	?Streamer@VtSymMatrix@MATRIX@@UAEXAAVTBuffer@@@Z
	?StreamerNVirtual@VtSymMatrix@MATRIX@@QAEXAAVTBuffer@@@Z
	?DeclFileName@VtSymMatrix@MATRIX@@SAPBDXZ
	?ImplFileLine@VtSymMatrix@MATRIX@@SAHXZ
	?ImplFileName@VtSymMatrix@MATRIX@@SAPBDXZ
	?DeclFileLine@VtSymMatrix@MATRIX@@SAHXZ
	??6MATRIX@@YAAAV?$basic_ostream@DU?$char_traits@D@std@@@std@@AAV12@ABVVtSymMatrix@0@@Z
	??0CMatrix@MATRIX@@QAE@XZ
	??0CMatrix@MATRIX@@QAE@ABVVtSymMatrix@1@@Z
	??0CMatrix@MATRIX@@QAE@ABVVtSqMatrix@1@@Z
	??0CMatrix@MATRIX@@QAE@ABVVtMatrix@1@@Z
	?x@CMatrix@MATRIX@@QBENXZ
	?x_y@CMatrix@MATRIX@@QBENXZ
	?x_tx@CMatrix@MATRIX@@QBENXZ
	?x_ty@CMatrix@MATRIX@@QBENXZ
	?x_p@CMatrix@MATRIX@@QBENXZ
	?y@CMatrix@MATRIX@@QBENXZ
	?y_tx@CMatrix@MATRIX@@QBENXZ
	?y_ty@CMatrix@MATRIX@@QBENXZ
	?y_p@CMatrix@MATRIX@@QBENXZ
	?tx@CMatrix@MATRIX@@QBENXZ
	?tx_ty@CMatrix@MATRIX@@QBENXZ
	?tx_p@CMatrix@MATRIX@@QBENXZ
	?ty@CMatrix@MATRIX@@QBENXZ
	?ty_p@CMatrix@MATRIX@@QBENXZ
	?p@CMatrix@MATRIX@@QBENXZ
	?set_x@CMatrix@MATRIX@@QAEXN@Z
	?set_x_y@CMatrix@MATRIX@@QAEXN@Z
	?set_x_tx@CMatrix@MATRIX@@QAEXN@Z
	?set_x_ty@CMatrix@MATRIX@@QAEXN@Z
	?set_x_p@CMatrix@MATRIX@@QAEXN@Z
	?set_y@CMatrix@MATRIX@@QAEXN@Z
	?set_y_tx@CMatrix@MATRIX@@QAEXN@Z
	?set_y_ty@CMatrix@MATRIX@@QAEXN@Z
	?set_y_p@CMatrix@MATRIX@@QAEXN@Z
	?set_tx@CMatrix@MATRIX@@QAEXN@Z
	?set_tx_ty@CMatrix@MATRIX@@QAEXN@Z
	?set_tx_p@CMatrix@MATRIX@@QAEXN@Z
	?set_ty@CMatrix@MATRIX@@QAEXN@Z
	?set_ty_p@CMatrix@MATRIX@@QAEXN@Z
	?set_p@CMatrix@MATRIX@@QAEXN@Z
	?x_prop@CMatrix@MATRIX@@QBENN@Z
	?x_y_prop@CMatrix@MATRIX@@QBENN@Z
	?x_tx_prop@CMatrix@MATRIX@@QBENN@Z
	?x_ty_prop@CMatrix@MATRIX@@QBENN@Z
	?x_p_prop@CMatrix@MATRIX@@QBENN@Z
	?y_prop@CMatrix@MATRIX@@QBENN@Z
	?y_tx_prop@CMatrix@MATRIX@@QBENN@Z
	?y_ty_prop@CMatrix@MATRIX@@QBENN@Z
	?y_p_prop@CMatrix@MATRIX@@QBENN@Z
	?Class@CMatrix@MATRIX@@SAPAVTClass@@XZ
	?Class_Name@CMatrix@MATRIX@@SAPBDXZ
	?Class_Version@CMatrix@MATRIX@@SAFXZ
	?Dictionary@CMatrix@MATRIX@@SAXXZ
	?IsA@CMatrix@MATRIX@@UBEPAVTClass@@XZ
	?ShowMembers@CMatrix@MATRIX@@UAEXAAVTMemberInspector@@@Z
	?Streamer@CMatrix@MATRIX@@UAEXAAVTBuffer@@@Z
	?StreamerNVirtual@CMatrix@MATRIX@@QAEXAAVTBuffer@@@Z
	?DeclFileName@CMatrix@MATRIX@@SAPBDXZ
	?ImplFileLine@CMatrix@MATRIX@@SAHXZ
	?ImplFileName@CMatrix@MATRIX@@SAPBDXZ
	?DeclFileLine@CMatrix@MATRIX@@SAHXZ
	??1CMatrix@MATRIX@@UAE@XZ
	??4CMatrix@MATRIX@@QAEAAV01@ABV01@@Z
	??1VtNegMatrix@MATRIX@@UAE@XZ
	?nget@VtNegMatrix@MATRIX@@QBENII@Z
	?nget@VtNegMatrix@MATRIX@@QAEAANII@Z
	?Class@VtNegMatrix@MATRIX@@SAPAVTClass@@XZ
	?Class_Name@VtNegMatrix@MATRIX@@SAPBDXZ
	?Class_Version@VtNegMatrix@MATRIX@@SAFXZ
	?Dictionary@VtNegMatrix@MATRIX@@SAXXZ
	?IsA@VtNegMatrix@MATRIX@@UBEPAVTClass@@XZ
	?ShowMembers@VtNegMatrix@MATRIX@@UAEXAAVTMemberInspector@@@Z
	?Streamer@VtNegMatrix@MATRIX@@UAEXAAVTBuffer@@@Z
	?StreamerNVirtual@VtNegMatrix@MATRIX@@QAEXAAVTBuffer@@@Z
	?DeclFileName@VtNegMatrix@MATRIX@@SAPBDXZ
	?ImplFileLine@VtNegMatrix@MATRIX@@SAHXZ
	?ImplFileName@VtNegMatrix@MATRIX@@SAPBDXZ
	?DeclFileLine@VtNegMatrix@MATRIX@@SAHXZ
	??4VtNegMatrix@MATRIX@@QAEAAV01@ABV01@@Z
	??6MATRIX@@YAAAV?$basic_ostream@DU?$char_traits@D@std@@@std@@AAV12@ABVVtNegMatrix@0@@Z
	??6VERTEX@@YAAAV?$basic_ostream@DU?$char_traits@D@std@@@std@@AAV12@ABVVtIni@0@@Z
	?select_on_container_copy_construction@?$allocator@PAVRelation@VERTEX@@@std@@QBE?AV12@XZ
	??0?$allocator@PAVRelation@VERTEX@@@std@@QAE@XZ
	??0?$allocator@PAVRelation@VERTEX@@@std@@QAE@ABV01@@Z
	?deallocate@?$allocator@PAVRelation@VERTEX@@@std@@QAEXPAPAVRelation@VERTEX@@I@Z
	?allocate@?$allocator@PAVRelation@VERTEX@@@std@@QAEPAPAVRelation@VERTEX@@I@Z
	?max_size@?$allocator@PAVRelation@VERTEX@@@std@@QBEIXZ
	?max_size@?$allocator_traits@V?$allocator@PAVRelation@VERTEX@@@std@@@std@@SAIABV?$allocator@PAVRelation@VERTEX@@@2@@Z
	?select_on_container_copy_construction@?$allocator_traits@V?$allocator@PAVRelation@VERTEX@@@std@@@std@@SA?AV?$allocator@PAVRelation@VERTEX@@@2@ABV32@@Z
	?select_on_container_copy_construction@?$_Wrap_alloc@V?$allocator@PAVRelation@VERTEX@@@std@@@std@@QBE?AU12@XZ
	??0?$_Wrap_alloc@V?$allocator@PAVRelation@VERTEX@@@std@@@std@@QAE@XZ
	??0?$_Wrap_alloc@V?$allocator@PAVRelation@VERTEX@@@std@@@std@@QAE@ABV?$allocator@PAVRelation@VERTEX@@@1@@Z
	?allocate@?$_Wrap_alloc@V?$allocator@PAVRelation@VERTEX@@@std@@@std@@QAEPAPAVRelation@VERTEX@@I@Z
	?deallocate@?$_Wrap_alloc@V?$allocator@PAVRelation@VERTEX@@@std@@@std@@QAEXPAPAVRelation@VERTEX@@I@Z
	?max_size@?$_Wrap_alloc@V?$allocator@PAVRelation@VERTEX@@@std@@@std@@QBEIXZ
	?select_on_container_copy_construction@?$allocator@U?$_List_node@PAVRelation@VERTEX@@PAX@std@@@std@@QBE?AV12@XZ
	??0?$allocator@U?$_List_node@PAVRelation@VERTEX@@PAX@std@@@std@@QAE@XZ
	??0?$allocator@U?$_List_node@PAVRelation@VERTEX@@PAX@std@@@std@@QAE@ABV01@@Z
	?deallocate@?$allocator@U?$_List_node@PAVRelation@VERTEX@@PAX@std@@@std@@QAEXPAU?$_List_node@PAVRelation@VERTEX@@PAX@2@I@Z
	?allocate@?$allocator@U?$_List_node@PAVRelation@VERTEX@@PAX@std@@@std@@QAEPAU?$_List_node@PAVRelation@VERTEX@@PAX@2@I@Z
	?max_size@?$allocator@U?$_List_node@PAVRelation@VERTEX@@PAX@std@@@std@@QBEIXZ
	?max_size@?$allocator_traits@V?$allocator@U?$_List_node@PAVRelation@VERTEX@@PAX@std@@@std@@@std@@SAIABV?$allocator@U?$_List_node@PAVRelation@VERTEX@@PAX@std@@@2@@Z
	?select_on_container_copy_construction@?$allocator_traits@V?$allocator@U?$_List_node@PAVRelation@VERTEX@@PAX@std@@@std@@@std@@SA?AV?$allocator@U?$_List_node@PAVRelation@VERTEX@@PAX@std@@@2@ABV32@@Z
	?select_on_container_copy_construction@?$_Wrap_alloc@V?$allocator@U?$_List_node@PAVRelation@VERTEX@@PAX@std@@@std@@@std@@QBE?AU12@XZ
	??0?$_Wrap_alloc@V?$allocator@U?$_List_node@PAVRelation@VERTEX@@PAX@std@@@std@@@std@@QAE@XZ
	??0?$_Wrap_alloc@V?$allocator@U?$_List_node@PAVRelation@VERTEX@@PAX@std@@@std@@@std@@QAE@ABV?$allocator@U?$_List_node@PAVRelation@VERTEX@@PAX@std@@@1@@Z
	?allocate@?$_Wrap_alloc@V?$allocator@U?$_List_node@PAVRelation@VERTEX@@PAX@std@@@std@@@std@@QAEPAU?$_List_node@PAVRelation@VERTEX@@PAX@2@I@Z
	?deallocate@?$_Wrap_alloc@V?$allocator@U?$_List_node@PAVRelation@VERTEX@@PAX@std@@@std@@@std@@QAEXPAU?$_List_node@PAVRelation@VERTEX@@PAX@2@I@Z
	?max_size@?$_Wrap_alloc@V?$allocator@U?$_List_node@PAVRelation@VERTEX@@PAX@std@@@std@@@std@@QBEIXZ
	??0?$_List_val@U?$_List_simple_types@PAVRelation@VERTEX@@@std@@@std@@QAE@XZ
	?_Nextnode@?$_List_val@U?$_List_simple_types@PAVRelation@VERTEX@@@std@@@std@@SAAAPAU?$_List_node@PAVRelation@VERTEX@@PAX@2@PAU32@@Z
	?_Prevnode@?$_List_val@U?$_List_simple_types@PAVRelation@VERTEX@@@std@@@std@@SAAAPAU?$_List_node@PAVRelation@VERTEX@@PAX@2@PAU32@@Z
	?_Myval@?$_List_val@U?$_List_simple_types@PAVRelation@VERTEX@@@std@@@std@@SAAAPAVRelation@VERTEX@@PAU?$_List_node@PAVRelation@VERTEX@@PAX@2@@Z
	??0?$_List_alloc@$0A@U?$_List_base_types@PAVRelation@VERTEX@@V?$allocator@PAVRelation@VERTEX@@@std@@@std@@@std@@QAE@ABV?$allocator@PAVRelation@VERTEX@@@1@@Z
	??1?$_List_alloc@$0A@U?$_List_base_types@PAVRelation@VERTEX@@V?$allocator@PAVRelation@VERTEX@@@std@@@std@@@std@@QAE@XZ
	?_Buyheadnode@?$_List_alloc@$0A@U?$_List_base_types@PAVRelation@VERTEX@@V?$allocator@PAVRelation@VERTEX@@@std@@@std@@@std@@QAEPAU?$_List_node@PAVRelation@VERTEX@@PAX@2@XZ
	?_Freeheadnode@?$_List_alloc@$0A@U?$_List_base_types@PAVRelation@VERTEX@@V?$allocator@PAVRelation@VERTEX@@@std@@@std@@@std@@QAEXPAU?$_List_node@PAVRelation@VERTEX@@PAX@2@@Z
	?_Buynode0@?$_List_alloc@$0A@U?$_List_base_types@PAVRelation@VERTEX@@V?$allocator@PAVRelation@VERTEX@@@std@@@std@@@std@@QAEPAU?$_List_node@PAVRelation@VERTEX@@PAX@2@PAU32@0@Z
	?_Getal@?$_List_alloc@$0A@U?$_List_base_types@PAVRelation@VERTEX@@V?$allocator@PAVRelation@VERTEX@@@std@@@std@@@std@@QBE?AU?$_Wrap_alloc@V?$allocator@U?$_List_node@PAVRelation@VERTEX@@PAX@std@@@std@@@2@XZ
	??0?$_List_buy@PAVRelation@VERTEX@@V?$allocator@PAVRelation@VERTEX@@@std@@@std@@QAE@ABV?$allocator@PAVRelation@VERTEX@@@1@@Z
	?_Freenode@?$_List_buy@PAVRelation@VERTEX@@V?$allocator@PAVRelation@VERTEX@@@std@@@std@@QAEXPAU?$_List_node@PAVRelation@VERTEX@@PAX@2@@Z
	??1?$_List_buy@PAVRelation@VERTEX@@V?$allocator@PAVRelation@VERTEX@@@std@@@std@@QAE@XZ
	??0?$list@PAVRelation@VERTEX@@V?$allocator@PAVRelation@VERTEX@@@std@@@std@@QAE@ABV01@@Z
	?begin@?$list@PAVRelation@VERTEX@@V?$allocator@PAVRelation@VERTEX@@@std@@@std@@QAE?AV?$_List_iterator@V?$_List_val@U?$_List_simple_types@PAVRelation@VERTEX@@@std@@@std@@@2@XZ
	?begin@?$list@PAVRelation@VERTEX@@V?$allocator@PAVRelation@VERTEX@@@std@@@std@@QBE?AV?$_List_const_iterator@V?$_List_val@U?$_List_simple_types@PAVRelation@VERTEX@@@std@@@std@@@2@XZ
	?end@?$list@PAVRelation@VERTEX@@V?$allocator@PAVRelation@VERTEX@@@std@@@std@@QAE?AV?$_List_iterator@V?$_List_val@U?$_List_simple_types@PAVRelation@VERTEX@@@std@@@std@@@2@XZ
	?end@?$list@PAVRelation@VERTEX@@V?$allocator@PAVRelation@VERTEX@@@std@@@std@@QBE?AV?$_List_const_iterator@V?$_List_val@U?$_List_simple_types@PAVRelation@VERTEX@@@std@@@std@@@2@XZ
	?_Unchecked_end@?$list@PAVRelation@VERTEX@@V?$allocator@PAVRelation@VERTEX@@@std@@@std@@QAE?AV?$_List_unchecked_iterator@V?$_List_val@U?$_List_simple_types@PAVRelation@VERTEX@@@std@@@std@@@2@XZ
	?_Make_iter@?$list@PAVRelation@VERTEX@@V?$allocator@PAVRelation@VERTEX@@@std@@@std@@QBE?AV?$_List_iterator@V?$_List_val@U?$_List_simple_types@PAVRelation@VERTEX@@@std@@@std@@@2@V?$_List_const_iterator@V?$_List_val@U?$_List_simple_types@PAVRelation@VERTEX@@@std@@@std@@@2@@Z
	?rbegin@?$list@PAVRelation@VERTEX@@V?$allocator@PAVRelation@VERTEX@@@std@@@std@@QAE?AV?$reverse_iterator@V?$_List_iterator@V?$_List_val@U?$_List_simple_types@PAVRelation@VERTEX@@@std@@@std@@@std@@@2@XZ
	?rbegin@?$list@PAVRelation@VERTEX@@V?$allocator@PAVRelation@VERTEX@@@std@@@std@@QBE?AV?$reverse_iterator@V?$_List_const_iterator@V?$_List_val@U?$_List_simple_types@PAVRelation@VERTEX@@@std@@@std@@@std@@@2@XZ
	?rend@?$list@PAVRelation@VERTEX@@V?$allocator@PAVRelation@VERTEX@@@std@@@std@@QAE?AV?$reverse_iterator@V?$_List_iterator@V?$_List_val@U?$_List_simple_types@PAVRelation@VERTEX@@@std@@@std@@@std@@@2@XZ
	?rend@?$list@PAVRelation@VERTEX@@V?$allocator@PAVRelation@VERTEX@@@std@@@std@@QBE?AV?$reverse_iterator@V?$_List_const_iterator@V?$_List_val@U?$_List_simple_types@PAVRelation@VERTEX@@@std@@@std@@@std@@@2@XZ
	?size@?$list@PAVRelation@VERTEX@@V?$allocator@PAVRelation@VERTEX@@@std@@@std@@QBEIXZ
	?max_size@?$list@PAVRelation@VERTEX@@V?$allocator@PAVRelation@VERTEX@@@std@@@std@@QBEIXZ
	?back@?$list@PAVRelation@VERTEX@@V?$allocator@PAVRelation@VERTEX@@@std@@@std@@QBEABQAVRelation@VERTEX@@XZ
	?push_back@?$list@PAVRelation@VERTEX@@V?$allocator@PAVRelation@VERTEX@@@std@@@std@@QAEXABQAVRelation@VERTEX@@@Z
	?_Unlinknode@?$list@PAVRelation@VERTEX@@V?$allocator@PAVRelation@VERTEX@@@std@@@std@@QAEPAU?$_List_node@PAVRelation@VERTEX@@PAX@2@V?$_List_const_iterator@V?$_List_val@U?$_List_simple_types@PAVRelation@VERTEX@@@std@@@std@@@2@@Z
	?erase@?$list@PAVRelation@VERTEX@@V?$allocator@PAVRelation@VERTEX@@@std@@@std@@QAE?AV?$_List_iterator@V?$_List_val@U?$_List_simple_types@PAVRelation@VERTEX@@@std@@@std@@@2@V?$_List_const_iterator@V?$_List_val@U?$_List_simple_types@PAVRelation@VERTEX@@@std@@@std@@@2@@Z
	?_Unchecked_erase@?$list@PAVRelation@VERTEX@@V?$allocator@PAVRelation@VERTEX@@@std@@@std@@QAEXV?$_List_unchecked_const_iterator@V?$_List_val@U?$_List_simple_types@PAVRelation@VERTEX@@@std@@@std@@U_Iterator_base0@2@@2@@Z
	?clear@?$list@PAVRelation@VERTEX@@V?$allocator@PAVRelation@VERTEX@@@std@@@std@@QAEXXZ
	?remove@?$list@PAVRelation@VERTEX@@V?$allocator@PAVRelation@VERTEX@@@std@@@std@@QAEXABQAVRelation@VERTEX@@@Z
	?_Tidy@?$list@PAVRelation@VERTEX@@V?$allocator@PAVRelation@VERTEX@@@std@@@std@@QAEXXZ
	?_Incsize@?$list@PAVRelation@VERTEX@@V?$allocator@PAVRelation@VERTEX@@@std@@@std@@QAEXI@Z
	??0?$_List_unchecked_const_iterator@V?$_List_val@U?$_List_simple_types@PAVRelation@VERTEX@@@std@@@std@@U_Iterator_base0@2@@std@@QAE@PAU?$_List_node@PAVRelation@VERTEX@@PAX@1@PBV?$_List_val@U?$_List_simple_types@PAVRelation@VERTEX@@@std@@@1@@Z
	??D?$_List_unchecked_const_iterator@V?$_List_val@U?$_List_simple_types@PAVRelation@VERTEX@@@std@@@std@@U_Iterator_base0@2@@std@@QBEABQAVRelation@VERTEX@@XZ
	??E?$_List_unchecked_const_iterator@V?$_List_val@U?$_List_simple_types@PAVRelation@VERTEX@@@std@@@std@@U_Iterator_base0@2@@std@@QAEAAV01@XZ
	??F?$_List_unchecked_const_iterator@V?$_List_val@U?$_List_simple_types@PAVRelation@VERTEX@@@std@@@std@@U_Iterator_base0@2@@std@@QAEAAV01@XZ
	??8?$_List_unchecked_const_iterator@V?$_List_val@U?$_List_simple_types@PAVRelation@VERTEX@@@std@@@std@@U_Iterator_base0@2@@std@@QBE_NABV01@@Z
	??9?$_List_unchecked_const_iterator@V?$_List_val@U?$_List_simple_types@PAVRelation@VERTEX@@@std@@@std@@U_Iterator_base0@2@@std@@QBE_NABV01@@Z
	?_Mynode@?$_List_unchecked_const_iterator@V?$_List_val@U?$_List_simple_types@PAVRelation@VERTEX@@@std@@@std@@U_Iterator_base0@2@@std@@QBEPAU?$_List_node@PAVRelation@VERTEX@@PAX@2@XZ
	??0?$_List_const_iterator@V?$_List_val@U?$_List_simple_types@PAVRelation@VERTEX@@@std@@@std@@@std@@QAE@PAU?$_List_node@PAVRelation@VERTEX@@PAX@1@PBV?$_List_val@U?$_List_simple_types@PAVRelation@VERTEX@@@std@@@1@@Z
	?_Unchecked@?$_List_const_iterator@V?$_List_val@U?$_List_simple_types@PAVRelation@VERTEX@@@std@@@std@@@std@@QBE?AV?$_List_unchecked_const_iterator@V?$_List_val@U?$_List_simple_types@PAVRelation@VERTEX@@@std@@@std@@U_Iterator_base0@2@@2@XZ
	??D?$_List_const_iterator@V?$_List_val@U?$_List_simple_types@PAVRelation@VERTEX@@@std@@@std@@@std@@QBEABQAVRelation@VERTEX@@XZ
	??E?$_List_const_iterator@V?$_List_val@U?$_List_simple_types@PAVRelation@VERTEX@@@std@@@std@@@std@@QAEAAV01@XZ
	??E?$_List_const_iterator@V?$_List_val@U?$_List_simple_types@PAVRelation@VERTEX@@@std@@@std@@@std@@QAE?AV01@H@Z
	??F?$_List_const_iterator@V?$_List_val@U?$_List_simple_types@PAVRelation@VERTEX@@@std@@@std@@@std@@QAEAAV01@XZ
	??8?$_List_const_iterator@V?$_List_val@U?$_List_simple_types@PAVRelation@VERTEX@@@std@@@std@@@std@@QBE_NABV01@@Z
	??9?$_List_const_iterator@V?$_List_val@U?$_List_simple_types@PAVRelation@VERTEX@@@std@@@std@@@std@@QBE_NABV01@@Z
	??0?$_List_iterator@V?$_List_val@U?$_List_simple_types@PAVRelation@VERTEX@@@std@@@std@@@std@@QAE@PAU?$_List_node@PAVRelation@VERTEX@@PAX@1@PBV?$_List_val@U?$_List_simple_types@PAVRelation@VERTEX@@@std@@@1@@Z
	??D?$_List_iterator@V?$_List_val@U?$_List_simple_types@PAVRelation@VERTEX@@@std@@@std@@@std@@QBEAAPAVRelation@VERTEX@@XZ
	??E?$_List_iterator@V?$_List_val@U?$_List_simple_types@PAVRelation@VERTEX@@@std@@@std@@@std@@QAEAAV01@XZ
	??E?$_List_iterator@V?$_List_val@U?$_List_simple_types@PAVRelation@VERTEX@@@std@@@std@@@std@@QAE?AV01@H@Z
	??F?$_List_iterator@V?$_List_val@U?$_List_simple_types@PAVRelation@VERTEX@@@std@@@std@@@std@@QAEAAV01@XZ
	??0RelationIterator@VERTEX@@QAE@ABV?$_List_iterator@V?$_List_val@U?$_List_simple_types@PAVRelation@VERTEX@@@std@@@std@@@std@@@Z
	??8RelationIterator@VERTEX@@QBEHABV01@@Z
	??9RelationIterator@VERTEX@@QBEHABV01@@Z
	?Class@RelationIterator@VERTEX@@SAPAVTClass@@XZ
	?Class_Name@RelationIterator@VERTEX@@SAPBDXZ
	?Class_Version@RelationIterator@VERTEX@@SAFXZ
	?Dictionary@RelationIterator@VERTEX@@SAXXZ
	?IsA@RelationIterator@VERTEX@@UBEPAVTClass@@XZ
	?ShowMembers@RelationIterator@VERTEX@@UAEXAAVTMemberInspector@@@Z
	?Streamer@RelationIterator@VERTEX@@UAEXAAVTBuffer@@@Z
	?StreamerNVirtual@RelationIterator@VERTEX@@QAEXAAVTBuffer@@@Z
	?DeclFileName@RelationIterator@VERTEX@@SAPBDXZ
	?ImplFileLine@RelationIterator@VERTEX@@SAHXZ
	?ImplFileName@RelationIterator@VERTEX@@SAPBDXZ
	?DeclFileLine@RelationIterator@VERTEX@@SAHXZ
	??0RelationIterator@VERTEX@@QAE@ABV01@@Z
	??4RelationIterator@VERTEX@@QAEAAV01@ABV01@@Z
	??0ConstRelationIterator@VERTEX@@QAE@ABV?$_List_const_iterator@V?$_List_val@U?$_List_simple_types@PAVRelation@VERTEX@@@std@@@std@@@std@@@Z
	??8ConstRelationIterator@VERTEX@@QBEHABV01@@Z
	??9ConstRelationIterator@VERTEX@@QBEHABV01@@Z
	?Class@ConstRelationIterator@VERTEX@@SAPAVTClass@@XZ
	?Class_Name@ConstRelationIterator@VERTEX@@SAPBDXZ
	?Class_Version@ConstRelationIterator@VERTEX@@SAFXZ
	?Dictionary@ConstRelationIterator@VERTEX@@SAXXZ
	?IsA@ConstRelationIterator@VERTEX@@UBEPAVTClass@@XZ
	?ShowMembers@ConstRelationIterator@VERTEX@@UAEXAAVTMemberInspector@@@Z
	?Streamer@ConstRelationIterator@VERTEX@@UAEXAAVTBuffer@@@Z
	?StreamerNVirtual@ConstRelationIterator@VERTEX@@QAEXAAVTBuffer@@@Z
	?DeclFileName@ConstRelationIterator@VERTEX@@SAPBDXZ
	?ImplFileLine@ConstRelationIterator@VERTEX@@SAHXZ
	?ImplFileName@ConstRelationIterator@VERTEX@@SAPBDXZ
	?DeclFileLine@ConstRelationIterator@VERTEX@@SAHXZ
	??0ConstRelationIterator@VERTEX@@QAE@ABV01@@Z
	??4ConstRelationIterator@VERTEX@@QAEAAV01@ABV01@@Z
	??0?$_Revranit@V?$_List_iterator@V?$_List_val@U?$_List_simple_types@PAVRelation@VERTEX@@@std@@@std@@@std@@U?$iterator@Ubidirectional_iterator_tag@std@@PAVRelation@VERTEX@@HPAPAV34@AAPAV34@@2@@std@@QAE@V?$_List_iterator@V?$_List_val@U?$_List_simple_types@PAVRelation@VERTEX@@@std@@@std@@@1@@Z
	?base@?$_Revranit@V?$_List_iterator@V?$_List_val@U?$_List_simple_types@PAVRelation@VERTEX@@@std@@@std@@@std@@U?$iterator@Ubidirectional_iterator_tag@std@@PAVRelation@VERTEX@@HPAPAV34@AAPAV34@@2@@std@@QBE?AV?$_List_iterator@V?$_List_val@U?$_List_simple_types@PAVRelation@VERTEX@@@std@@@std@@@2@XZ
	??0?$reverse_iterator@V?$_List_iterator@V?$_List_val@U?$_List_simple_types@PAVRelation@VERTEX@@@std@@@std@@@std@@@std@@QAE@V?$_List_iterator@V?$_List_val@U?$_List_simple_types@PAVRelation@VERTEX@@@std@@@std@@@1@@Z
	??0ReverseRelationIterator@VERTEX@@QAE@ABV?$reverse_iterator@V?$_List_iterator@V?$_List_val@U?$_List_simple_types@PAVRelation@VERTEX@@@std@@@std@@@std@@@std@@@Z
	??8ReverseRelationIterator@VERTEX@@QBEHABV01@@Z
	??9ReverseRelationIterator@VERTEX@@QBEHABV01@@Z
	?Class@ReverseRelationIterator@VERTEX@@SAPAVTClass@@XZ
	?Class_Name@ReverseRelationIterator@VERTEX@@SAPBDXZ
	?Class_Version@ReverseRelationIterator@VERTEX@@SAFXZ
	?Dictionary@ReverseRelationIterator@VERTEX@@SAXXZ
	?IsA@ReverseRelationIterator@VERTEX@@UBEPAVTClass@@XZ
	?ShowMembers@ReverseRelationIterator@VERTEX@@UAEXAAVTMemberInspector@@@Z
	?Streamer@ReverseRelationIterator@VERTEX@@UAEXAAVTBuffer@@@Z
	?StreamerNVirtual@ReverseRelationIterator@VERTEX@@QAEXAAVTBuffer@@@Z
	?DeclFileName@ReverseRelationIterator@VERTEX@@SAPBDXZ
	?ImplFileLine@ReverseRelationIterator@VERTEX@@SAHXZ
	?ImplFileName@ReverseRelationIterator@VERTEX@@SAPBDXZ
	?DeclFileLine@ReverseRelationIterator@VERTEX@@SAHXZ
	??0ReverseRelationIterator@VERTEX@@QAE@ABV01@@Z
	??4ReverseRelationIterator@VERTEX@@QAEAAV01@ABV01@@Z
	??$?8V?$_List_iterator@V?$_List_val@U?$_List_simple_types@PAVRelation@VERTEX@@@std@@@std@@@std@@V01@@std@@YA_NABV?$reverse_iterator@V?$_List_iterator@V?$_List_val@U?$_List_simple_types@PAVRelation@VERTEX@@@std@@@std@@@std@@@0@0@Z
	??$?9V?$_List_iterator@V?$_List_val@U?$_List_simple_types@PAVRelation@VERTEX@@@std@@@std@@@std@@V01@@std@@YA_NABV?$reverse_iterator@V?$_List_iterator@V?$_List_val@U?$_List_simple_types@PAVRelation@VERTEX@@@std@@@std@@@std@@@0@0@Z
	??0?$_Revranit@V?$_List_const_iterator@V?$_List_val@U?$_List_simple_types@PAVRelation@VERTEX@@@std@@@std@@@std@@U?$iterator@Ubidirectional_iterator_tag@std@@PAVRelation@VERTEX@@HPBQAV34@ABQAV34@@2@@std@@QAE@V?$_List_const_iterator@V?$_List_val@U?$_List_simple_types@PAVRelation@VERTEX@@@std@@@std@@@1@@Z
	?base@?$_Revranit@V?$_List_const_iterator@V?$_List_val@U?$_List_simple_types@PAVRelation@VERTEX@@@std@@@std@@@std@@U?$iterator@Ubidirectional_iterator_tag@std@@PAVRelation@VERTEX@@HPBQAV34@ABQAV34@@2@@std@@QBE?AV?$_List_const_iterator@V?$_List_val@U?$_List_simple_types@PAVRelation@VERTEX@@@std@@@std@@@2@XZ
	??0?$reverse_iterator@V?$_List_const_iterator@V?$_List_val@U?$_List_simple_types@PAVRelation@VERTEX@@@std@@@std@@@std@@@std@@QAE@V?$_List_const_iterator@V?$_List_val@U?$_List_simple_types@PAVRelation@VERTEX@@@std@@@std@@@1@@Z
	??0ConstReverseRelationIterator@VERTEX@@QAE@ABV?$reverse_iterator@V?$_List_const_iterator@V?$_List_val@U?$_List_simple_types@PAVRelation@VERTEX@@@std@@@std@@@std@@@std@@@Z
	??8ConstReverseRelationIterator@VERTEX@@QBEHABV01@@Z
	??9ConstReverseRelationIterator@VERTEX@@QBEHABV01@@Z
	?Class@ConstReverseRelationIterator@VERTEX@@SAPAVTClass@@XZ
	?Class_Name@ConstReverseRelationIterator@VERTEX@@SAPBDXZ
	?Class_Version@ConstReverseRelationIterator@VERTEX@@SAFXZ
	?Dictionary@ConstReverseRelationIterator@VERTEX@@SAXXZ
	?IsA@ConstReverseRelationIterator@VERTEX@@UBEPAVTClass@@XZ
	?ShowMembers@ConstReverseRelationIterator@VERTEX@@UAEXAAVTMemberInspector@@@Z
	?Streamer@ConstReverseRelationIterator@VERTEX@@UAEXAAVTBuffer@@@Z
	?StreamerNVirtual@ConstReverseRelationIterator@VERTEX@@QAEXAAVTBuffer@@@Z
	?DeclFileName@ConstReverseRelationIterator@VERTEX@@SAPBDXZ
	?ImplFileLine@ConstReverseRelationIterator@VERTEX@@SAHXZ
	?ImplFileName@ConstReverseRelationIterator@VERTEX@@SAPBDXZ
	?DeclFileLine@ConstReverseRelationIterator@VERTEX@@SAHXZ
	??0ConstReverseRelationIterator@VERTEX@@QAE@ABV01@@Z
	??4ConstReverseRelationIterator@VERTEX@@QAEAAV01@ABV01@@Z
	??$?8V?$_List_const_iterator@V?$_List_val@U?$_List_simple_types@PAVRelation@VERTEX@@@std@@@std@@@std@@V01@@std@@YA_NABV?$reverse_iterator@V?$_List_const_iterator@V?$_List_val@U?$_List_simple_types@PAVRelation@VERTEX@@@std@@@std@@@std@@@0@0@Z
	??$?9V?$_List_const_iterator@V?$_List_val@U?$_List_simple_types@PAVRelation@VERTEX@@@std@@@std@@@std@@V01@@std@@YA_NABV?$reverse_iterator@V?$_List_const_iterator@V?$_List_val@U?$_List_simple_types@PAVRelation@VERTEX@@@std@@@std@@@std@@@0@0@Z
	?push__back@RelationList@VERTEX@@QAEXPAVRelation@2@@Z
	?back@RelationList@VERTEX@@QBEPAVRelation@2@XZ
	?size@RelationList@VERTEX@@QBEIXZ
	?begin@RelationList@VERTEX@@QAE?AVRelationIterator@2@XZ
	?end@RelationList@VERTEX@@QAE?AVRelationIterator@2@XZ
	?begin@RelationList@VERTEX@@QBE?AVConstRelationIterator@2@XZ
	?end@RelationList@VERTEX@@QBE?AVConstRelationIterator@2@XZ
	?rbegin@RelationList@VERTEX@@QAE?AVReverseRelationIterator@2@XZ
	?rend@RelationList@VERTEX@@QAE?AVReverseRelationIterator@2@XZ
	?rbegin@RelationList@VERTEX@@QBE?AVConstReverseRelationIterator@2@XZ
	?rend@RelationList@VERTEX@@QBE?AVConstReverseRelationIterator@2@XZ
	?unbook@RelationList@VERTEX@@QAEXQAVRelation@2@@Z
	??8RelationList@VERTEX@@QBE_NABV01@@Z
	?Class@RelationList@VERTEX@@SAPAVTClass@@XZ
	?Class_Name@RelationList@VERTEX@@SAPBDXZ
	?Class_Version@RelationList@VERTEX@@SAFXZ
	?Dictionary@RelationList@VERTEX@@SAXXZ
	?IsA@RelationList@VERTEX@@UBEPAVTClass@@XZ
	?ShowMembers@RelationList@VERTEX@@UAEXAAVTMemberInspector@@@Z
	?Streamer@RelationList@VERTEX@@UAEXAAVTBuffer@@@Z
	?StreamerNVirtual@RelationList@VERTEX@@QAEXAAVTBuffer@@@Z
	?DeclFileName@RelationList@VERTEX@@SAPBDXZ
	?ImplFileLine@RelationList@VERTEX@@SAHXZ
	?ImplFileName@RelationList@VERTEX@@SAPBDXZ
	?DeclFileLine@RelationList@VERTEX@@SAHXZ
	??0RelationList@VERTEX@@QAE@ABV01@@Z
	??$?8PAVRelation@VERTEX@@V?$allocator@PAVRelation@VERTEX@@@std@@@std@@YA_NABV?$list@PAVRelation@VERTEX@@V?$allocator@PAVRelation@VERTEX@@@std@@@0@0@Z
	??6VERTEX@@YAAAV?$basic_ostream@DU?$char_traits@D@std@@@std@@AAV12@ABVRelationList@0@@Z
	?evec@Track@VERTEX@@QBE?AVVtVector@MATRIX@@XZ
	?tvec@Track@VERTEX@@QBE?AVVtVector@MATRIX@@XZ
	?pvec@Track@VERTEX@@QBE?AVVtVector@MATRIX@@XZ
	?px@Track@VERTEX@@QBENXZ
	?py@Track@VERTEX@@QBENXZ
	?ex@Track@VERTEX@@QBENXZ
	?ey@Track@VERTEX@@QBENXZ
	?ez@Track@VERTEX@@QBENXZ
	?xerr@Track@VERTEX@@QBENN@Z
	?yerr@Track@VERTEX@@QBENN@Z
	?txerr@Track@VERTEX@@QBENXZ
	?tyerr@Track@VERTEX@@QBENXZ
	?perr@Track@VERTEX@@QBENXZ
	?rm@Track@VERTEX@@QBENXZ
	?rm@Track@VERTEX@@QAEXN@Z
	?rmCC@Track@VERTEX@@QBENXZ
	?rmCC@Track@VERTEX@@QAEXN@Z
	?Class@Track@VERTEX@@SAPAVTClass@@XZ
	?Class_Name@Track@VERTEX@@SAPBDXZ
	?Class_Version@Track@VERTEX@@SAFXZ
	?Dictionary@Track@VERTEX@@SAXXZ
	?IsA@Track@VERTEX@@UBEPAVTClass@@XZ
	?ShowMembers@Track@VERTEX@@UAEXAAVTMemberInspector@@@Z
	?Streamer@Track@VERTEX@@UAEXAAVTBuffer@@@Z
	?StreamerNVirtual@Track@VERTEX@@QAEXAAVTBuffer@@@Z
	?DeclFileName@Track@VERTEX@@SAPBDXZ
	?ImplFileLine@Track@VERTEX@@SAHXZ
	?ImplFileName@Track@VERTEX@@SAPBDXZ
	?DeclFileLine@Track@VERTEX@@SAHXZ
	??6VERTEX@@YAAAV?$basic_ostream@DU?$char_traits@D@std@@@std@@AAV12@ABVTrack@0@@Z
	?select_on_container_copy_construction@?$allocator@U?$_List_node@PAVMassC@VERTEX@@PAX@std@@@std@@QBE?AV12@XZ
	??0?$allocator@U?$_List_node@PAVMassC@VERTEX@@PAX@std@@@std@@QAE@XZ
	??0?$allocator@U?$_List_node@PAVMassC@VERTEX@@PAX@std@@@std@@QAE@ABV01@@Z
	?deallocate@?$allocator@U?$_List_node@PAVMassC@VERTEX@@PAX@std@@@std@@QAEXPAU?$_List_node@PAVMassC@VERTEX@@PAX@2@I@Z
	?allocate@?$allocator@U?$_List_node@PAVMassC@VERTEX@@PAX@std@@@std@@QAEPAU?$_List_node@PAVMassC@VERTEX@@PAX@2@I@Z
	?max_size@?$allocator@U?$_List_node@PAVMassC@VERTEX@@PAX@std@@@std@@QBEIXZ
	?max_size@?$allocator_traits@V?$allocator@U?$_List_node@PAVMassC@VERTEX@@PAX@std@@@std@@@std@@SAIABV?$allocator@U?$_List_node@PAVMassC@VERTEX@@PAX@std@@@2@@Z
	?select_on_container_copy_construction@?$allocator_traits@V?$allocator@U?$_List_node@PAVMassC@VERTEX@@PAX@std@@@std@@@std@@SA?AV?$allocator@U?$_List_node@PAVMassC@VERTEX@@PAX@std@@@2@ABV32@@Z
	?select_on_container_copy_construction@?$_Wrap_alloc@V?$allocator@U?$_List_node@PAVMassC@VERTEX@@PAX@std@@@std@@@std@@QBE?AU12@XZ
	??0?$_Wrap_alloc@V?$allocator@U?$_List_node@PAVMassC@VERTEX@@PAX@std@@@std@@@std@@QAE@XZ
	??0?$_Wrap_alloc@V?$allocator@U?$_List_node@PAVMassC@VERTEX@@PAX@std@@@std@@@std@@QAE@ABV?$allocator@U?$_List_node@PAVMassC@VERTEX@@PAX@std@@@1@@Z
	?allocate@?$_Wrap_alloc@V?$allocator@U?$_List_node@PAVMassC@VERTEX@@PAX@std@@@std@@@std@@QAEPAU?$_List_node@PAVMassC@VERTEX@@PAX@2@I@Z
	?deallocate@?$_Wrap_alloc@V?$allocator@U?$_List_node@PAVMassC@VERTEX@@PAX@std@@@std@@@std@@QAEXPAU?$_List_node@PAVMassC@VERTEX@@PAX@2@I@Z
	?max_size@?$_Wrap_alloc@V?$allocator@U?$_List_node@PAVMassC@VERTEX@@PAX@std@@@std@@@std@@QBEIXZ
	??0?$_List_val@U?$_List_simple_types@PAVMassC@VERTEX@@@std@@@std@@QAE@XZ
	?_Nextnode@?$_List_val@U?$_List_simple_types@PAVMassC@VERTEX@@@std@@@std@@SAAAPAU?$_List_node@PAVMassC@VERTEX@@PAX@2@PAU32@@Z
	?_Prevnode@?$_List_val@U?$_List_simple_types@PAVMassC@VERTEX@@@std@@@std@@SAAAPAU?$_List_node@PAVMassC@VERTEX@@PAX@2@PAU32@@Z
	?_Myval@?$_List_val@U?$_List_simple_types@PAVMassC@VERTEX@@@std@@@std@@SAAAPAVMassC@VERTEX@@PAU?$_List_node@PAVMassC@VERTEX@@PAX@2@@Z
	??0?$_List_alloc@$0A@U?$_List_base_types@PAVMassC@VERTEX@@V?$allocator@PAVMassC@VERTEX@@@std@@@std@@@std@@QAE@ABV?$allocator@PAVMassC@VERTEX@@@1@@Z
	??1?$_List_alloc@$0A@U?$_List_base_types@PAVMassC@VERTEX@@V?$allocator@PAVMassC@VERTEX@@@std@@@std@@@std@@QAE@XZ
	?_Buyheadnode@?$_List_alloc@$0A@U?$_List_base_types@PAVMassC@VERTEX@@V?$allocator@PAVMassC@VERTEX@@@std@@@std@@@std@@QAEPAU?$_List_node@PAVMassC@VERTEX@@PAX@2@XZ
	?_Freeheadnode@?$_List_alloc@$0A@U?$_List_base_types@PAVMassC@VERTEX@@V?$allocator@PAVMassC@VERTEX@@@std@@@std@@@std@@QAEXPAU?$_List_node@PAVMassC@VERTEX@@PAX@2@@Z
	?_Buynode0@?$_List_alloc@$0A@U?$_List_base_types@PAVMassC@VERTEX@@V?$allocator@PAVMassC@VERTEX@@@std@@@std@@@std@@QAEPAU?$_List_node@PAVMassC@VERTEX@@PAX@2@PAU32@0@Z
	?_Getal@?$_List_alloc@$0A@U?$_List_base_types@PAVMassC@VERTEX@@V?$allocator@PAVMassC@VERTEX@@@std@@@std@@@std@@QBE?AU?$_Wrap_alloc@V?$allocator@U?$_List_node@PAVMassC@VERTEX@@PAX@std@@@std@@@2@XZ
	??0?$_List_buy@PAVMassC@VERTEX@@V?$allocator@PAVMassC@VERTEX@@@std@@@std@@QAE@ABV?$allocator@PAVMassC@VERTEX@@@1@@Z
	?_Freenode@?$_List_buy@PAVMassC@VERTEX@@V?$allocator@PAVMassC@VERTEX@@@std@@@std@@QAEXPAU?$_List_node@PAVMassC@VERTEX@@PAX@2@@Z
	??1?$_List_buy@PAVMassC@VERTEX@@V?$allocator@PAVMassC@VERTEX@@@std@@@std@@QAE@XZ
	??0?$list@PAVMassC@VERTEX@@V?$allocator@PAVMassC@VERTEX@@@std@@@std@@QAE@ABV01@@Z
	?begin@?$list@PAVMassC@VERTEX@@V?$allocator@PAVMassC@VERTEX@@@std@@@std@@QAE?AV?$_List_iterator@V?$_List_val@U?$_List_simple_types@PAVMassC@VERTEX@@@std@@@std@@@2@XZ
	?begin@?$list@PAVMassC@VERTEX@@V?$allocator@PAVMassC@VERTEX@@@std@@@std@@QBE?AV?$_List_const_iterator@V?$_List_val@U?$_List_simple_types@PAVMassC@VERTEX@@@std@@@std@@@2@XZ
	?end@?$list@PAVMassC@VERTEX@@V?$allocator@PAVMassC@VERTEX@@@std@@@std@@QBE?AV?$_List_const_iterator@V?$_List_val@U?$_List_simple_types@PAVMassC@VERTEX@@@std@@@std@@@2@XZ
	?_Make_iter@?$list@PAVMassC@VERTEX@@V?$allocator@PAVMassC@VERTEX@@@std@@@std@@QBE?AV?$_List_iterator@V?$_List_val@U?$_List_simple_types@PAVMassC@VERTEX@@@std@@@std@@@2@V?$_List_const_iterator@V?$_List_val@U?$_List_simple_types@PAVMassC@VERTEX@@@std@@@std@@@2@@Z
	?size@?$list@PAVMassC@VERTEX@@V?$allocator@PAVMassC@VERTEX@@@std@@@std@@QBEIXZ
	?max_size@?$list@PAVMassC@VERTEX@@V?$allocator@PAVMassC@VERTEX@@@std@@@std@@QBEIXZ
	?_Unchecked_erase@?$list@PAVMassC@VERTEX@@V?$allocator@PAVMassC@VERTEX@@@std@@@std@@QAEXV?$_List_unchecked_const_iterator@V?$_List_val@U?$_List_simple_types@PAVMassC@VERTEX@@@std@@@std@@U_Iterator_base0@2@@2@@Z
	?clear@?$list@PAVMassC@VERTEX@@V?$allocator@PAVMassC@VERTEX@@@std@@@std@@QAEXXZ
	?_Tidy@?$list@PAVMassC@VERTEX@@V?$allocator@PAVMassC@VERTEX@@@std@@@std@@QAEXXZ
	?_Incsize@?$list@PAVMassC@VERTEX@@V?$allocator@PAVMassC@VERTEX@@@std@@@std@@QAEXI@Z
	?getTrack@Relation@VERTEX@@QAEAAVTrack@2@XZ
	?getVertex@Relation@VERTEX@@QAEAAVVertex@2@XZ
	?getKalman@Relation@VERTEX@@QAEAAVKalman@2@XZ
	?Class@Relation@VERTEX@@SAPAVTClass@@XZ
	?Class_Name@Relation@VERTEX@@SAPBDXZ
	?Class_Version@Relation@VERTEX@@SAFXZ
	?Dictionary@Relation@VERTEX@@SAXXZ
	?IsA@Relation@VERTEX@@UBEPAVTClass@@XZ
	?ShowMembers@Relation@VERTEX@@UAEXAAVTMemberInspector@@@Z
	?Streamer@Relation@VERTEX@@UAEXAAVTBuffer@@@Z
	?StreamerNVirtual@Relation@VERTEX@@QAEXAAVTBuffer@@@Z
	?DeclFileName@Relation@VERTEX@@SAPBDXZ
	?ImplFileLine@Relation@VERTEX@@SAHXZ
	?ImplFileName@Relation@VERTEX@@SAPBDXZ
	?DeclFileLine@Relation@VERTEX@@SAHXZ
	??0Relation@VERTEX@@QAE@ABV01@@Z
	??6VERTEX@@YAAAV?$basic_ostream@DU?$char_traits@D@std@@@std@@AAV12@ABVRelation@0@@Z
	?chi2@Kalman@VERTEX@@QBENXZ
	?chi2s@Kalman@VERTEX@@QBENXZ
	?tx@Kalman@VERTEX@@QBENXZ
	?ty@Kalman@VERTEX@@QBENXZ
	?p@Kalman@VERTEX@@QBENXZ
	?px@Kalman@VERTEX@@QBENXZ
	?py@Kalman@VERTEX@@QBENXZ
	?pz@Kalman@VERTEX@@QBENXZ
	?ex@Kalman@VERTEX@@QBENXZ
	?ey@Kalman@VERTEX@@QBENXZ
	?ez@Kalman@VERTEX@@QBENXZ
	?E@Kalman@VERTEX@@QBENN@Z
	?evec@Kalman@VERTEX@@QBE?AVVtVector@MATRIX@@XZ
	?tvec@Kalman@VERTEX@@QBE?AVVtVector@MATRIX@@XZ
	?pvec@Kalman@VERTEX@@QBE?AVVtVector@MATRIX@@XZ
	?W@Kalman@VERTEX@@QBEABVVtSymMatrix@MATRIX@@XZ
	?C@Kalman@VERTEX@@QBEABVVtSymMatrix@MATRIX@@XZ
	?CINV@Kalman@VERTEX@@QBEABVVtSymMatrix@MATRIX@@XZ
	?F@Kalman@VERTEX@@QBEABVVtSqMatrix@MATRIX@@XZ
	?ES@Kalman@VERTEX@@QBEABVVtSqMatrix@MATRIX@@XZ
	?DS@Kalman@VERTEX@@QBEABVVtSymMatrix@MATRIX@@XZ
	?xv@Kalman@VERTEX@@QBEABVVtVector@MATRIX@@XZ
	?xnk@Kalman@VERTEX@@QBEABVVtVector@MATRIX@@XZ
	?qvs@Kalman@VERTEX@@QBEABVVtVector@MATRIX@@XZ
	?use_momentum@Kalman@VERTEX@@QBE_NXZ
	?set_chi2@Kalman@VERTEX@@QAENN@Z
	?alpc_init@Kalman@VERTEX@@QAEXXZ
	?alp_init@Kalman@VERTEX@@QAEXXZ
	?alpc@Kalman@VERTEX@@QBEABVVtVector@MATRIX@@XZ
	?alp@Kalman@VERTEX@@QBEABVVtVector@MATRIX@@XZ
	?xn@Kalman@VERTEX@@QBENXZ
	?yn@Kalman@VERTEX@@QBENXZ
	?zn@Kalman@VERTEX@@QBENXZ
	?erg@Kalman@VERTEX@@QBENXZ
	?nalpc@Kalman@VERTEX@@QBEABVVtVector@MATRIX@@XZ
	?qvs_nc@Kalman@VERTEX@@QAEAAVVtVector@MATRIX@@XZ
	?Class@Kalman@VERTEX@@SAPAVTClass@@XZ
	?Class_Name@Kalman@VERTEX@@SAPBDXZ
	?Class_Version@Kalman@VERTEX@@SAFXZ
	?Dictionary@Kalman@VERTEX@@SAXXZ
	?IsA@Kalman@VERTEX@@UBEPAVTClass@@XZ
	?ShowMembers@Kalman@VERTEX@@UAEXAAVTMemberInspector@@@Z
	?Streamer@Kalman@VERTEX@@UAEXAAVTBuffer@@@Z
	?StreamerNVirtual@Kalman@VERTEX@@QAEXAAVTBuffer@@@Z
	?DeclFileName@Kalman@VERTEX@@SAPBDXZ
	?ImplFileLine@Kalman@VERTEX@@SAHXZ
	?ImplFileName@Kalman@VERTEX@@SAPBDXZ
	?DeclFileLine@Kalman@VERTEX@@SAHXZ
	??0Kalman@VERTEX@@QAE@ABV01@@Z
	??6VERTEX@@YAAAV?$basic_ostream@DU?$char_traits@D@std@@@std@@AAV12@ABVKalman@0@@Z
	??$sqr@N@VERTEX@@YA?BNABN@Z
	??0?$_Vector_val@U?$_Simple_types@PAVRelation@VERTEX@@@std@@@std@@QAE@XZ
	??0?$_Vector_alloc@$0A@U?$_Vec_base_types@PAVRelation@VERTEX@@V?$allocator@PAVRelation@VERTEX@@@std@@@std@@@std@@QAE@ABV?$allocator@PAVRelation@VERTEX@@@1@@Z
	?_Change_alloc@?$_Vector_alloc@$0A@U?$_Vec_base_types@PAVRelation@VERTEX@@V?$allocator@PAVRelation@VERTEX@@@std@@@std@@@std@@QAEXABU?$_Wrap_alloc@V?$allocator@PAVRelation@VERTEX@@@std@@@2@@Z
	?_Getal@?$_Vector_alloc@$0A@U?$_Vec_base_types@PAVRelation@VERTEX@@V?$allocator@PAVRelation@VERTEX@@@std@@@std@@@std@@QBE?AU?$_Wrap_alloc@V?$allocator@PAVRelation@VERTEX@@@std@@@2@XZ
	??0?$vector@PAVRelation@VERTEX@@V?$allocator@PAVRelation@VERTEX@@@std@@@std@@QAE@ABV01@@Z
	??4?$vector@PAVRelation@VERTEX@@V?$allocator@PAVRelation@VERTEX@@@std@@@std@@QAEAAV01@ABV01@@Z
	?capacity@?$vector@PAVRelation@VERTEX@@V?$allocator@PAVRelation@VERTEX@@@std@@@std@@QBEIXZ
	?begin@?$vector@PAVRelation@VERTEX@@V?$allocator@PAVRelation@VERTEX@@@std@@@std@@QBE?AV?$_Vector_const_iterator@V?$_Vector_val@U?$_Simple_types@PAVRelation@VERTEX@@@std@@@std@@@2@XZ
	?end@?$vector@PAVRelation@VERTEX@@V?$allocator@PAVRelation@VERTEX@@@std@@@std@@QBE?AV?$_Vector_const_iterator@V?$_Vector_val@U?$_Simple_types@PAVRelation@VERTEX@@@std@@@std@@@2@XZ
	?size@?$vector@PAVRelation@VERTEX@@V?$allocator@PAVRelation@VERTEX@@@std@@@std@@QBEIXZ
	?max_size@?$vector@PAVRelation@VERTEX@@V?$allocator@PAVRelation@VERTEX@@@std@@@std@@QBEIXZ
	?empty@?$vector@PAVRelation@VERTEX@@V?$allocator@PAVRelation@VERTEX@@@std@@@std@@QBE_NXZ
	?clear@?$vector@PAVRelation@VERTEX@@V?$allocator@PAVRelation@VERTEX@@@std@@@std@@QAEXXZ
	?_Buy@?$vector@PAVRelation@VERTEX@@V?$allocator@PAVRelation@VERTEX@@@std@@@std@@IAE_NI@Z
	?_Destroy@?$vector@PAVRelation@VERTEX@@V?$allocator@PAVRelation@VERTEX@@@std@@@std@@IAEXPAPAVRelation@VERTEX@@0@Z
	?_Tidy@?$vector@PAVRelation@VERTEX@@V?$allocator@PAVRelation@VERTEX@@@std@@@std@@IAEXXZ
	?_Xlen@?$vector@PAVRelation@VERTEX@@V?$allocator@PAVRelation@VERTEX@@@std@@@std@@IBEXXZ
	?push_back@MassC@VERTEX@@QAEXAAVRelation@2@@Z
	?mass@MassC@VERTEX@@QBENXZ
	?mass@MassC@VERTEX@@QAEXN@Z
	?galp@MassC@VERTEX@@QBENXZ
	?Class@MassC@VERTEX@@SAPAVTClass@@XZ
	?Class_Name@MassC@VERTEX@@SAPBDXZ
	?Class_Version@MassC@VERTEX@@SAFXZ
	?Dictionary@MassC@VERTEX@@SAXXZ
	?IsA@MassC@VERTEX@@UBEPAVTClass@@XZ
	?ShowMembers@MassC@VERTEX@@UAEXAAVTMemberInspector@@@Z
	?Streamer@MassC@VERTEX@@UAEXAAVTBuffer@@@Z
	?StreamerNVirtual@MassC@VERTEX@@QAEXAAVTBuffer@@@Z
	?DeclFileName@MassC@VERTEX@@SAPBDXZ
	?ImplFileLine@MassC@VERTEX@@SAHXZ
	?ImplFileName@MassC@VERTEX@@SAPBDXZ
	?DeclFileLine@MassC@VERTEX@@SAHXZ
	??0MassC@VERTEX@@QAE@ABV01@@Z
	??4MassC@VERTEX@@QAEAAV01@ABV01@@Z
	??6VERTEX@@YAAAV?$basic_ostream@DU?$char_traits@D@std@@@std@@AAV12@ABVMassC@0@@Z
	?angle@Vertex@VERTEX@@QBENXZ
	?dist@Vertex@VERTEX@@QBENXZ
	?vxerr@Vertex@VERTEX@@QBENXZ
	?vyerr@Vertex@VERTEX@@QBENXZ
	?vzerr@Vertex@VERTEX@@QBENXZ
	?CS@Vertex@VERTEX@@QBEABVVtSymMatrix@MATRIX@@XZ
	?covn@Vertex@VERTEX@@QBEABVVtSymMatrix@MATRIX@@XZ
	?valid@Vertex@VERTEX@@QBE_NXZ
	?set_invalid@Vertex@VERTEX@@QAEXXZ
	?use_kalman@Vertex@VERTEX@@QAEX_N@Z
	?use_kalman@Vertex@VERTEX@@QBE_NXZ
	?xv@Vertex@VERTEX@@QBEABVVtVector@MATRIX@@XZ
	?xvs@Vertex@VERTEX@@QBEABVVtVector@MATRIX@@XZ
	?nMassConstr@Vertex@VERTEX@@QBEIXZ
	?Class@Vertex@VERTEX@@SAPAVTClass@@XZ
	?Class_Name@Vertex@VERTEX@@SAPBDXZ
	?Class_Version@Vertex@VERTEX@@SAFXZ
	?Dictionary@Vertex@VERTEX@@SAXXZ
	?IsA@Vertex@VERTEX@@UBEPAVTClass@@XZ
	?ShowMembers@Vertex@VERTEX@@UAEXAAVTMemberInspector@@@Z
	?Streamer@Vertex@VERTEX@@UAEXAAVTBuffer@@@Z
	?StreamerNVirtual@Vertex@VERTEX@@QAEXAAVTBuffer@@@Z
	?DeclFileName@Vertex@VERTEX@@SAPBDXZ
	?ImplFileLine@Vertex@VERTEX@@SAHXZ
	?ImplFileName@Vertex@VERTEX@@SAPBDXZ
	?DeclFileLine@Vertex@VERTEX@@SAHXZ
	??6VERTEX@@YAAAV?$basic_ostream@DU?$char_traits@D@std@@@std@@AAV12@ABVVertex@0@@Z
	?distance@VERTEX@@YANABVVertex@1@ABVTrack@1@@Z
	?SGNdistance@VERTEX@@YANABVVertex@1@ABVTrack@1@@Z
	??0_Ignore@std@@QAE@XZ
	??0TLockGuard@@QAE@PAVTVirtualMutex@@@Z
	??1TLockGuard@@UAE@XZ
	?IsA@TLockGuard@@UBEPAVTClass@@XZ
	??2@YAPAXIPAVTOperatorNewHelper@ROOT@@@Z
	??3@YAXPAXPAVTOperatorNewHelper@ROOT@@@Z
	??1TVirtualIsAProxy@@UAE@XZ
	??0TVirtualIsAProxy@@QAE@XZ
	??0DictInit@?A0x193cb333@@QAE@XZ
	??__Finstance@?1??GenerateInitInstance@ROOTDict@MATRIX@@YAPAVTGenericClassInfo@ROOT@@XZ@YAXXZ
	??0?$TInstrumentedIsAProxy@VVtVector@MATRIX@@@@QAE@PAVTClass@@@Z
	??1?$TInstrumentedIsAProxy@VVtVector@MATRIX@@@@UAE@XZ
	?SetClass@?$TInstrumentedIsAProxy@VVtVector@MATRIX@@@@UAEXPAVTClass@@@Z
	??R?$TInstrumentedIsAProxy@VVtVector@MATRIX@@@@UAEPAVTClass@@PBX@Z
	?GenerateInitInstance@ROOTDict@@YAPAVTGenericClassInfo@ROOT@@PBVVtVector@MATRIX@@@Z
	??0?$TInstrumentedIsAProxy@VVtNegMatrix@MATRIX@@@@QAE@PAVTClass@@@Z
	??1?$TInstrumentedIsAProxy@VVtNegMatrix@MATRIX@@@@UAE@XZ
	?SetClass@?$TInstrumentedIsAProxy@VVtNegMatrix@MATRIX@@@@UAEXPAVTClass@@@Z
	??R?$TInstrumentedIsAProxy@VVtNegMatrix@MATRIX@@@@UAEPAVTClass@@PBX@Z
	?GenerateInitInstance@ROOTDict@@YAPAVTGenericClassInfo@ROOT@@PBVVtNegMatrix@MATRIX@@@Z
	??0?$TInstrumentedIsAProxy@VVtMatrix@MATRIX@@@@QAE@PAVTClass@@@Z
	??1?$TInstrumentedIsAProxy@VVtMatrix@MATRIX@@@@UAE@XZ
	?SetClass@?$TInstrumentedIsAProxy@VVtMatrix@MATRIX@@@@UAEXPAVTClass@@@Z
	??R?$TInstrumentedIsAProxy@VVtMatrix@MATRIX@@@@UAEPAVTClass@@PBX@Z
	?GenerateInitInstance@ROOTDict@@YAPAVTGenericClassInfo@ROOT@@PBVVtMatrix@MATRIX@@@Z
	??0?$TInstrumentedIsAProxy@VVtSqMatrix@MATRIX@@@@QAE@PAVTClass@@@Z
	??1?$TInstrumentedIsAProxy@VVtSqMatrix@MATRIX@@@@UAE@XZ
	?SetClass@?$TInstrumentedIsAProxy@VVtSqMatrix@MATRIX@@@@UAEXPAVTClass@@@Z
	??R?$TInstrumentedIsAProxy@VVtSqMatrix@MATRIX@@@@UAEPAVTClass@@PBX@Z
	?GenerateInitInstance@ROOTDict@@YAPAVTGenericClassInfo@ROOT@@PBVVtSqMatrix@MATRIX@@@Z
	??0?$TInstrumentedIsAProxy@VVtSymMatrix@MATRIX@@@@QAE@PAVTClass@@@Z
	??1?$TInstrumentedIsAProxy@VVtSymMatrix@MATRIX@@@@UAE@XZ
	?SetClass@?$TInstrumentedIsAProxy@VVtSymMatrix@MATRIX@@@@UAEXPAVTClass@@@Z
	??R?$TInstrumentedIsAProxy@VVtSymMatrix@MATRIX@@@@UAEPAVTClass@@PBX@Z
	?GenerateInitInstance@ROOTDict@@YAPAVTGenericClassInfo@ROOT@@PBVVtSymMatrix@MATRIX@@@Z
	??0?$TInstrumentedIsAProxy@VCMatrix@MATRIX@@@@QAE@PAVTClass@@@Z
	??1?$TInstrumentedIsAProxy@VCMatrix@MATRIX@@@@UAE@XZ
	?SetClass@?$TInstrumentedIsAProxy@VCMatrix@MATRIX@@@@UAEXPAVTClass@@@Z
	??R?$TInstrumentedIsAProxy@VCMatrix@MATRIX@@@@UAEPAVTClass@@PBX@Z
	?GenerateInitInstance@ROOTDict@@YAPAVTGenericClassInfo@ROOT@@PBVCMatrix@MATRIX@@@Z
	??__Finstance@?1??GenerateInitInstance@ROOTDict@VERTEX@@YAPAVTGenericClassInfo@ROOT@@XZ@YAXXZ
	??0?$TInstrumentedIsAProxy@VRelation@VERTEX@@@@QAE@PAVTClass@@@Z
	??1?$TInstrumentedIsAProxy@VRelation@VERTEX@@@@UAE@XZ
	?SetClass@?$TInstrumentedIsAProxy@VRelation@VERTEX@@@@UAEXPAVTClass@@@Z
	??R?$TInstrumentedIsAProxy@VRelation@VERTEX@@@@UAEPAVTClass@@PBX@Z
	?GenerateInitInstance@ROOTDict@@YAPAVTGenericClassInfo@ROOT@@PBVRelation@VERTEX@@@Z
	??0?$TInstrumentedIsAProxy@VRelationIterator@VERTEX@@@@QAE@PAVTClass@@@Z
	??1?$TInstrumentedIsAProxy@VRelationIterator@VERTEX@@@@UAE@XZ
	?SetClass@?$TInstrumentedIsAProxy@VRelationIterator@VERTEX@@@@UAEXPAVTClass@@@Z
	??R?$TInstrumentedIsAProxy@VRelationIterator@VERTEX@@@@UAEPAVTClass@@PBX@Z
	?GenerateInitInstance@ROOTDict@@YAPAVTGenericClassInfo@ROOT@@PBVRelationIterator@VERTEX@@@Z
	??0?$TInstrumentedIsAProxy@VConstRelationIterator@VERTEX@@@@QAE@PAVTClass@@@Z
	??1?$TInstrumentedIsAProxy@VConstRelationIterator@VERTEX@@@@UAE@XZ
	?SetClass@?$TInstrumentedIsAProxy@VConstRelationIterator@VERTEX@@@@UAEXPAVTClass@@@Z
	??R?$TInstrumentedIsAProxy@VConstRelationIterator@VERTEX@@@@UAEPAVTClass@@PBX@Z
	?GenerateInitInstance@ROOTDict@@YAPAVTGenericClassInfo@ROOT@@PBVConstRelationIterator@VERTEX@@@Z
	??0?$TInstrumentedIsAProxy@VReverseRelationIterator@VERTEX@@@@QAE@PAVTClass@@@Z
	??1?$TInstrumentedIsAProxy@VReverseRelationIterator@VERTEX@@@@UAE@XZ
	?SetClass@?$TInstrumentedIsAProxy@VReverseRelationIterator@VERTEX@@@@UAEXPAVTClass@@@Z
	??R?$TInstrumentedIsAProxy@VReverseRelationIterator@VERTEX@@@@UAEPAVTClass@@PBX@Z
	?GenerateInitInstance@ROOTDict@@YAPAVTGenericClassInfo@ROOT@@PBVReverseRelationIterator@VERTEX@@@Z
	??0?$TInstrumentedIsAProxy@VConstReverseRelationIterator@VERTEX@@@@QAE@PAVTClass@@@Z
	??1?$TInstrumentedIsAProxy@VConstReverseRelationIterator@VERTEX@@@@UAE@XZ
	?SetClass@?$TInstrumentedIsAProxy@VConstReverseRelationIterator@VERTEX@@@@UAEXPAVTClass@@@Z
	??R?$TInstrumentedIsAProxy@VConstReverseRelationIterator@VERTEX@@@@UAEPAVTClass@@PBX@Z
	?GenerateInitInstance@ROOTDict@@YAPAVTGenericClassInfo@ROOT@@PBVConstReverseRelationIterator@VERTEX@@@Z
	??0?$TInstrumentedIsAProxy@VTrack@VERTEX@@@@QAE@PAVTClass@@@Z
	??1?$TInstrumentedIsAProxy@VTrack@VERTEX@@@@UAE@XZ
	?SetClass@?$TInstrumentedIsAProxy@VTrack@VERTEX@@@@UAEXPAVTClass@@@Z
	??R?$TInstrumentedIsAProxy@VTrack@VERTEX@@@@UAEPAVTClass@@PBX@Z
	?GenerateInitInstance@ROOTDict@@YAPAVTGenericClassInfo@ROOT@@PBVTrack@VERTEX@@@Z
	??0?$TInstrumentedIsAProxy@VVertex@VERTEX@@@@QAE@PAVTClass@@@Z
	??1?$TInstrumentedIsAProxy@VVertex@VERTEX@@@@UAE@XZ
	?SetClass@?$TInstrumentedIsAProxy@VVertex@VERTEX@@@@UAEXPAVTClass@@@Z
	??R?$TInstrumentedIsAProxy@VVertex@VERTEX@@@@UAEPAVTClass@@PBX@Z
	?GenerateInitInstance@ROOTDict@@YAPAVTGenericClassInfo@ROOT@@PBVVertex@VERTEX@@@Z
	??0?$TInstrumentedIsAProxy@VRelationList@VERTEX@@@@QAE@PAVTClass@@@Z
	??1?$TInstrumentedIsAProxy@VRelationList@VERTEX@@@@UAE@XZ
	?SetClass@?$TInstrumentedIsAProxy@VRelationList@VERTEX@@@@UAEXPAVTClass@@@Z
	??R?$TInstrumentedIsAProxy@VRelationList@VERTEX@@@@UAEPAVTClass@@PBX@Z
	?GenerateInitInstance@ROOTDict@@YAPAVTGenericClassInfo@ROOT@@PBVRelationList@VERTEX@@@Z
	??0?$TInstrumentedIsAProxy@VKalman@VERTEX@@@@QAE@PAVTClass@@@Z
	??1?$TInstrumentedIsAProxy@VKalman@VERTEX@@@@UAE@XZ
	?SetClass@?$TInstrumentedIsAProxy@VKalman@VERTEX@@@@UAEXPAVTClass@@@Z
	??R?$TInstrumentedIsAProxy@VKalman@VERTEX@@@@UAEPAVTClass@@PBX@Z
	?GenerateInitInstance@ROOTDict@@YAPAVTGenericClassInfo@ROOT@@PBVKalman@VERTEX@@@Z
	??0?$TInstrumentedIsAProxy@VMassC@VERTEX@@@@QAE@PAVTClass@@@Z
	??1?$TInstrumentedIsAProxy@VMassC@VERTEX@@@@UAE@XZ
	?SetClass@?$TInstrumentedIsAProxy@VMassC@VERTEX@@@@UAEXPAVTClass@@@Z
	??R?$TInstrumentedIsAProxy@VMassC@VERTEX@@@@UAEPAVTClass@@PBX@Z
	?GenerateInitInstance@ROOTDict@@YAPAVTGenericClassInfo@ROOT@@PBVMassC@VERTEX@@@Z
	??$InspectMember@VVtVector@MATRIX@@@TMemberInspector@@QAEXAAVVtVector@MATRIX@@PBD@Z
	??$InspectMember@VCMatrix@MATRIX@@@TMemberInspector@@QAEXAAVCMatrix@MATRIX@@PBD@Z
	??$InspectMember@VVtSymMatrix@MATRIX@@@TMemberInspector@@QAEXAAVVtSymMatrix@MATRIX@@PBD@Z
	??$InspectMember@VVtMatrix@MATRIX@@@TMemberInspector@@QAEXAAVVtMatrix@MATRIX@@PBD@Z
	??$InspectMember@VVtSqMatrix@MATRIX@@@TMemberInspector@@QAEXAAVVtSqMatrix@MATRIX@@PBD@Z
	G__cpp_reset_tagtablevtCint
	??0G__Sizep2memfuncvtCint@@QAE@XZ
	?sizep2memfunc@G__Sizep2memfuncvtCint@@QAEIXZ
	?G__get_sizep2memfuncvtCint@@YAIXZ
	??$?0P6AAAV?$basic_ostream@DU?$char_traits@D@std@@@std@@AAV01@ABVVtVector@MATRIX@@@Z@G__func2void@@QAE@P6AAAV?$basic_ostream@DU?$char_traits@D@std@@@std@@AAV12@ABVVtVector@MATRIX@@@Z@Z
	??$?0P6AAAV?$basic_ostream@DU?$char_traits@D@std@@@std@@AAV01@ABVVtMatrix@MATRIX@@@Z@G__func2void@@QAE@P6AAAV?$basic_ostream@DU?$char_traits@D@std@@@std@@AAV12@ABVVtMatrix@MATRIX@@@Z@Z
	??$?0P6AAAV?$basic_ostream@DU?$char_traits@D@std@@@std@@AAV01@ABVVtSqMatrix@MATRIX@@@Z@G__func2void@@QAE@P6AAAV?$basic_ostream@DU?$char_traits@D@std@@@std@@AAV12@ABVVtSqMatrix@MATRIX@@@Z@Z
	??$?0P6AAAV?$basic_ostream@DU?$char_traits@D@std@@@std@@AAV01@ABVVtSymMatrix@MATRIX@@@Z@G__func2void@@QAE@P6AAAV?$basic_ostream@DU?$char_traits@D@std@@@std@@AAV12@ABVVtSymMatrix@MATRIX@@@Z@Z
	??$?0P6AAAV?$basic_ostream@DU?$char_traits@D@std@@@std@@AAV01@ABVVtNegMatrix@MATRIX@@@Z@G__func2void@@QAE@P6AAAV?$basic_ostream@DU?$char_traits@D@std@@@std@@AAV12@ABVVtNegMatrix@MATRIX@@@Z@Z
	??$?0P6APAVTClass@@XZ@G__func2void@@QAE@P6APAVTClass@@XZ@Z
	??$?0P6APBDXZ@G__func2void@@QAE@P6APBDXZ@Z
	??$?0P6AFXZ@G__func2void@@QAE@P6AFXZ@Z
	??$?0P6AXXZ@G__func2void@@QAE@P6AXXZ@Z
	??$?0P6AHXZ@G__func2void@@QAE@P6AHXZ@Z
	??$?0P6AAAV?$basic_ostream@DU?$char_traits@D@std@@@std@@AAV01@ABVVtIni@VERTEX@@@Z@G__func2void@@QAE@P6AAAV?$basic_ostream@DU?$char_traits@D@std@@@std@@AAV12@ABVVtIni@VERTEX@@@Z@Z
	??$?0P6A_NAAVTrack@VERTEX@@AAVVertex@1@@Z@G__func2void@@QAE@P6A_NAAVTrack@VERTEX@@AAVVertex@2@@Z@Z
	??$?0P6AAAV?$basic_ostream@DU?$char_traits@D@std@@@std@@AAV01@ABVRelationList@VERTEX@@@Z@G__func2void@@QAE@P6AAAV?$basic_ostream@DU?$char_traits@D@std@@@std@@AAV12@ABVRelationList@VERTEX@@@Z@Z
	??$?0P6AAAV?$basic_ostream@DU?$char_traits@D@std@@@std@@AAV01@ABVTrack@VERTEX@@@Z@G__func2void@@QAE@P6AAAV?$basic_ostream@DU?$char_traits@D@std@@@std@@AAV12@ABVTrack@VERTEX@@@Z@Z
	??$?0P6AAAV?$basic_ostream@DU?$char_traits@D@std@@@std@@AAV01@ABVRelation@VERTEX@@@Z@G__func2void@@QAE@P6AAAV?$basic_ostream@DU?$char_traits@D@std@@@std@@AAV12@ABVRelation@VERTEX@@@Z@Z
	??$?0P6AAAV?$basic_ostream@DU?$char_traits@D@std@@@std@@AAV01@ABVKalman@VERTEX@@@Z@G__func2void@@QAE@P6AAAV?$basic_ostream@DU?$char_traits@D@std@@@std@@AAV12@ABVKalman@VERTEX@@@Z@Z
	??$?0P6AAAV?$basic_ostream@DU?$char_traits@D@std@@@std@@AAV01@ABVMassC@VERTEX@@@Z@G__func2void@@QAE@P6AAAV?$basic_ostream@DU?$char_traits@D@std@@@std@@AAV12@ABVMassC@VERTEX@@@Z@Z
	??$?0P6AAAV?$basic_ostream@DU?$char_traits@D@std@@@std@@AAV01@ABVVertex@VERTEX@@@Z@G__func2void@@QAE@P6AAAV?$basic_ostream@DU?$char_traits@D@std@@@std@@AAV12@ABVVertex@VERTEX@@@Z@Z
	??$?0P6ANAAVTrack@VERTEX@@0@Z@G__func2void@@QAE@P6ANAAVTrack@VERTEX@@0@Z@Z
	??$?0P6ANABVTrack@VERTEX@@ABVVertex@1@@Z@G__func2void@@QAE@P6ANABVTrack@VERTEX@@ABVVertex@2@@Z@Z
	??$?0P6ANABVVertex@VERTEX@@ABVTrack@1@@Z@G__func2void@@QAE@P6ANABVVertex@VERTEX@@ABVTrack@2@@Z@Z
	??$?0P6ANABVTrack@VERTEX@@NNN@Z@G__func2void@@QAE@P6ANABVTrack@VERTEX@@NNN@Z@Z
	??$?0P6ANABVVertex@VERTEX@@0@Z@G__func2void@@QAE@P6ANABVVertex@VERTEX@@0@Z@Z
	??$?0P6ANABVVertex@VERTEX@@NNN@Z@G__func2void@@QAE@P6ANABVVertex@VERTEX@@NNN@Z@Z
	??0G__cpp_setup_initvtCint@@QAE@XZ
	??1G__cpp_setup_initvtCint@@QAE@XZ
	??$?0U?$_List_node@PAVRelation@VERTEX@@PAX@std@@@?$allocator@PAVRelation@VERTEX@@@std@@QAE@ABV?$allocator@U?$_List_node@PAVRelation@VERTEX@@PAX@std@@@1@@Z
	??$insert@V?$_List_const_iterator@V?$_List_val@U?$_List_simple_types@PAVRelation@VERTEX@@@std@@@std@@@std@@@?$list@PAVRelation@VERTEX@@V?$allocator@PAVRelation@VERTEX@@@std@@@std@@QAE?AV?$_List_iterator@V?$_List_val@U?$_List_simple_types@PAVRelation@VERTEX@@@std@@@std@@@1@V?$_List_const_iterator@V?$_List_val@U?$_List_simple_types@PAVRelation@VERTEX@@@std@@@std@@@1@00@Z
	??0?$_List_unchecked_iterator@V?$_List_val@U?$_List_simple_types@PAVRelation@VERTEX@@@std@@@std@@@std@@QAE@PAU?$_List_node@PAVRelation@VERTEX@@PAX@1@PBV?$_List_val@U?$_List_simple_types@PAVRelation@VERTEX@@@std@@@1@@Z
	??$_Insert@ABQAVRelation@VERTEX@@@?$list@PAVRelation@VERTEX@@V?$allocator@PAVRelation@VERTEX@@@std@@@std@@QAEXV?$_List_unchecked_const_iterator@V?$_List_val@U?$_List_simple_types@PAVRelation@VERTEX@@@std@@@std@@U_Iterator_base0@2@@1@ABQAVRelation@VERTEX@@@Z
	??$addressof@PAVRelation@VERTEX@@@std@@YAPAPAVRelation@VERTEX@@AAPAV12@@Z
	??$addressof@QAVRelation@VERTEX@@@std@@YAPBQAVRelation@VERTEX@@ABQAV12@@Z
	??$?0U?$_List_node@PAVMassC@VERTEX@@PAX@std@@@?$allocator@PAVMassC@VERTEX@@@std@@QAE@ABV?$allocator@U?$_List_node@PAVMassC@VERTEX@@PAX@std@@@1@@Z
	??0?$_List_unchecked_const_iterator@V?$_List_val@U?$_List_simple_types@PAVMassC@VERTEX@@@std@@@std@@U_Iterator_base0@2@@std@@QAE@PAU?$_List_node@PAVMassC@VERTEX@@PAX@1@PBV?$_List_val@U?$_List_simple_types@PAVMassC@VERTEX@@@std@@@1@@Z
	??F?$_List_unchecked_const_iterator@V?$_List_val@U?$_List_simple_types@PAVMassC@VERTEX@@@std@@@std@@U_Iterator_base0@2@@std@@QAEAAV01@XZ
	?_Mynode@?$_List_unchecked_const_iterator@V?$_List_val@U?$_List_simple_types@PAVMassC@VERTEX@@@std@@@std@@U_Iterator_base0@2@@std@@QBEPAU?$_List_node@PAVMassC@VERTEX@@PAX@2@XZ
	??0?$_List_const_iterator@V?$_List_val@U?$_List_simple_types@PAVMassC@VERTEX@@@std@@@std@@@std@@QAE@PAU?$_List_node@PAVMassC@VERTEX@@PAX@1@PBV?$_List_val@U?$_List_simple_types@PAVMassC@VERTEX@@@std@@@1@@Z
	?_Unchecked@?$_List_const_iterator@V?$_List_val@U?$_List_simple_types@PAVMassC@VERTEX@@@std@@@std@@@std@@QBE?AV?$_List_unchecked_const_iterator@V?$_List_val@U?$_List_simple_types@PAVMassC@VERTEX@@@std@@@std@@U_Iterator_base0@2@@2@XZ
	??D?$_List_const_iterator@V?$_List_val@U?$_List_simple_types@PAVMassC@VERTEX@@@std@@@std@@@std@@QBEABQAVMassC@VERTEX@@XZ
	??E?$_List_const_iterator@V?$_List_val@U?$_List_simple_types@PAVMassC@VERTEX@@@std@@@std@@@std@@QAEAAV01@XZ
	??F?$_List_const_iterator@V?$_List_val@U?$_List_simple_types@PAVMassC@VERTEX@@@std@@@std@@@std@@QAEAAV01@XZ
	??8?$_List_const_iterator@V?$_List_val@U?$_List_simple_types@PAVMassC@VERTEX@@@std@@@std@@@std@@QBE_NABV01@@Z
	??9?$_List_const_iterator@V?$_List_val@U?$_List_simple_types@PAVMassC@VERTEX@@@std@@@std@@@std@@QBE_NABV01@@Z
	??0?$_List_iterator@V?$_List_val@U?$_List_simple_types@PAVMassC@VERTEX@@@std@@@std@@@std@@QAE@PAU?$_List_node@PAVMassC@VERTEX@@PAX@1@PBV?$_List_val@U?$_List_simple_types@PAVMassC@VERTEX@@@std@@@1@@Z
	??E?$_List_iterator@V?$_List_val@U?$_List_simple_types@PAVMassC@VERTEX@@@std@@@std@@@std@@QAEAAV01@XZ
	??F?$_List_iterator@V?$_List_val@U?$_List_simple_types@PAVMassC@VERTEX@@@std@@@std@@@std@@QAEAAV01@XZ
	??$insert@V?$_List_const_iterator@V?$_List_val@U?$_List_simple_types@PAVMassC@VERTEX@@@std@@@std@@@std@@@?$list@PAVMassC@VERTEX@@V?$allocator@PAVMassC@VERTEX@@@std@@@std@@QAE?AV?$_List_iterator@V?$_List_val@U?$_List_simple_types@PAVMassC@VERTEX@@@std@@@std@@@1@V?$_List_const_iterator@V?$_List_val@U?$_List_simple_types@PAVMassC@VERTEX@@@std@@@std@@@1@00@Z
	??0?$_Vector_const_iterator@V?$_Vector_val@U?$_Simple_types@PAVRelation@VERTEX@@@std@@@std@@@std@@QAE@PAPAVRelation@VERTEX@@PBU_Container_base0@1@@Z
	?_Unchecked@?$_Vector_const_iterator@V?$_Vector_val@U?$_Simple_types@PAVRelation@VERTEX@@@std@@@std@@@std@@QBEPBQAVRelation@VERTEX@@XZ
	??$_Ucopy@V?$_Vector_const_iterator@V?$_Vector_val@U?$_Simple_types@PAVRelation@VERTEX@@@std@@@std@@@std@@@?$vector@PAVRelation@VERTEX@@V?$allocator@PAVRelation@VERTEX@@@std@@@std@@IAEPAPAVRelation@VERTEX@@V?$_Vector_const_iterator@V?$_Vector_val@U?$_Simple_types@PAVRelation@VERTEX@@@std@@@std@@@1@0PAPAV23@@Z
	??$?9V?$allocator@PAVRelation@VERTEX@@@std@@V01@@std@@YA_NABU?$_Wrap_alloc@V?$allocator@PAVRelation@VERTEX@@@std@@@0@0@Z
	??$_Copy_impl@PAPAVRelation@VERTEX@@PAPAV12@@std@@YAPAPAVRelation@VERTEX@@PAPAV12@00@Z
	??$_Ucopy@PAPAVRelation@VERTEX@@@?$vector@PAVRelation@VERTEX@@V?$allocator@PAVRelation@VERTEX@@@std@@@std@@IAEPAPAVRelation@VERTEX@@PAPAV23@00@Z
	??$construct@PADAAPAD@?$_Wrap_alloc@V?$allocator@D@std@@@std@@QAEXPAPADAAPAD@Z
	??$destroy@PAD@?$_Wrap_alloc@V?$allocator@D@std@@@std@@QAEXPAPAD@Z
	??$addressof@D@std@@YAPADAAD@Z
	??$_Destroy_range@U?$_Wrap_alloc@V?$allocator@PAVRelation@VERTEX@@@std@@@std@@@std@@YAXPAPAVRelation@VERTEX@@0AAU?$_Wrap_alloc@V?$allocator@PAVRelation@VERTEX@@@std@@@0@@Z
	??$addressof@PAU?$_List_node@PAVRelation@VERTEX@@PAX@std@@@std@@YAPAPAU?$_List_node@PAVRelation@VERTEX@@PAX@0@AAPAU10@@Z
	??$destroy@PAU?$_List_node@PAVRelation@VERTEX@@PAX@std@@@?$_Wrap_alloc@V?$allocator@U?$_List_node@PAVRelation@VERTEX@@PAX@std@@@std@@@std@@QAEXPAPAU?$_List_node@PAVRelation@VERTEX@@PAX@1@@Z
	??$destroy@PAVRelation@VERTEX@@@?$_Wrap_alloc@V?$allocator@U?$_List_node@PAVRelation@VERTEX@@PAX@std@@@std@@@std@@QAEXPAPAVRelation@VERTEX@@@Z
	??$addressof@PAU?$_List_node@PAVMassC@VERTEX@@PAX@std@@@std@@YAPAPAU?$_List_node@PAVMassC@VERTEX@@PAX@0@AAPAU10@@Z
	??$destroy@PAU?$_List_node@PAVMassC@VERTEX@@PAX@std@@@?$_Wrap_alloc@V?$allocator@U?$_List_node@PAVMassC@VERTEX@@PAX@std@@@std@@@std@@QAEXPAPAU?$_List_node@PAVMassC@VERTEX@@PAX@1@@Z
	??$_Allocate@PAVRelation@VERTEX@@@std@@YAPAPAVRelation@VERTEX@@IPAPAV12@@Z
	??$addressof@PAVMassC@VERTEX@@@std@@YAPAPAVMassC@VERTEX@@AAPAV12@@Z
	??$destroy@PAVMassC@VERTEX@@@?$_Wrap_alloc@V?$allocator@U?$_List_node@PAVMassC@VERTEX@@PAX@std@@@std@@@std@@QAEXPAPAVMassC@VERTEX@@@Z
	??$construct@PAU?$_List_node@PAVRelation@VERTEX@@PAX@std@@AAPAU12@@?$_Wrap_alloc@V?$allocator@U?$_List_node@PAVRelation@VERTEX@@PAX@std@@@std@@@std@@QAEXPAPAU?$_List_node@PAVRelation@VERTEX@@PAX@1@AAPAU21@@Z
	??$construct@PAU?$_List_node@PAVMassC@VERTEX@@PAX@std@@AAPAU12@@?$_Wrap_alloc@V?$allocator@U?$_List_node@PAVMassC@VERTEX@@PAX@std@@@std@@@std@@QAEXPAPAU?$_List_node@PAVMassC@VERTEX@@PAX@1@AAPAU21@@Z
	??$_Allocate@D@std@@YAPADIPAD@Z
	??$_Allocate@U?$_List_node@PAVRelation@VERTEX@@PAX@std@@@std@@YAPAU?$_List_node@PAVRelation@VERTEX@@PAX@0@IPAU10@@Z
	??$_Allocate@U?$_List_node@PAVMassC@VERTEX@@PAX@std@@@std@@YAPAU?$_List_node@PAVMassC@VERTEX@@PAX@0@IPAU10@@Z
	??$_Equal@V?$_List_iterator@V?$_List_val@U?$_List_simple_types@PAVRelation@VERTEX@@@std@@@std@@@std@@U?$iterator@Ubidirectional_iterator_tag@std@@PAVRelation@VERTEX@@HPAPAV34@AAPAV34@@2@@?$_Revranit@V?$_List_iterator@V?$_List_val@U?$_List_simple_types@PAVRelation@VERTEX@@@std@@@std@@@std@@U?$iterator@Ubidirectional_iterator_tag@std@@PAVRelation@VERTEX@@HPAPAV34@AAPAV34@@2@@std@@QBE_NABV01@@Z
	??$_Equal@V?$_List_const_iterator@V?$_List_val@U?$_List_simple_types@PAVRelation@VERTEX@@@std@@@std@@@std@@U?$iterator@Ubidirectional_iterator_tag@std@@PAVRelation@VERTEX@@HPBQAV34@ABQAV34@@2@@?$_Revranit@V?$_List_const_iterator@V?$_List_val@U?$_List_simple_types@PAVRelation@VERTEX@@@std@@@std@@@std@@U?$iterator@Ubidirectional_iterator_tag@std@@PAVRelation@VERTEX@@HPBQAV34@ABQAV34@@2@@std@@QBE_NABV01@@Z
	??$equal@V?$_List_const_iterator@V?$_List_val@U?$_List_simple_types@PAVRelation@VERTEX@@@std@@@std@@@std@@V12@@std@@YA_NV?$_List_const_iterator@V?$_List_val@U?$_List_simple_types@PAVRelation@VERTEX@@@std@@@std@@@0@00@Z
	??$_Iter_cat@V?$_List_const_iterator@V?$_List_val@U?$_List_simple_types@PAVRelation@VERTEX@@@std@@@std@@@std@@@std@@YA?AUbidirectional_iterator_tag@0@ABV?$_List_const_iterator@V?$_List_val@U?$_List_simple_types@PAVRelation@VERTEX@@@std@@@std@@@0@@Z
	??$_Insert_range@V?$_List_const_iterator@V?$_List_val@U?$_List_simple_types@PAVRelation@VERTEX@@@std@@@std@@@std@@@?$list@PAVRelation@VERTEX@@V?$allocator@PAVRelation@VERTEX@@@std@@@std@@QAEXV?$_List_unchecked_const_iterator@V?$_List_val@U?$_List_simple_types@PAVRelation@VERTEX@@@std@@@std@@U_Iterator_base0@2@@1@V?$_List_const_iterator@V?$_List_val@U?$_List_simple_types@PAVRelation@VERTEX@@@std@@@std@@@1@1Uforward_iterator_tag@1@@Z
	??$forward@ABQAVRelation@VERTEX@@@std@@YAABQAVRelation@VERTEX@@ABQAV12@@Z
	??$_Buynode@ABQAVRelation@VERTEX@@@?$_List_buy@PAVRelation@VERTEX@@V?$allocator@PAVRelation@VERTEX@@@std@@@std@@QAEPAU?$_List_node@PAVRelation@VERTEX@@PAX@1@PAU21@0ABQAVRelation@VERTEX@@@Z
	??$_Iter_cat@V?$_List_const_iterator@V?$_List_val@U?$_List_simple_types@PAVMassC@VERTEX@@@std@@@std@@@std@@@std@@YA?AUbidirectional_iterator_tag@0@ABV?$_List_const_iterator@V?$_List_val@U?$_List_simple_types@PAVMassC@VERTEX@@@std@@@std@@@0@@Z
	??$_Insert_range@V?$_List_const_iterator@V?$_List_val@U?$_List_simple_types@PAVMassC@VERTEX@@@std@@@std@@@std@@@?$list@PAVMassC@VERTEX@@V?$allocator@PAVMassC@VERTEX@@@std@@@std@@QAEXV?$_List_unchecked_const_iterator@V?$_List_val@U?$_List_simple_types@PAVMassC@VERTEX@@@std@@@std@@U_Iterator_base0@2@@1@V?$_List_const_iterator@V?$_List_val@U?$_List_simple_types@PAVMassC@VERTEX@@@std@@@std@@@1@1Uforward_iterator_tag@1@@Z
	??$_Uninitialized_copy@V?$_Vector_const_iterator@V?$_Vector_val@U?$_Simple_types@PAVRelation@VERTEX@@@std@@@std@@@std@@PAPAVRelation@VERTEX@@U?$_Wrap_alloc@V?$allocator@PAVRelation@VERTEX@@@std@@@2@@std@@YAPAPAVRelation@VERTEX@@V?$_Vector_const_iterator@V?$_Vector_val@U?$_Simple_types@PAVRelation@VERTEX@@@std@@@std@@@0@0PAPAV12@AAU?$_Wrap_alloc@V?$allocator@PAVRelation@VERTEX@@@std@@@0@@Z
	??$?8V?$allocator@PAVRelation@VERTEX@@@std@@V01@@std@@YA_NABU?$_Wrap_alloc@V?$allocator@PAVRelation@VERTEX@@@std@@@0@0@Z
	??$?8PAVRelation@VERTEX@@PAV01@@std@@YA_NABV?$allocator@PAVRelation@VERTEX@@@0@0@Z
	??$_Ptr_cat@PAVRelation@VERTEX@@PAV12@@std@@YA?AU_Scalar_ptr_iterator_tag@0@PBQAVRelation@VERTEX@@PAPAV23@@Z
	??$_Ptr_cat@PAVRelation@VERTEX@@PAV12@@std@@YA?AU_Scalar_ptr_iterator_tag@0@PAPAVRelation@VERTEX@@0@Z
	??$_Copy_impl@PAPAVRelation@VERTEX@@PAPAV12@@std@@YAPAPAVRelation@VERTEX@@PAPAV12@00U_Scalar_ptr_iterator_tag@0@@Z
	??$_Uninitialized_copy@PAPAVRelation@VERTEX@@PAPAV12@U?$_Wrap_alloc@V?$allocator@PAVRelation@VERTEX@@@std@@@std@@@std@@YAPAPAVRelation@VERTEX@@PAPAV12@00AAU?$_Wrap_alloc@V?$allocator@PAVRelation@VERTEX@@@std@@@0@@Z
	??$forward@AAPAD@std@@YAAAPADAAPAD@Z
	??$construct@PADAAPAD@?$allocator_traits@V?$allocator@D@std@@@std@@SAXAAV?$allocator@D@1@PAPADAAPAD@Z
	??$destroy@PAD@?$allocator_traits@V?$allocator@D@std@@@std@@SAXAAV?$allocator@D@1@PAPAD@Z
	??$_Destroy_range@U?$_Wrap_alloc@V?$allocator@PAVRelation@VERTEX@@@std@@@std@@@std@@YAXPAPAVRelation@VERTEX@@0AAU?$_Wrap_alloc@V?$allocator@PAVRelation@VERTEX@@@std@@@0@U_Scalar_ptr_iterator_tag@0@@Z
	??$destroy@PAU?$_List_node@PAVRelation@VERTEX@@PAX@std@@@?$allocator_traits@V?$allocator@U?$_List_node@PAVRelation@VERTEX@@PAX@std@@@std@@@std@@SAXAAV?$allocator@U?$_List_node@PAVRelation@VERTEX@@PAX@std@@@1@PAPAU?$_List_node@PAVRelation@VERTEX@@PAX@1@@Z
	??$destroy@PAVRelation@VERTEX@@@?$allocator_traits@V?$allocator@U?$_List_node@PAVRelation@VERTEX@@PAX@std@@@std@@@std@@SAXAAV?$allocator@U?$_List_node@PAVRelation@VERTEX@@PAX@std@@@1@PAPAVRelation@VERTEX@@@Z
	??$destroy@PAU?$_List_node@PAVMassC@VERTEX@@PAX@std@@@?$allocator_traits@V?$allocator@U?$_List_node@PAVMassC@VERTEX@@PAX@std@@@std@@@std@@SAXAAV?$allocator@U?$_List_node@PAVMassC@VERTEX@@PAX@std@@@1@PAPAU?$_List_node@PAVMassC@VERTEX@@PAX@1@@Z
	??$destroy@PAVMassC@VERTEX@@@?$allocator_traits@V?$allocator@U?$_List_node@PAVMassC@VERTEX@@PAX@std@@@std@@@std@@SAXAAV?$allocator@U?$_List_node@PAVMassC@VERTEX@@PAX@std@@@1@PAPAVMassC@VERTEX@@@Z
	??$forward@AAPAU?$_List_node@PAVRelation@VERTEX@@PAX@std@@@std@@YAAAPAU?$_List_node@PAVRelation@VERTEX@@PAX@0@AAPAU10@@Z
	??$construct@PAU?$_List_node@PAVRelation@VERTEX@@PAX@std@@AAPAU12@@?$allocator_traits@V?$allocator@U?$_List_node@PAVRelation@VERTEX@@PAX@std@@@std@@@std@@SAXAAV?$allocator@U?$_List_node@PAVRelation@VERTEX@@PAX@std@@@1@PAPAU?$_List_node@PAVRelation@VERTEX@@PAX@1@AAPAU31@@Z
	??$forward@AAPAU?$_List_node@PAVMassC@VERTEX@@PAX@std@@@std@@YAAAPAU?$_List_node@PAVMassC@VERTEX@@PAX@0@AAPAU10@@Z
	??$construct@PAU?$_List_node@PAVMassC@VERTEX@@PAX@std@@AAPAU12@@?$allocator_traits@V?$allocator@U?$_List_node@PAVMassC@VERTEX@@PAX@std@@@std@@@std@@SAXAAV?$allocator@U?$_List_node@PAVMassC@VERTEX@@PAX@std@@@1@PAPAU?$_List_node@PAVMassC@VERTEX@@PAX@1@AAPAU31@@Z
	??$_Unchecked@V?$_List_val@U?$_List_simple_types@PAVRelation@VERTEX@@@std@@@std@@@std@@YA?AV?$_List_unchecked_const_iterator@V?$_List_val@U?$_List_simple_types@PAVRelation@VERTEX@@@std@@@std@@U_Iterator_base0@2@@0@V?$_List_const_iterator@V?$_List_val@U?$_List_simple_types@PAVRelation@VERTEX@@@std@@@std@@@0@@Z
	??$_Equal@V?$_List_unchecked_const_iterator@V?$_List_val@U?$_List_simple_types@PAVRelation@VERTEX@@@std@@@std@@U_Iterator_base0@2@@std@@V12@@std@@YA_NV?$_List_unchecked_const_iterator@V?$_List_val@U?$_List_simple_types@PAVRelation@VERTEX@@@std@@@std@@U_Iterator_base0@2@@0@00@Z
	??$construct@PAVRelation@VERTEX@@ABQAV12@@?$_Wrap_alloc@V?$allocator@U?$_List_node@PAVRelation@VERTEX@@PAX@std@@@std@@@std@@QAEXPAPAVRelation@VERTEX@@ABQAV23@@Z
	??$_Insert@ABQAVMassC@VERTEX@@@?$list@PAVMassC@VERTEX@@V?$allocator@PAVMassC@VERTEX@@@std@@@std@@QAEXV?$_List_unchecked_const_iterator@V?$_List_val@U?$_List_simple_types@PAVMassC@VERTEX@@@std@@@std@@U_Iterator_base0@2@@1@ABQAVMassC@VERTEX@@@Z
	??$_Unchecked@V?$_Vector_val@U?$_Simple_types@PAVRelation@VERTEX@@@std@@@std@@@std@@YAPBQAVRelation@VERTEX@@V?$_Vector_const_iterator@V?$_Vector_val@U?$_Simple_types@PAVRelation@VERTEX@@@std@@@std@@@0@@Z
	??$_Unchecked@PAPAVRelation@VERTEX@@@std@@YAPAPAVRelation@VERTEX@@PAPAV12@@Z
	??$_Uninit_copy@PBQAVRelation@VERTEX@@PAPAV12@U?$_Wrap_alloc@V?$allocator@PAVRelation@VERTEX@@@std@@@std@@@std@@YAPAPAVRelation@VERTEX@@PBQAV12@0PAPAV12@AAU?$_Wrap_alloc@V?$allocator@PAVRelation@VERTEX@@@std@@@0@@Z
	??$_Rechecked@PAPAVRelation@VERTEX@@PAPAV12@@std@@YAAAPAPAVRelation@VERTEX@@AAPAPAV12@PAPAV12@@Z
	??$_Uninit_copy@PAPAVRelation@VERTEX@@PAPAV12@U?$_Wrap_alloc@V?$allocator@PAVRelation@VERTEX@@@std@@@std@@@std@@YAPAPAVRelation@VERTEX@@PAPAV12@00AAU?$_Wrap_alloc@V?$allocator@PAVRelation@VERTEX@@@std@@@0@@Z
	??$construct@PADAAPAD@?$allocator@D@std@@QAEXPAPADAAPAD@Z
	??$destroy@PAD@?$allocator@D@std@@QAEXPAPAD@Z
	??$destroy@PAU?$_List_node@PAVRelation@VERTEX@@PAX@std@@@?$allocator@U?$_List_node@PAVRelation@VERTEX@@PAX@std@@@std@@QAEXPAPAU?$_List_node@PAVRelation@VERTEX@@PAX@1@@Z
	??$destroy@PAVRelation@VERTEX@@@?$allocator@U?$_List_node@PAVRelation@VERTEX@@PAX@std@@@std@@QAEXPAPAVRelation@VERTEX@@@Z
	??$destroy@PAU?$_List_node@PAVMassC@VERTEX@@PAX@std@@@?$allocator@U?$_List_node@PAVMassC@VERTEX@@PAX@std@@@std@@QAEXPAPAU?$_List_node@PAVMassC@VERTEX@@PAX@1@@Z
	??$destroy@PAVMassC@VERTEX@@@?$allocator@U?$_List_node@PAVMassC@VERTEX@@PAX@std@@@std@@QAEXPAPAVMassC@VERTEX@@@Z
	??$construct@PAU?$_List_node@PAVRelation@VERTEX@@PAX@std@@AAPAU12@@?$allocator@U?$_List_node@PAVRelation@VERTEX@@PAX@std@@@std@@QAEXPAPAU?$_List_node@PAVRelation@VERTEX@@PAX@1@AAPAU21@@Z
	??$construct@PAU?$_List_node@PAVMassC@VERTEX@@PAX@std@@AAPAU12@@?$allocator@U?$_List_node@PAVMassC@VERTEX@@PAX@std@@@std@@QAEXPAPAU?$_List_node@PAVMassC@VERTEX@@PAX@1@AAPAU21@@Z
	??$construct@PAVRelation@VERTEX@@ABQAV12@@?$allocator_traits@V?$allocator@U?$_List_node@PAVRelation@VERTEX@@PAX@std@@@std@@@std@@SAXAAV?$allocator@U?$_List_node@PAVRelation@VERTEX@@PAX@std@@@1@PAPAVRelation@VERTEX@@ABQAV34@@Z
	??$forward@ABQAVMassC@VERTEX@@@std@@YAABQAVMassC@VERTEX@@ABQAV12@@Z
	??$_Buynode@ABQAVMassC@VERTEX@@@?$_List_buy@PAVMassC@VERTEX@@V?$allocator@PAVMassC@VERTEX@@@std@@@std@@QAEPAU?$_List_node@PAVMassC@VERTEX@@PAX@1@PAU21@0ABQAVMassC@VERTEX@@@Z
	??$_Uninit_copy@QAVRelation@VERTEX@@PAV12@@std@@YAPAPAVRelation@VERTEX@@PBQAV12@0PAPAV12@AAU?$_Wrap_alloc@V?$allocator@PAVRelation@VERTEX@@@std@@@0@U_Scalar_ptr_iterator_tag@0@@Z
	??$_Uninit_copy@PAVRelation@VERTEX@@PAV12@@std@@YAPAPAVRelation@VERTEX@@PAPAV12@00AAU?$_Wrap_alloc@V?$allocator@PAVRelation@VERTEX@@@std@@@0@U_Scalar_ptr_iterator_tag@0@@Z
	??$construct@PAVRelation@VERTEX@@ABQAV12@@?$allocator@U?$_List_node@PAVRelation@VERTEX@@PAX@std@@@std@@QAEXPAPAVRelation@VERTEX@@ABQAV23@@Z
	??$construct@PAVMassC@VERTEX@@ABQAV12@@?$_Wrap_alloc@V?$allocator@U?$_List_node@PAVMassC@VERTEX@@PAX@std@@@std@@@std@@QAEXPAPAVMassC@VERTEX@@ABQAV23@@Z
	??$construct@PAVMassC@VERTEX@@ABQAV12@@?$allocator_traits@V?$allocator@U?$_List_node@PAVMassC@VERTEX@@PAX@std@@@std@@@std@@SAXAAV?$allocator@U?$_List_node@PAVMassC@VERTEX@@PAX@std@@@1@PAPAVMassC@VERTEX@@ABQAV34@@Z
	??$construct@PAVMassC@VERTEX@@ABQAV12@@?$allocator@U?$_List_node@PAVMassC@VERTEX@@PAX@std@@@std@@QAEXPAPAVMassC@VERTEX@@ABQAV23@@Z
	?_Generic_object@?$_Error_objects@H@std@@2V_Generic_error_category@2@A 	 DATA
	?_Iostream_object@?$_Error_objects@H@std@@2V_Iostream_error_category@2@A 	 DATA
	?_System_object@?$_Error_objects@H@std@@2V_System_error_category@2@A 	 DATA
	?id@?$num_put@DV?$back_insert_iterator@V?$basic_string@DU?$char_traits@D@std@@V?$allocator@D@2@@std@@@std@@@std@@2V0locale@2@A 	 DATA
	?id@?$num_put@_WV?$back_insert_iterator@V?$basic_string@_WU?$char_traits@_W@std@@V?$allocator@_W@2@@std@@@std@@@std@@2V0locale@2@A 	 DATA
	?instance@?1??GenerateInitInstance@ROOTDict@MATRIX@@YAPAVTGenericClassInfo@ROOT@@XZ@4V45@A 	 DATA
	??_B?1??GenerateInitInstance@ROOTDict@MATRIX@@YAPAVTGenericClassInfo@ROOT@@XZ@51 	 DATA
	??_R0?AVVtVector@MATRIX@@@8 	 DATA
	??_R0?AVVtNegMatrix@MATRIX@@@8 	 DATA
	??_R0?AVVtMatrix@MATRIX@@@8 	 DATA
	??_R0?AVVtSqMatrix@MATRIX@@@8 	 DATA
	??_R0?AVVtSymMatrix@MATRIX@@@8 	 DATA
	??_R0?AVCMatrix@MATRIX@@@8 	 DATA
	?instance@?1??GenerateInitInstance@ROOTDict@VERTEX@@YAPAVTGenericClassInfo@ROOT@@XZ@4V45@A 	 DATA
	??_B?1??GenerateInitInstance@ROOTDict@VERTEX@@YAPAVTGenericClassInfo@ROOT@@XZ@51 	 DATA
	??_R0?AVRelation@VERTEX@@@8 	 DATA
	??_R0?AVRelationIterator@VERTEX@@@8 	 DATA
	??_R0?AVConstRelationIterator@VERTEX@@@8 	 DATA
	??_R0?AVReverseRelationIterator@VERTEX@@@8 	 DATA
	??_R0?AVConstReverseRelationIterator@VERTEX@@@8 	 DATA
	??_R0?AVTrack@VERTEX@@@8 	 DATA
	??_R0?AVVertex@VERTEX@@@8 	 DATA
	??_R0?AVRelationList@VERTEX@@@8 	 DATA
	??_R0?AVKalman@VERTEX@@@8 	 DATA
	??_R0?AVMassC@VERTEX@@@8 	 DATA
	?G__cpp_setup_initializervtCint@@3VG__cpp_setup_initvtCint@@A 	 DATA
	??_R0?AVTVirtualIsAProxy@@@8 	 DATA
	??_R0?AVerror_category@std@@@8 	 DATA
	??_R0?AV_Generic_error_category@std@@@8 	 DATA
	??_R0?AV_Iostream_error_category@std@@@8 	 DATA
	??_R0?AV_System_error_category@std@@@8 	 DATA
	??_R0?AVTLockGuard@@@8 	 DATA
	??_R0?AV?$TInstrumentedIsAProxy@VVtVector@MATRIX@@@@@8 	 DATA
	??_R0?AV?$TInstrumentedIsAProxy@VVtNegMatrix@MATRIX@@@@@8 	 DATA
	??_R0?AV?$TInstrumentedIsAProxy@VVtMatrix@MATRIX@@@@@8 	 DATA
	??_R0?AV?$TInstrumentedIsAProxy@VVtSqMatrix@MATRIX@@@@@8 	 DATA
	??_R0?AV?$TInstrumentedIsAProxy@VVtSymMatrix@MATRIX@@@@@8 	 DATA
	??_R0?AV?$TInstrumentedIsAProxy@VCMatrix@MATRIX@@@@@8 	 DATA
	??_R0?AV?$TInstrumentedIsAProxy@VRelation@VERTEX@@@@@8 	 DATA
	??_R0?AV?$TInstrumentedIsAProxy@VRelationIterator@VERTEX@@@@@8 	 DATA
	??_R0?AV?$TInstrumentedIsAProxy@VConstRelationIterator@VERTEX@@@@@8 	 DATA
	??_R0?AV?$TInstrumentedIsAProxy@VReverseRelationIterator@VERTEX@@@@@8 	 DATA
	??_R0?AV?$TInstrumentedIsAProxy@VConstReverseRelationIterator@VERTEX@@@@@8 	 DATA
	??_R0?AV?$TInstrumentedIsAProxy@VTrack@VERTEX@@@@@8 	 DATA
	??_R0?AV?$TInstrumentedIsAProxy@VVertex@VERTEX@@@@@8 	 DATA
	??_R0?AV?$TInstrumentedIsAProxy@VRelationList@VERTEX@@@@@8 	 DATA
	??_R0?AV?$TInstrumentedIsAProxy@VKalman@VERTEX@@@@@8 	 DATA
	??_R0?AV?$TInstrumentedIsAProxy@VMassC@VERTEX@@@@@8 	 DATA
